(lp0
((dp1
(S'01013500'
p2
S'fall'
p3
tp4
cnumpy.core.multiarray
scalar
p5
(cnumpy
dtype
p6
(S'f8'
p7
I0
I1
tp8
Rp9
(I3
S'<'
p10
NNNI-1
I-1
I0
tp11
bS'\xac\xdda\xcfln\xac?'
p12
tp13
Rp14
s(dp15
(g2
g3
tp16
g5
(g9
S'D`\x06;\x8c\xe0\xf0?'
p17
tp18
Rp19
s(dp20
(g2
g3
tp21
(lp22
cpandas.tslib
Timestamp
p23
(I336873600000000000
NNtp24
Rp25
ag23
(I339120000000000000
NNtp26
Rp27
ag23
(I340156800000000000
NNtp28
Rp29
ag23
(I340934400000000000
NNtp30
Rp31
ag23
(I341798400000000000
NNtp32
Rp33
ag23
(I341971200000000000
NNtp34
Rp35
ag23
(I344217600000000000
NNtp36
Rp37
ag23
(I368150400000000000
NNtp38
Rp39
ag23
(I368496000000000000
NNtp40
Rp41
ag23
(I368928000000000000
NNtp42
Rp43
ag23
(I370051200000000000
NNtp44
Rp45
ag23
(I372297600000000000
NNtp46
Rp47
as(dp48
(g2
g3
tp49
g5
(g9
S'\xb0\x91\x15\xfev]\xf6?'
p50
tp51
Rp52
s(dp53
(g2
g3
tp54
g5
(g9
S'\xa4\x9c\x03\x1er\x8b\xed?'
p55
tp56
Rp57
s(dp58
(g2
g3
tp59
F0.10932259772271129
s(dp60
(g2
g3
tp61
g5
(g9
S'h\x1f\x9b\x91C]\x1a@'
p62
tp63
Rp64
s(dp65
(g2
g3
tp66
g5
(g9
S'\x9c2\xb0E\xfb\xec\xe6?'
p67
tp68
Rp69
s(dp70
(g2
g3
tp71
g5
(g9
S'\x03o\x84L\xc3\x96\xef?'
p72
tp73
Rp74
s(dp75
(g2
g3
tp76
g5
(g9
S"[\xa4\x0e\xb4:'\x98?"
p77
tp78
Rp79
s(dp80
(g2
g3
tp81
F0.6594374638046638
s(dp82
(g2
g3
tp83
F0.5544535951553506
s(dp84
(dp85
tp86
a.