(lp0
((dp1
(S'03450000'
p2
S'fall'
p3
tp4
cnumpy.core.multiarray
scalar
p5
(cnumpy
dtype
p6
(S'f8'
p7
I0
I1
tp8
Rp9
(I3
S'<'
p10
NNNI-1
I-1
I0
tp11
bS'X\x04.5\xc9R\xd0?'
p12
tp13
Rp14
s(g2
S'spring'
p15
tp16
g5
(g9
S"\xf1\xdc'\xf5T\x0e\xd2?"
p17
tp18
Rp19
s(dp20
(g2
g3
tp21
g5
(g9
S'MZ\xa4\x11F\xa1\xf1?'
p22
tp23
Rp24
s(g2
g15
tp25
g5
(g9
S'\xc76-\xc7\xc2\xec\xf9?'
p26
tp27
Rp28
s(dp29
(g2
g3
tp30
(lp31
cpandas.tslib
Timestamp
p32
(I336873600000000000
NNtp33
Rp34
ag32
(I337046400000000000
NNtp35
Rp36
ag32
(I337132800000000000
NNtp37
Rp38
ag32
(I337219200000000000
NNtp39
Rp40
ag32
(I337392000000000000
NNtp41
Rp42
ag32
(I337478400000000000
NNtp43
Rp44
ag32
(I338083200000000000
NNtp45
Rp46
ag32
(I338256000000000000
NNtp47
Rp48
ag32
(I338342400000000000
NNtp49
Rp50
ag32
(I338428800000000000
NNtp51
Rp52
ag32
(I338601600000000000
NNtp53
Rp54
ag32
(I339120000000000000
NNtp55
Rp56
ag32
(I339206400000000000
NNtp57
Rp58
ag32
(I339292800000000000
NNtp59
Rp60
ag32
(I339379200000000000
NNtp61
Rp62
ag32
(I339552000000000000
NNtp63
Rp64
ag32
(I339811200000000000
NNtp65
Rp66
ag32
(I339984000000000000
NNtp67
Rp68
ag32
(I340070400000000000
NNtp69
Rp70
ag32
(I340329600000000000
NNtp71
Rp72
ag32
(I340502400000000000
NNtp73
Rp74
ag32
(I340588800000000000
NNtp75
Rp76
ag32
(I341020800000000000
NNtp77
Rp78
ag32
(I341193600000000000
NNtp79
Rp80
ag32
(I341366400000000000
NNtp81
Rp82
ag32
(I341452800000000000
NNtp83
Rp84
ag32
(I341539200000000000
NNtp85
Rp86
ag32
(I341884800000000000
NNtp87
Rp88
ag32
(I341971200000000000
NNtp89
Rp90
ag32
(I342576000000000000
NNtp91
Rp92
ag32
(I343008000000000000
NNtp93
Rp94
ag32
(I343094400000000000
NNtp95
Rp96
ag32
(I343180800000000000
NNtp97
Rp98
ag32
(I343440000000000000
NNtp99
Rp100
ag32
(I343526400000000000
NNtp101
Rp102
ag32
(I343612800000000000
NNtp103
Rp104
ag32
(I343699200000000000
NNtp105
Rp106
ag32
(I343872000000000000
NNtp107
Rp108
ag32
(I343958400000000000
NNtp109
Rp110
ag32
(I344217600000000000
NNtp111
Rp112
ag32
(I344304000000000000
NNtp113
Rp114
ag32
(I368236800000000000
NNtp115
Rp116
ag32
(I368409600000000000
NNtp117
Rp118
ag32
(I368496000000000000
NNtp119
Rp120
ag32
(I368582400000000000
NNtp121
Rp122
ag32
(I368668800000000000
NNtp123
Rp124
ag32
(I368841600000000000
NNtp125
Rp126
ag32
(I368928000000000000
NNtp127
Rp128
ag32
(I369014400000000000
NNtp129
Rp130
ag32
(I369100800000000000
NNtp131
Rp132
ag32
(I369187200000000000
NNtp133
Rp134
ag32
(I369273600000000000
NNtp135
Rp136
ag32
(I369360000000000000
NNtp137
Rp138
ag32
(I369878400000000000
NNtp139
Rp140
ag32
(I370224000000000000
NNtp141
Rp142
ag32
(I370310400000000000
NNtp143
Rp144
ag32
(I370396800000000000
NNtp145
Rp146
ag32
(I370483200000000000
NNtp147
Rp148
ag32
(I370656000000000000
NNtp149
Rp150
ag32
(I494467200000000000
NNtp151
Rp152
ag32
(I494726400000000000
NNtp153
Rp154
ag32
(I495072000000000000
NNtp155
Rp156
ag32
(I495158400000000000
NNtp157
Rp158
ag32
(I495417600000000000
NNtp159
Rp160
ag32
(I495590400000000000
NNtp161
Rp162
ag32
(I495936000000000000
NNtp163
Rp164
ag32
(I496108800000000000
NNtp165
Rp166
ag32
(I496454400000000000
NNtp167
Rp168
ag32
(I496886400000000000
NNtp169
Rp170
as(g2
g15
tp171
(lp172
g32
(I321321600000000000
NNtp173
Rp174
ag32
(I321494400000000000
NNtp175
Rp176
ag32
(I321926400000000000
NNtp177
Rp178
ag32
(I322099200000000000
NNtp179
Rp180
ag32
(I322185600000000000
NNtp181
Rp182
ag32
(I322444800000000000
NNtp183
Rp184
ag32
(I322704000000000000
NNtp185
Rp186
ag32
(I322963200000000000
NNtp187
Rp188
ag32
(I324172800000000000
NNtp189
Rp190
ag32
(I324864000000000000
NNtp191
Rp192
ag32
(I324950400000000000
NNtp193
Rp194
ag32
(I325123200000000000
NNtp195
Rp196
ag32
(I325296000000000000
NNtp197
Rp198
ag32
(I325900800000000000
NNtp199
Rp200
ag32
(I326160000000000000
NNtp201
Rp202
ag32
(I326505600000000000
NNtp203
Rp204
ag32
(I327283200000000000
NNtp205
Rp206
ag32
(I327456000000000000
NNtp207
Rp208
ag32
(I328060800000000000
NNtp209
Rp210
ag32
(I328406400000000000
NNtp211
Rp212
ag32
(I328492800000000000
NNtp213
Rp214
ag32
(I328579200000000000
NNtp215
Rp216
ag32
(I352339200000000000
NNtp217
Rp218
ag32
(I352512000000000000
NNtp219
Rp220
ag32
(I352684800000000000
NNtp221
Rp222
ag32
(I353116800000000000
NNtp223
Rp224
ag32
(I353376000000000000
NNtp225
Rp226
ag32
(I353721600000000000
NNtp227
Rp228
ag32
(I353894400000000000
NNtp229
Rp230
ag32
(I353980800000000000
NNtp231
Rp232
ag32
(I354240000000000000
NNtp233
Rp234
ag32
(I354758400000000000
NNtp235
Rp236
ag32
(I355622400000000000
NNtp237
Rp238
ag32
(I355708800000000000
NNtp239
Rp240
ag32
(I356054400000000000
NNtp241
Rp242
ag32
(I356227200000000000
NNtp243
Rp244
ag32
(I356486400000000000
NNtp245
Rp246
ag32
(I356572800000000000
NNtp247
Rp248
ag32
(I356832000000000000
NNtp249
Rp250
ag32
(I356918400000000000
NNtp251
Rp252
ag32
(I357004800000000000
NNtp253
Rp254
ag32
(I357091200000000000
NNtp255
Rp256
ag32
(I357609600000000000
NNtp257
Rp258
ag32
(I357868800000000000
NNtp259
Rp260
ag32
(I358560000000000000
NNtp261
Rp262
ag32
(I358905600000000000
NNtp263
Rp264
ag32
(I358992000000000000
NNtp265
Rp266
ag32
(I359251200000000000
NNtp267
Rp268
ag32
(I510192000000000000
NNtp269
Rp270
ag32
(I511228800000000000
NNtp271
Rp272
ag32
(I511401600000000000
NNtp273
Rp274
ag32
(I511833600000000000
NNtp275
Rp276
ag32
(I511920000000000000
NNtp277
Rp278
ag32
(I512697600000000000
NNtp279
Rp280
ag32
(I513129600000000000
NNtp281
Rp282
ag32
(I513820800000000000
NNtp283
Rp284
ag32
(I514166400000000000
NNtp285
Rp286
ag32
(I514512000000000000
NNtp287
Rp288
ag32
(I514771200000000000
NNtp289
Rp290
ag32
(I514944000000000000
NNtp291
Rp292
ag32
(I515203200000000000
NNtp293
Rp294
ag32
(I515376000000000000
NNtp295
Rp296
ag32
(I515808000000000000
NNtp297
Rp298
ag32
(I515894400000000000
NNtp299
Rp300
ag32
(I517017600000000000
NNtp301
Rp302
ag32
(I517363200000000000
NNtp303
Rp304
ag32
(I517536000000000000
NNtp305
Rp306
ag32
(I517708800000000000
NNtp307
Rp308
ag32
(I542764800000000000
NNtp309
Rp310
ag32
(I542937600000000000
NNtp311
Rp312
ag32
(I543369600000000000
NNtp313
Rp314
ag32
(I543628800000000000
NNtp315
Rp316
ag32
(I543801600000000000
NNtp317
Rp318
ag32
(I543888000000000000
NNtp319
Rp320
ag32
(I544233600000000000
NNtp321
Rp322
ag32
(I544320000000000000
NNtp323
Rp324
ag32
(I544579200000000000
NNtp325
Rp326
ag32
(I545011200000000000
NNtp327
Rp328
ag32
(I545097600000000000
NNtp329
Rp330
ag32
(I545184000000000000
NNtp331
Rp332
ag32
(I545356800000000000
NNtp333
Rp334
ag32
(I545788800000000000
NNtp335
Rp336
ag32
(I546048000000000000
NNtp337
Rp338
ag32
(I546220800000000000
NNtp339
Rp340
as(dp341
(g2
g3
tp342
g5
(g9
S'\x13\xb9\x83\xae\x9b\xd6\xfe?'
p343
tp344
Rp345
s(g2
g15
tp346
g5
(g9
S'\x88\x98\xb62\xc5W\xff?'
p347
tp348
Rp349
s(dp350
(g2
g3
tp351
g5
(g9
S'\xeek\xfd\x16\x9e\x8e\xf3?'
p352
tp353
Rp354
s(g2
g15
tp355
g5
(g9
S'i.^V\x12`\xe7?'
p356
tp357
Rp358
sg5
(g9
S'~\xfd\xd9z\x9a\xc7\xef?'
p359
tp360
Rp361
g5
(g9
S'\xa1\x88<k9%\xd7?'
p362
tp363
Rp364
(dp365
(g2
g3
tp366
F0.08487502328796369
s(g2
g15
tp367
F0.24086033418865171
s(dp368
(g2
g3
tp369
g5
(g9
S'gXp\xa9l\xef.@'
p370
tp371
Rp372
s(g2
g15
tp373
g5
(g9
S'\xce9\xe7\x9cs\xce\x19@'
p374
tp375
Rp376
s(dp377
(g2
g3
tp378
g5
(g9
S'\xd6v?3?j\xf9?'
p379
tp380
Rp381
s(g2
g15
tp382
g5
(g9
S'#\xfdD\x18\x12~\xf6?'
p383
tp384
Rp385
s(dp386
(g2
g3
tp387
g5
(g9
S'\xa8\\\x97\xe3W\x1f\xf4?'
p388
tp389
Rp390
s(g2
g15
tp391
g5
(g9
S'\x82\xdd\x06$\x1c0\xe6?'
p392
tp393
Rp394
s(dp395
(g2
g3
tp396
g5
(g9
S'\x16\x8fR\x84\xbe\x82\xbb?'
p397
tp398
Rp399
s(g2
g15
tp400
g5
(g9
S'\xf6^\xa3\x85\xb3x\xb5?'
p401
tp402
Rp403
s(dp404
(g2
g3
tp405
F0.4946269501436788
s(g2
g15
tp406
F0.34261343183684867
s(dp407
(g2
g3
tp408
F0.33636780599075966
s(g2
g15
tp409
F0.34987807329315646
s(dp410
(g2
g3
tp411
g5
(g9
S'\x907\x19\x8b(\xa7\xed?'
p412
tp413
Rp414
s(g2
g15
tp415
g5
(g9
S'h\x01Q\xb0\xab\xc0\xed?'
p416
tp417
Rp418
s(dp419
(g2
g3
tp420
g5
(g9
S'\x18\xd2\xa1\xb0$\x03\xd0?'
p421
tp422
Rp423
s(g2
g15
tp424
g5
(g9
S'\xe6FJ\x1d\xecR\xe6?'
p425
tp426
Rp427
stp428
a((dp429
(S'03455500'
p430
S'fall'
p431
tp432
g5
(g9
S'\xa0n\x00\xc5\x82B\xe6?'
p433
tp434
Rp435
s(g430
S'spring'
p436
tp437
g5
(g9
S'\x1d\x8b5\x8cQ\x8d\xd2?'
p438
tp439
Rp440
s(dp441
(g430
g431
tp442
g5
(g9
S'\x8e\x0b\xa8\xe4~=\xfa?'
p443
tp444
Rp445
s(g430
g436
tp446
g5
(g9
S'\xdaA\x93\xdfK\xe0\xfb?'
p447
tp448
Rp449
s(dp450
(g430
g431
tp451
(lp452
g32
(I336614400000000000
NNtp453
Rp454
ag32
(I336960000000000000
NNtp455
Rp456
ag32
(I337651200000000000
NNtp457
Rp458
ag32
(I337737600000000000
NNtp459
Rp460
ag32
(I337824000000000000
NNtp461
Rp462
ag32
(I337996800000000000
NNtp463
Rp464
ag32
(I338083200000000000
NNtp465
Rp466
ag32
(I338169600000000000
NNtp467
Rp468
ag32
(I338256000000000000
NNtp469
Rp470
ag32
(I338688000000000000
NNtp471
Rp472
ag32
(I338774400000000000
NNtp473
Rp474
ag32
(I338860800000000000
NNtp475
Rp476
ag32
(I338947200000000000
NNtp477
Rp478
ag32
(I339465600000000000
NNtp479
Rp480
ag32
(I339638400000000000
NNtp481
Rp482
ag32
(I339724800000000000
NNtp483
Rp484
ag32
(I339811200000000000
NNtp485
Rp486
ag32
(I340675200000000000
NNtp487
Rp488
ag32
(I340761600000000000
NNtp489
Rp490
ag32
(I341798400000000000
NNtp491
Rp492
ag32
(I342057600000000000
NNtp493
Rp494
ag32
(I342144000000000000
NNtp495
Rp496
ag32
(I343008000000000000
NNtp497
Rp498
ag32
(I343094400000000000
NNtp499
Rp500
ag32
(I343267200000000000
NNtp501
Rp502
ag32
(I343353600000000000
NNtp503
Rp504
ag32
(I343526400000000000
NNtp505
Rp506
ag32
(I343785600000000000
NNtp507
Rp508
ag32
(I343958400000000000
NNtp509
Rp510
ag32
(I344044800000000000
NNtp511
Rp512
ag32
(I344217600000000000
NNtp513
Rp514
ag32
(I344304000000000000
NNtp515
Rp516
ag32
(I368236800000000000
NNtp517
Rp518
ag32
(I368928000000000000
NNtp519
Rp520
ag32
(I369014400000000000
NNtp521
Rp522
ag32
(I369705600000000000
NNtp523
Rp524
ag32
(I369792000000000000
NNtp525
Rp526
ag32
(I370051200000000000
NNtp527
Rp528
ag32
(I370137600000000000
NNtp529
Rp530
ag32
(I370224000000000000
NNtp531
Rp532
ag32
(I370396800000000000
NNtp533
Rp534
ag32
(I370483200000000000
NNtp535
Rp536
ag32
(I370569600000000000
NNtp537
Rp538
ag32
(I370828800000000000
NNtp539
Rp540
ag32
(I371001600000000000
NNtp541
Rp542
ag32
(I371088000000000000
NNtp543
Rp544
ag32
(I371174400000000000
NNtp545
Rp546
ag32
(I371520000000000000
NNtp547
Rp548
ag32
(I371865600000000000
NNtp549
Rp550
ag32
(I372124800000000000
NNtp551
Rp552
ag32
(I372643200000000000
NNtp553
Rp554
ag32
(I372816000000000000
NNtp555
Rp556
ag32
(I372988800000000000
NNtp557
Rp558
ag32
(I373420800000000000
NNtp559
Rp560
ag32
(I373766400000000000
NNtp561
Rp562
ag32
(I373852800000000000
NNtp563
Rp564
ag32
(I374025600000000000
NNtp565
Rp566
ag32
(I374198400000000000
NNtp567
Rp568
ag32
(I374371200000000000
NNtp569
Rp570
ag32
(I374457600000000000
NNtp571
Rp572
ag32
(I374544000000000000
NNtp573
Rp574
ag32
(I374716800000000000
NNtp575
Rp576
ag32
(I374803200000000000
NNtp577
Rp578
ag32
(I374976000000000000
NNtp579
Rp580
ag32
(I375235200000000000
NNtp581
Rp582
ag32
(I375321600000000000
NNtp583
Rp584
ag32
(I375753600000000000
NNtp585
Rp586
ag32
(I375840000000000000
NNtp587
Rp588
ag32
(I399859200000000000
NNtp589
Rp590
ag32
(I399945600000000000
NNtp591
Rp592
ag32
(I400291200000000000
NNtp593
Rp594
ag32
(I400377600000000000
NNtp595
Rp596
ag32
(I400464000000000000
NNtp597
Rp598
ag32
(I400550400000000000
NNtp599
Rp600
ag32
(I400723200000000000
NNtp601
Rp602
ag32
(I400809600000000000
NNtp603
Rp604
ag32
(I400982400000000000
NNtp605
Rp606
ag32
(I401155200000000000
NNtp607
Rp608
ag32
(I401414400000000000
NNtp609
Rp610
ag32
(I401673600000000000
NNtp611
Rp612
ag32
(I402278400000000000
NNtp613
Rp614
ag32
(I402364800000000000
NNtp615
Rp616
ag32
(I402451200000000000
NNtp617
Rp618
ag32
(I402710400000000000
NNtp619
Rp620
ag32
(I402796800000000000
NNtp621
Rp622
ag32
(I402969600000000000
NNtp623
Rp624
ag32
(I403488000000000000
NNtp625
Rp626
ag32
(I403660800000000000
NNtp627
Rp628
ag32
(I403833600000000000
NNtp629
Rp630
ag32
(I404265600000000000
NNtp631
Rp632
ag32
(I404352000000000000
NNtp633
Rp634
ag32
(I404438400000000000
NNtp635
Rp636
ag32
(I404697600000000000
NNtp637
Rp638
ag32
(I404870400000000000
NNtp639
Rp640
ag32
(I405043200000000000
NNtp641
Rp642
ag32
(I405302400000000000
NNtp643
Rp644
ag32
(I405388800000000000
NNtp645
Rp646
ag32
(I405561600000000000
NNtp647
Rp648
ag32
(I405734400000000000
NNtp649
Rp650
ag32
(I405820800000000000
NNtp651
Rp652
ag32
(I406080000000000000
NNtp653
Rp654
ag32
(I406166400000000000
NNtp655
Rp656
ag32
(I406512000000000000
NNtp657
Rp658
ag32
(I406598400000000000
NNtp659
Rp660
ag32
(I406771200000000000
NNtp661
Rp662
ag32
(I406857600000000000
NNtp663
Rp664
ag32
(I407116800000000000
NNtp665
Rp666
as(g430
g436
tp667
(lp668
g32
(I321321600000000000
NNtp669
Rp670
ag32
(I321494400000000000
NNtp671
Rp672
ag32
(I321667200000000000
NNtp673
Rp674
ag32
(I322012800000000000
NNtp675
Rp676
ag32
(I322099200000000000
NNtp677
Rp678
ag32
(I322185600000000000
NNtp679
Rp680
ag32
(I322876800000000000
NNtp681
Rp682
ag32
(I322963200000000000
NNtp683
Rp684
ag32
(I323136000000000000
NNtp685
Rp686
ag32
(I323740800000000000
NNtp687
Rp688
ag32
(I323913600000000000
NNtp689
Rp690
ag32
(I324345600000000000
NNtp691
Rp692
ag32
(I324518400000000000
NNtp693
Rp694
ag32
(I324604800000000000
NNtp695
Rp696
ag32
(I324950400000000000
NNtp697
Rp698
ag32
(I325036800000000000
NNtp699
Rp700
ag32
(I326073600000000000
NNtp701
Rp702
ag32
(I326246400000000000
NNtp703
Rp704
ag32
(I326764800000000000
NNtp705
Rp706
ag32
(I327283200000000000
NNtp707
Rp708
ag32
(I327369600000000000
NNtp709
Rp710
ag32
(I327888000000000000
NNtp711
Rp712
ag32
(I327974400000000000
NNtp713
Rp714
ag32
(I328579200000000000
NNtp715
Rp716
ag32
(I352252800000000000
NNtp717
Rp718
ag32
(I352339200000000000
NNtp719
Rp720
ag32
(I353980800000000000
NNtp721
Rp722
ag32
(I354067200000000000
NNtp723
Rp724
ag32
(I354240000000000000
NNtp725
Rp726
ag32
(I354412800000000000
NNtp727
Rp728
ag32
(I354758400000000000
NNtp729
Rp730
ag32
(I355104000000000000
NNtp731
Rp732
ag32
(I355536000000000000
NNtp733
Rp734
ag32
(I355622400000000000
NNtp735
Rp736
ag32
(I356227200000000000
NNtp737
Rp738
ag32
(I356400000000000000
NNtp739
Rp740
ag32
(I356572800000000000
NNtp741
Rp742
ag32
(I356918400000000000
NNtp743
Rp744
ag32
(I357350400000000000
NNtp745
Rp746
ag32
(I357868800000000000
NNtp747
Rp748
ag32
(I358041600000000000
NNtp749
Rp750
ag32
(I358473600000000000
NNtp751
Rp752
ag32
(I358560000000000000
NNtp753
Rp754
ag32
(I358646400000000000
NNtp755
Rp756
ag32
(I358819200000000000
NNtp757
Rp758
ag32
(I359337600000000000
NNtp759
Rp760
ag32
(I359424000000000000
NNtp761
Rp762
ag32
(I359510400000000000
NNtp763
Rp764
ag32
(I359683200000000000
NNtp765
Rp766
ag32
(I359942400000000000
NNtp767
Rp768
ag32
(I360028800000000000
NNtp769
Rp770
ag32
(I360115200000000000
NNtp771
Rp772
ag32
(I383961600000000000
NNtp773
Rp774
ag32
(I384220800000000000
NNtp775
Rp776
ag32
(I384393600000000000
NNtp777
Rp778
ag32
(I384480000000000000
NNtp779
Rp780
ag32
(I384825600000000000
NNtp781
Rp782
ag32
(I384998400000000000
NNtp783
Rp784
ag32
(I385257600000000000
NNtp785
Rp786
ag32
(I385344000000000000
NNtp787
Rp788
ag32
(I385603200000000000
NNtp789
Rp790
ag32
(I385862400000000000
NNtp791
Rp792
ag32
(I386035200000000000
NNtp793
Rp794
ag32
(I386294400000000000
NNtp795
Rp796
ag32
(I386640000000000000
NNtp797
Rp798
ag32
(I386899200000000000
NNtp799
Rp800
ag32
(I387331200000000000
NNtp801
Rp802
ag32
(I387504000000000000
NNtp803
Rp804
ag32
(I387849600000000000
NNtp805
Rp806
ag32
(I387936000000000000
NNtp807
Rp808
ag32
(I388195200000000000
NNtp809
Rp810
ag32
(I388540800000000000
NNtp811
Rp812
ag32
(I388627200000000000
NNtp813
Rp814
ag32
(I388713600000000000
NNtp815
Rp816
ag32
(I389318400000000000
NNtp817
Rp818
ag32
(I389577600000000000
NNtp819
Rp820
ag32
(I389750400000000000
NNtp821
Rp822
ag32
(I389836800000000000
NNtp823
Rp824
ag32
(I390009600000000000
NNtp825
Rp826
ag32
(I390096000000000000
NNtp827
Rp828
ag32
(I390355200000000000
NNtp829
Rp830
ag32
(I390787200000000000
NNtp831
Rp832
ag32
(I390873600000000000
NNtp833
Rp834
ag32
(I390960000000000000
NNtp835
Rp836
ag32
(I391219200000000000
NNtp837
Rp838
ag32
(I391478400000000000
NNtp839
Rp840
ag32
(I415670400000000000
NNtp841
Rp842
ag32
(I416534400000000000
NNtp843
Rp844
ag32
(I416793600000000000
NNtp845
Rp846
ag32
(I417052800000000000
NNtp847
Rp848
ag32
(I417225600000000000
NNtp849
Rp850
ag32
(I417484800000000000
NNtp851
Rp852
ag32
(I417657600000000000
NNtp853
Rp854
ag32
(I418435200000000000
NNtp855
Rp856
ag32
(I418608000000000000
NNtp857
Rp858
ag32
(I418780800000000000
NNtp859
Rp860
ag32
(I419126400000000000
NNtp861
Rp862
ag32
(I419299200000000000
NNtp863
Rp864
ag32
(I419990400000000000
NNtp865
Rp866
ag32
(I420422400000000000
NNtp867
Rp868
ag32
(I420595200000000000
NNtp869
Rp870
ag32
(I420854400000000000
NNtp871
Rp872
ag32
(I421286400000000000
NNtp873
Rp874
ag32
(I421459200000000000
NNtp875
Rp876
ag32
(I421718400000000000
NNtp877
Rp878
ag32
(I421804800000000000
NNtp879
Rp880
ag32
(I421977600000000000
NNtp881
Rp882
ag32
(I422150400000000000
NNtp883
Rp884
ag32
(I422582400000000000
NNtp885
Rp886
ag32
(I422755200000000000
NNtp887
Rp888
ag32
(I422841600000000000
NNtp889
Rp890
ag32
(I423014400000000000
NNtp891
Rp892
ag32
(I447033600000000000
NNtp893
Rp894
ag32
(I447120000000000000
NNtp895
Rp896
ag32
(I447379200000000000
NNtp897
Rp898
ag32
(I447552000000000000
NNtp899
Rp900
ag32
(I447638400000000000
NNtp901
Rp902
ag32
(I447811200000000000
NNtp903
Rp904
ag32
(I447897600000000000
NNtp905
Rp906
ag32
(I447984000000000000
NNtp907
Rp908
ag32
(I448070400000000000
NNtp909
Rp910
ag32
(I448156800000000000
NNtp911
Rp912
ag32
(I448243200000000000
NNtp913
Rp914
ag32
(I448329600000000000
NNtp915
Rp916
ag32
(I448502400000000000
NNtp917
Rp918
ag32
(I448848000000000000
NNtp919
Rp920
ag32
(I448934400000000000
NNtp921
Rp922
ag32
(I449193600000000000
NNtp923
Rp924
ag32
(I449280000000000000
NNtp925
Rp926
ag32
(I449452800000000000
NNtp927
Rp928
ag32
(I449798400000000000
NNtp929
Rp930
ag32
(I450057600000000000
NNtp931
Rp932
ag32
(I450489600000000000
NNtp933
Rp934
ag32
(I450748800000000000
NNtp935
Rp936
ag32
(I450835200000000000
NNtp937
Rp938
ag32
(I450921600000000000
NNtp939
Rp940
ag32
(I451094400000000000
NNtp941
Rp942
ag32
(I451180800000000000
NNtp943
Rp944
ag32
(I451440000000000000
NNtp945
Rp946
ag32
(I451526400000000000
NNtp947
Rp948
ag32
(I451699200000000000
NNtp949
Rp950
ag32
(I451872000000000000
NNtp951
Rp952
ag32
(I452044800000000000
NNtp953
Rp954
ag32
(I452217600000000000
NNtp955
Rp956
ag32
(I452563200000000000
NNtp957
Rp958
ag32
(I452649600000000000
NNtp959
Rp960
ag32
(I452736000000000000
NNtp961
Rp962
ag32
(I452908800000000000
NNtp963
Rp964
ag32
(I452995200000000000
NNtp965
Rp966
as(dp967
(g430
g431
tp968
g5
(g9
S'\xca\xfd/\xd2x\xd1\x04@'
p969
tp970
Rp971
s(g430
g436
tp972
g5
(g9
S'\xca\xd1{\x94\xe2\xee\x01@'
p973
tp974
Rp975
s(dp976
(g430
g431
tp977
g5
(g9
S'"\xc3C\xc1^v\xe3?'
p978
tp979
Rp980
s(g430
g436
tp981
g5
(g9
S'\x03\xd9D\x95\xfe\xa8\xe4?'
p982
tp983
Rp984
sg5
(g9
S'\xc2\xc5\x97\xe9\xe0\xb5\xef?'
p985
tp986
Rp987
g5
(g9
S'fY\x0f\x9ah\x95\xef?'
p988
tp989
Rp990
(dp991
(g430
g431
tp992
F0.15664212569139963
s(g430
g436
tp993
F0.5285728486751267
s(dp994
(g430
g431
tp995
g5
(g9
S'\xda%\xda%\xda%"@'
p996
tp997
Rp998
s(g430
g436
tp999
g5
(g9
S'\x86\x9a\x93@\\\xa8\x16@'
p1000
tp1001
Rp1002
s(dp1003
(g430
g431
tp1004
g5
(g9
S'\x9b\x85\xcf\xa5\xba\xee\xf4?'
p1005
tp1006
Rp1007
s(g430
g436
tp1008
g5
(g9
S'[_\xa3[\xb0J\x00@'
p1009
tp1010
Rp1011
s(dp1012
(g430
g431
tp1013
g5
(g9
S'\x02\x7fW\x0eR\x0c\xe4?'
p1014
tp1015
Rp1016
s(g430
g436
tp1017
g5
(g9
S'9T\x1c\xe1\xe1\xfd\xe5?'
p1018
tp1019
Rp1020
s(dp1021
(g430
g431
tp1022
g5
(g9
S'HS\xcc+\xf8*\xb9?'
p1023
tp1024
Rp1025
s(g430
g436
tp1026
g5
(g9
S'\xeb8\xe2\x9cyq\xbe?'
p1027
tp1028
Rp1029
s(dp1030
(g430
g431
tp1031
F0.22033575370288655
s(g430
g436
tp1032
F0.590637972914239
s(dp1033
(g430
g431
tp1034
g5
(g9
S'\xbcP\xe6\xd9L\xeb\xc9?'
p1035
tp1036
Rp1037
s(g430
g436
tp1038
g5
(g9
S'$\x1a\xba\x02V\xf4\xe2?'
p1039
tp1040
Rp1041
s(dp1042
(g430
g431
tp1043
g5
(g9
S'F\x8e\xfb\xad\x18}\xef?'
p1044
tp1045
Rp1046
s(g430
g436
tp1047
g5
(g9
S'K\xaf\xbdg\x16\x1d\xe6?'
p1048
tp1049
Rp1050
s(dp1051
(g430
g431
tp1052
g5
(g9
S'\x0cxj\x9e\x95\x86\xdf\xbf'
p1053
tp1054
Rp1055
s(g430
g436
tp1056
g5
(g9
S'\x18\xdb\x85\xd0\xee\x13\xd2?'
p1057
tp1058
Rp1059
stp1060
a.