(lp0
((dp1
(dp2
(dp3
(dp4
(dp5
(dp6
(dp7
(dp8
(dp9
(dp10
(dp11
(dp12
(dp13
(dp14
(dp15
(dp16
tp17
a((dp18
(dp19
(dp20
(dp21
(dp22
(dp23
(dp24
(dp25
(dp26
(dp27
(dp28
(dp29
(dp30
(dp31
(dp32
(dp33
tp34
a.