((dp0
(S'02108000'
p1
S'spring'
p2
tp3
cnumpy.core.multiarray
scalar
p4
(cnumpy
dtype
p5
(S'f8'
p6
I0
I1
tp7
Rp8
(I3
S'<'
p9
NNNI-1
I-1
I0
tp10
bS'\x9c\x079\xa1\x07\x0e\xc6?'
p11
tp12
Rp13
s(g1
S'fall'
p14
tp15
g4
(g8
S'\x91+vC\xb4%\xcf?'
p16
tp17
Rp18
s(g1
S'winter'
p19
tp20
g4
(g8
S'0kKLzE\xc8?'
p21
tp22
Rp23
s(g1
S'annual'
p24
tp25
g4
(g8
S'ohG\xe9\x17y\xc0?'
p26
tp27
Rp28
s(g1
S'summer'
p29
tp30
g4
(g8
S'/G\xf2\xa8\x1d/\xcf?'
p31
tp32
Rp33
s(g1
S'wet'
p34
tp35
g4
(g8
S'o\x98\x18\xe7\xcbf\xc6?'
p36
tp37
Rp38
s(dp39
(g1
g2
tp40
g4
(g8
S'J\x03U\xff\xcf\x19\xf2?'
p41
tp42
Rp43
s(g1
g14
tp44
g4
(g8
S'M\xac\xb91\xab.\xf3?'
p45
tp46
Rp47
s(g1
g19
tp48
g4
(g8
S':Q7\x85\x86\x93\xf5?'
p49
tp50
Rp51
s(g1
g24
tp52
g4
(g8
S'\xf2t\xb8\xd7\xde&\xf0?'
p53
tp54
Rp55
s(g1
g29
tp56
g4
(g8
S'(\xdc"\x04\xa4\xf0\xf0?'
p57
tp58
Rp59
s(g1
g34
tp60
g4
(g8
S'w\xcb\r\xde\x1c\xd9\xf3?'
p61
tp62
Rp63
s(dp64
(g1
g2
tp65
(lp66
cpandas.tslib
Timestamp
p67
(L321148800000000000L
NNtp68
Rp69
ag67
(L322531200000000000L
NNtp70
Rp71
ag67
(L323222400000000000L
NNtp72
Rp73
ag67
(L323481600000000000L
NNtp74
Rp75
ag67
(L324691200000000000L
NNtp76
Rp77
ag67
(L325036800000000000L
NNtp78
Rp79
ag67
(L325209600000000000L
NNtp80
Rp81
ag67
(L325555200000000000L
NNtp82
Rp83
ag67
(L325987200000000000L
NNtp84
Rp85
ag67
(L326592000000000000L
NNtp86
Rp87
ag67
(L327110400000000000L
NNtp88
Rp89
ag67
(L327369600000000000L
NNtp90
Rp91
ag67
(L327542400000000000L
NNtp92
Rp93
ag67
(L327888000000000000L
NNtp94
Rp95
ag67
(L352339200000000000L
NNtp96
Rp97
ag67
(L353030400000000000L
NNtp98
Rp99
ag67
(L353289600000000000L
NNtp100
Rp101
ag67
(L353462400000000000L
NNtp102
Rp103
ag67
(L353894400000000000L
NNtp104
Rp105
ag67
(L354240000000000000L
NNtp106
Rp107
ag67
(L355104000000000000L
NNtp108
Rp109
ag67
(L355276800000000000L
NNtp110
Rp111
ag67
(L356140800000000000L
NNtp112
Rp113
ag67
(L357436800000000000L
NNtp114
Rp115
ag67
(L357609600000000000L
NNtp116
Rp117
ag67
(L357782400000000000L
NNtp118
Rp119
ag67
(L358646400000000000L
NNtp120
Rp121
ag67
(L358819200000000000L
NNtp122
Rp123
ag67
(L358905600000000000L
NNtp124
Rp125
ag67
(L359078400000000000L
NNtp126
Rp127
ag67
(L359251200000000000L
NNtp128
Rp129
ag67
(L359337600000000000L
NNtp130
Rp131
ag67
(L359510400000000000L
NNtp132
Rp133
ag67
(L383961600000000000L
NNtp134
Rp135
ag67
(L384048000000000000L
NNtp136
Rp137
ag67
(L384652800000000000L
NNtp138
Rp139
ag67
(L384998400000000000L
NNtp140
Rp141
ag67
(L385257600000000000L
NNtp142
Rp143
ag67
(L385689600000000000L
NNtp144
Rp145
ag67
(L386035200000000000L
NNtp146
Rp147
ag67
(L386121600000000000L
NNtp148
Rp149
ag67
(L386553600000000000L
NNtp150
Rp151
as(g1
g14
tp152
(lp153
g67
(L336700800000000000L
NNtp154
Rp155
ag67
(L336787200000000000L
NNtp156
Rp157
ag67
(L336873600000000000L
NNtp158
Rp159
ag67
(L336960000000000000L
NNtp160
Rp161
ag67
(L337046400000000000L
NNtp162
Rp163
ag67
(L337132800000000000L
NNtp164
Rp165
ag67
(L337996800000000000L
NNtp166
Rp167
ag67
(L338083200000000000L
NNtp168
Rp169
ag67
(L338428800000000000L
NNtp170
Rp171
ag67
(L339206400000000000L
NNtp172
Rp173
ag67
(L339292800000000000L
NNtp174
Rp175
ag67
(L339465600000000000L
NNtp176
Rp177
ag67
(L339724800000000000L
NNtp178
Rp179
ag67
(L340329600000000000L
NNtp180
Rp181
ag67
(L340416000000000000L
NNtp182
Rp183
ag67
(L340848000000000000L
NNtp184
Rp185
ag67
(L341884800000000000L
NNtp186
Rp187
ag67
(L342057600000000000L
NNtp188
Rp189
ag67
(L342489600000000000L
NNtp190
Rp191
ag67
(L343094400000000000L
NNtp192
Rp193
ag67
(L343353600000000000L
NNtp194
Rp195
ag67
(L343440000000000000L
NNtp196
Rp197
ag67
(L343612800000000000L
NNtp198
Rp199
ag67
(L343699200000000000L
NNtp200
Rp201
ag67
(L344044800000000000L
NNtp202
Rp203
ag67
(L368323200000000000L
NNtp204
Rp205
ag67
(L368409600000000000L
NNtp206
Rp207
ag67
(L368582400000000000L
NNtp208
Rp209
ag67
(L368755200000000000L
NNtp210
Rp211
ag67
(L368841600000000000L
NNtp212
Rp213
ag67
(L369014400000000000L
NNtp214
Rp215
ag67
(L369187200000000000L
NNtp216
Rp217
ag67
(L369446400000000000L
NNtp218
Rp219
ag67
(L369792000000000000L
NNtp220
Rp221
ag67
(L369878400000000000L
NNtp222
Rp223
as(g1
g19
tp224
(lp225
g67
(L317433600000000000L
NNtp226
Rp227
ag67
(L320457600000000000L
NNtp228
Rp229
ag67
(L344736000000000000L
NNtp230
Rp231
ag67
(L345513600000000000L
NNtp232
Rp233
ag67
(L345600000000000000L
NNtp234
Rp235
ag67
(L345772800000000000L
NNtp236
Rp237
ag67
(L346032000000000000L
NNtp238
Rp239
ag67
(L346636800000000000L
NNtp240
Rp241
ag67
(L347673600000000000L
NNtp242
Rp243
ag67
(L349228800000000000L
NNtp244
Rp245
ag67
(L349920000000000000L
NNtp246
Rp247
ag67
(L350092800000000000L
NNtp248
Rp249
ag67
(L352080000000000000L
NNtp250
Rp251
ag67
(L376272000000000000L
NNtp252
Rp253
ag67
(L376358400000000000L
NNtp254
Rp255
ag67
(L377308800000000000L
NNtp256
Rp257
ag67
(L377481600000000000L
NNtp258
Rp259
ag67
(L377654400000000000L
NNtp260
Rp261
ag67
(L377913600000000000L
NNtp262
Rp263
ag67
(L378432000000000000L
NNtp264
Rp265
ag67
(L378518400000000000L
NNtp266
Rp267
ag67
(L379036800000000000L
NNtp268
Rp269
ag67
(L379296000000000000L
NNtp270
Rp271
ag67
(L381456000000000000L
NNtp272
Rp273
as(g1
g24
tp274
(lp275
g67
(L316137600000000000L
NNtp276
Rp277
ag67
(L316569600000000000L
NNtp278
Rp279
ag67
(L316915200000000000L
NNtp280
Rp281
ag67
(L317779200000000000L
NNtp282
Rp283
ag67
(L317865600000000000L
NNtp284
Rp285
ag67
(L318988800000000000L
NNtp286
Rp287
ag67
(L319075200000000000L
NNtp288
Rp289
ag67
(L319161600000000000L
NNtp290
Rp291
ag67
(L319248000000000000L
NNtp292
Rp293
ag67
(L319939200000000000L
NNtp294
Rp295
ag67
(L320371200000000000L
NNtp296
Rp297
ag67
(L320889600000000000L
NNtp298
Rp299
ag67
(L321062400000000000L
NNtp300
Rp301
ag67
(L321148800000000000L
NNtp302
Rp303
ag67
(L322444800000000000L
NNtp304
Rp305
ag67
(L322531200000000000L
NNtp306
Rp307
ag67
(L323568000000000000L
NNtp308
Rp309
ag67
(L323913600000000000L
NNtp310
Rp311
ag67
(L324777600000000000L
NNtp312
Rp313
ag67
(L324950400000000000L
NNtp314
Rp315
ag67
(L325123200000000000L
NNtp316
Rp317
ag67
(L325900800000000000L
NNtp318
Rp319
ag67
(L326160000000000000L
NNtp320
Rp321
ag67
(L326332800000000000L
NNtp322
Rp323
ag67
(L326419200000000000L
NNtp324
Rp325
ag67
(L326937600000000000L
NNtp326
Rp327
ag67
(L327456000000000000L
NNtp328
Rp329
ag67
(L327801600000000000L
NNtp330
Rp331
ag67
(L328233600000000000L
NNtp332
Rp333
ag67
(L328924800000000000L
NNtp334
Rp335
ag67
(L329443200000000000L
NNtp336
Rp337
ag67
(L330134400000000000L
NNtp338
Rp339
ag67
(L330825600000000000L
NNtp340
Rp341
ag67
(L330998400000000000L
NNtp342
Rp343
ag67
(L331084800000000000L
NNtp344
Rp345
ag67
(L331257600000000000L
NNtp346
Rp347
ag67
(L331430400000000000L
NNtp348
Rp349
ag67
(L331776000000000000L
NNtp350
Rp351
ag67
(L331948800000000000L
NNtp352
Rp353
ag67
(L332035200000000000L
NNtp354
Rp355
ag67
(L332121600000000000L
NNtp356
Rp357
ag67
(L332294400000000000L
NNtp358
Rp359
ag67
(L332467200000000000L
NNtp360
Rp361
ag67
(L332640000000000000L
NNtp362
Rp363
ag67
(L333331200000000000L
NNtp364
Rp365
ag67
(L333417600000000000L
NNtp366
Rp367
ag67
(L333936000000000000L
NNtp368
Rp369
ag67
(L335577600000000000L
NNtp370
Rp371
ag67
(L335664000000000000L
NNtp372
Rp373
ag67
(L335750400000000000L
NNtp374
Rp375
ag67
(L336009600000000000L
NNtp376
Rp377
ag67
(L336355200000000000L
NNtp378
Rp379
ag67
(L336528000000000000L
NNtp380
Rp381
ag67
(L336614400000000000L
NNtp382
Rp383
ag67
(L336787200000000000L
NNtp384
Rp385
ag67
(L336873600000000000L
NNtp386
Rp387
ag67
(L336960000000000000L
NNtp388
Rp389
ag67
(L337046400000000000L
NNtp390
Rp391
ag67
(L337478400000000000L
NNtp392
Rp393
ag67
(L338515200000000000L
NNtp394
Rp395
ag67
(L339292800000000000L
NNtp396
Rp397
ag67
(L339638400000000000L
NNtp398
Rp399
ag67
(L339897600000000000L
NNtp400
Rp401
ag67
(L340070400000000000L
NNtp402
Rp403
ag67
(L341107200000000000L
NNtp404
Rp405
ag67
(L341280000000000000L
NNtp406
Rp407
ag67
(L341625600000000000L
NNtp408
Rp409
ag67
(L341798400000000000L
NNtp410
Rp411
ag67
(L342144000000000000L
NNtp412
Rp413
ag67
(L342835200000000000L
NNtp414
Rp415
ag67
(L343094400000000000L
NNtp416
Rp417
ag67
(L344563200000000000L
NNtp418
Rp419
ag67
(L345427200000000000L
NNtp420
Rp421
ag67
(L346204800000000000L
NNtp422
Rp423
ag67
(L346377600000000000L
NNtp424
Rp425
ag67
(L346896000000000000L
NNtp426
Rp427
ag67
(L347241600000000000L
NNtp428
Rp429
ag67
(L347587200000000000L
NNtp430
Rp431
ag67
(L347673600000000000L
NNtp432
Rp433
ag67
(L347932800000000000L
NNtp434
Rp435
ag67
(L348019200000000000L
NNtp436
Rp437
ag67
(L348710400000000000L
NNtp438
Rp439
ag67
(L349056000000000000L
NNtp440
Rp441
ag67
(L349920000000000000L
NNtp442
Rp443
ag67
(L350524800000000000L
NNtp444
Rp445
ag67
(L351216000000000000L
NNtp446
Rp447
ag67
(L351388800000000000L
NNtp448
Rp449
ag67
(L351648000000000000L
NNtp450
Rp451
ag67
(L351734400000000000L
NNtp452
Rp453
ag67
(L351820800000000000L
NNtp454
Rp455
ag67
(L351993600000000000L
NNtp456
Rp457
ag67
(L352080000000000000L
NNtp458
Rp459
ag67
(L352598400000000000L
NNtp460
Rp461
ag67
(L352771200000000000L
NNtp462
Rp463
ag67
(L352944000000000000L
NNtp464
Rp465
ag67
(L353030400000000000L
NNtp466
Rp467
ag67
(L353462400000000000L
NNtp468
Rp469
ag67
(L353548800000000000L
NNtp470
Rp471
ag67
(L353635200000000000L
NNtp472
Rp473
ag67
(L353808000000000000L
NNtp474
Rp475
ag67
(L354240000000000000L
NNtp476
Rp477
ag67
(L354672000000000000L
NNtp478
Rp479
ag67
(L354758400000000000L
NNtp480
Rp481
ag67
(L354931200000000000L
NNtp482
Rp483
ag67
(L355449600000000000L
NNtp484
Rp485
ag67
(L355881600000000000L
NNtp486
Rp487
ag67
(L356227200000000000L
NNtp488
Rp489
ag67
(L356313600000000000L
NNtp490
Rp491
ag67
(L356572800000000000L
NNtp492
Rp493
ag67
(L356745600000000000L
NNtp494
Rp495
ag67
(L357091200000000000L
NNtp496
Rp497
ag67
(L357868800000000000L
NNtp498
Rp499
ag67
(L357955200000000000L
NNtp500
Rp501
ag67
(L358300800000000000L
NNtp502
Rp503
ag67
(L358646400000000000L
NNtp504
Rp505
ag67
(L359251200000000000L
NNtp506
Rp507
ag67
(L359596800000000000L
NNtp508
Rp509
as(g1
g29
tp510
(lp511
g67
(L328665600000000000L
NNtp512
Rp513
ag67
(L328752000000000000L
NNtp514
Rp515
ag67
(L329097600000000000L
NNtp516
Rp517
ag67
(L329356800000000000L
NNtp518
Rp519
ag67
(L329616000000000000L
NNtp520
Rp521
ag67
(L329702400000000000L
NNtp522
Rp523
ag67
(L330825600000000000L
NNtp524
Rp525
ag67
(L330912000000000000L
NNtp526
Rp527
ag67
(L331516800000000000L
NNtp528
Rp529
ag67
(L331603200000000000L
NNtp530
Rp531
ag67
(L331776000000000000L
NNtp532
Rp533
ag67
(L332208000000000000L
NNtp534
Rp535
ag67
(L332380800000000000L
NNtp536
Rp537
ag67
(L332467200000000000L
NNtp538
Rp539
ag67
(L332812800000000000L
NNtp540
Rp541
ag67
(L332899200000000000L
NNtp542
Rp543
ag67
(L333244800000000000L
NNtp544
Rp545
ag67
(L333331200000000000L
NNtp546
Rp547
ag67
(L333676800000000000L
NNtp548
Rp549
ag67
(L334022400000000000L
NNtp550
Rp551
ag67
(L334886400000000000L
NNtp552
Rp553
ag67
(L335059200000000000L
NNtp554
Rp555
ag67
(L335145600000000000L
NNtp556
Rp557
ag67
(L335232000000000000L
NNtp558
Rp559
ag67
(L335491200000000000L
NNtp560
Rp561
ag67
(L335577600000000000L
NNtp562
Rp563
ag67
(L336355200000000000L
NNtp564
Rp565
ag67
(L336441600000000000L
NNtp566
Rp567
ag67
(L336528000000000000L
NNtp568
Rp569
ag67
(L360460800000000000L
NNtp570
Rp571
ag67
(L360547200000000000L
NNtp572
Rp573
ag67
(L360633600000000000L
NNtp574
Rp575
ag67
(L360720000000000000L
NNtp576
Rp577
ag67
(L361238400000000000L
NNtp578
Rp579
ag67
(L361324800000000000L
NNtp580
Rp581
ag67
(L361411200000000000L
NNtp582
Rp583
ag67
(L361497600000000000L
NNtp584
Rp585
ag67
(L361756800000000000L
NNtp586
Rp587
ag67
(L361929600000000000L
NNtp588
Rp589
ag67
(L362534400000000000L
NNtp590
Rp591
ag67
(L363052800000000000L
NNtp592
Rp593
ag67
(L363139200000000000L
NNtp594
Rp595
ag67
(L363225600000000000L
NNtp596
Rp597
ag67
(L364176000000000000L
NNtp598
Rp599
ag67
(L364262400000000000L
NNtp600
Rp601
ag67
(L364694400000000000L
NNtp602
Rp603
ag67
(L365904000000000000L
NNtp604
Rp605
ag67
(L365990400000000000L
NNtp606
Rp607
ag67
(L366163200000000000L
NNtp608
Rp609
ag67
(L366249600000000000L
NNtp610
Rp611
ag67
(L366422400000000000L
NNtp612
Rp613
ag67
(L366595200000000000L
NNtp614
Rp615
ag67
(L366681600000000000L
NNtp616
Rp617
ag67
(L366768000000000000L
NNtp618
Rp619
ag67
(L367286400000000000L
NNtp620
Rp621
ag67
(L367372800000000000L
NNtp622
Rp623
ag67
(L367545600000000000L
NNtp624
Rp625
ag67
(L391824000000000000L
NNtp626
Rp627
ag67
(L392083200000000000L
NNtp628
Rp629
as(g1
g34
tp630
(lp631
g67
(L316137600000000000L
NNtp632
Rp633
ag67
(L318297600000000000L
NNtp634
Rp635
ag67
(L318470400000000000L
NNtp636
Rp637
ag67
(L319161600000000000L
NNtp638
Rp639
ag67
(L319507200000000000L
NNtp640
Rp641
ag67
(L320284800000000000L
NNtp642
Rp643
ag67
(L323222400000000000L
NNtp644
Rp645
ag67
(L324172800000000000L
NNtp646
Rp647
ag67
(L324345600000000000L
NNtp648
Rp649
ag67
(L324604800000000000L
NNtp650
Rp651
ag67
(L324691200000000000L
NNtp652
Rp653
ag67
(L325209600000000000L
NNtp654
Rp655
ag67
(L325296000000000000L
NNtp656
Rp657
ag67
(L325728000000000000L
NNtp658
Rp659
ag67
(L342835200000000000L
NNtp660
Rp661
ag67
(L343267200000000000L
NNtp662
Rp663
ag67
(L343353600000000000L
NNtp664
Rp665
ag67
(L343526400000000000L
NNtp666
Rp667
ag67
(L343958400000000000L
NNtp668
Rp669
ag67
(L344044800000000000L
NNtp670
Rp671
ag67
(L344304000000000000L
NNtp672
Rp673
ag67
(L345513600000000000L
NNtp674
Rp675
ag67
(L345772800000000000L
NNtp676
Rp677
ag67
(L347155200000000000L
NNtp678
Rp679
ag67
(L347673600000000000L
NNtp680
Rp681
ag67
(L347932800000000000L
NNtp682
Rp683
ag67
(L349660800000000000L
NNtp684
Rp685
ag67
(L351475200000000000L
NNtp686
Rp687
ag67
(L354758400000000000L
NNtp688
Rp689
ag67
(L354844800000000000L
NNtp690
Rp691
ag67
(L355104000000000000L
NNtp692
Rp693
ag67
(L355536000000000000L
NNtp694
Rp695
ag67
(L356054400000000000L
NNtp696
Rp697
ag67
(L356140800000000000L
NNtp698
Rp699
ag67
(L356832000000000000L
NNtp700
Rp701
ag67
(L373593600000000000L
NNtp702
Rp703
ag67
(L373766400000000000L
NNtp704
Rp705
ag67
(L374112000000000000L
NNtp706
Rp707
ag67
(L374284800000000000L
NNtp708
Rp709
ag67
(L374544000000000000L
NNtp710
Rp711
ag67
(L374630400000000000L
NNtp712
Rp713
ag67
(L374716800000000000L
NNtp714
Rp715
ag67
(L374803200000000000L
NNtp716
Rp717
ag67
(L375321600000000000L
NNtp718
Rp719
ag67
(L375580800000000000L
NNtp720
Rp721
ag67
(L375667200000000000L
NNtp722
Rp723
ag67
(L376099200000000000L
NNtp724
Rp725
ag67
(L376617600000000000L
NNtp726
Rp727
ag67
(L377136000000000000L
NNtp728
Rp729
ag67
(L377913600000000000L
NNtp730
Rp731
ag67
(L378604800000000000L
NNtp732
Rp733
ag67
(L378691200000000000L
NNtp734
Rp735
ag67
(L378950400000000000L
NNtp736
Rp737
ag67
(L379641600000000000L
NNtp738
Rp739
ag67
(L380073600000000000L
NNtp740
Rp741
ag67
(L380764800000000000L
NNtp742
Rp743
as(dp744
(g1
g2
tp745
g4
(g8
S'\xa0\x1fX\xdc\x12\xde\xf4?'
p746
tp747
Rp748
s(g1
g14
tp749
g4
(g8
S'\xb0\xea\x96=\x9bO\xf8?'
p750
tp751
Rp752
s(g1
g19
tp753
g4
(g8
S'\xc8\xac\xe8\xbaLV\xf6?'
p754
tp755
Rp756
s(g1
g24
tp757
g4
(g8
S'\xae\x9b\x1a4I\x01\xf4?'
p758
tp759
Rp760
s(g1
g29
tp761
g4
(g8
S'\xcd\x145\xd6Z\xa1\xf6?'
p762
tp763
Rp764
s(g1
g34
tp765
g4
(g8
S'\xfa\xe30\xaf\xd9P\xf4?'
p766
tp767
Rp768
s(dp769
(g1
g2
tp770
g4
(g8
S"L\xd7\xc7!'\x04\xf1?"
p771
tp772
Rp773
s(g1
g14
tp774
g4
(g8
S'9\xb0\x0e:\x93]\x04@'
p775
tp776
Rp777
s(g1
g19
tp778
g4
(g8
S'\xf0\x0c\xa5\x93yj\xe5?'
p779
tp780
Rp781
s(g1
g24
tp782
g4
(g8
S'\x1a\xee\t:d\xf8\xf8?'
p783
tp784
Rp785
s(g1
g29
tp786
g4
(g8
S'\xe0\x18\x16\x88\xc5B\x05@'
p787
tp788
Rp789
s(g1
g34
tp790
g4
(g8
S'\xe8\x9f93\xb8\x92\xea?'
p791
tp792
Rp793
s(dp794
(g1
g2
tp795
F0.12002014695934965
s(g1
g14
tp796
F0.09228746273180495
s(g1
g19
tp797
F0.14331806455258925
s(g1
g24
tp798
F0.10768627888125744
s(g1
g29
tp799
F0.0756783971606073
s(g1
g34
tp800
F0.1341369104212663
s(dp801
(g1
g2
tp802
g4
(g8
S'\xb86Ls\x17\xfc!@'
p803
tp804
Rp805
s(g1
g14
tp806
g4
(g8
S'\x99[\x9d\x91\x8a\xb91@'
p807
tp808
Rp809
s(g1
g19
tp810
g4
(g8
S')\xa5\x94RJ)\x1e@'
p811
tp812
Rp813
s(g1
g24
tp814
g4
(g8
S'\xad\xd1\x1a\xad\xd1\x9a1@'
p815
tp816
Rp817
s(g1
g29
tp818
g4
(g8
S'\\[ \xd6\xdb=\x1f@'
p819
tp820
Rp821
s(g1
g34
tp822
g4
(g8
S'\xa0h\xab\xc1s\x84"@'
p823
tp824
Rp825
s(dp826
(g1
g2
tp827
g4
(g8
S'\xbfuFfK\xa8\xe9?'
p828
tp829
Rp830
s(g1
g14
tp831
g4
(g8
S':\xbd\xd2\xb1\x16d\xf0?'
p832
tp833
Rp834
s(g1
g19
tp835
g4
(g8
S'\xe16\xac\x19!7\xec?'
p836
tp837
Rp838
s(g1
g24
tp839
g4
(g8
S'\x97\x17I\x18_\x9d\xf2?'
p840
tp841
Rp842
s(g1
g29
tp843
g4
(g8
S'Z\\X\xca\x10\xce\xda?'
p844
tp845
Rp846
s(g1
g34
tp847
g4
(g8
S'4\x17\xb3\xc7\xe8\x04\xed?'
p848
tp849
Rp850
s(dp851
(g1
g2
tp852
g4
(g8
S'C\x80d\x94]\xf2\xf3?'
p853
tp854
Rp855
s(g1
g14
tp856
g4
(g8
S'!\x9b\xd7\x8bA\xdc\x03@'
p857
tp858
Rp859
s(g1
g19
tp860
g4
(g8
S'[\x19\x0fp3\xb5\xe6?'
p861
tp862
Rp863
s(g1
g24
tp864
g4
(g8
S'l`\xb6\x87@\x11\x01@'
p865
tp866
Rp867
s(g1
g29
tp868
g4
(g8
S'o\x89\xa2\x98j\xed\x07@'
p869
tp870
Rp871
s(g1
g34
tp872
g4
(g8
S'\xaf\xba\x11\x07fI\xef?'
p873
tp874
Rp875
s(dp876
(g1
g2
tp877
g4
(g8
S'\xdd\xca\x95\xdd~\xcc\x96?'
p878
tp879
Rp880
s(g1
g14
tp881
g4
(g8
S'!\x80\xd8\x95\xc8o\x95?'
p882
tp883
Rp884
s(g1
g19
tp885
g4
(g8
S'y\x99\xd7\xb8\x1f\xee\x97?'
p886
tp887
Rp888
s(g1
g24
tp889
g4
(g8
S'\x8d\xd6I?\xb9Y\x85?'
p890
tp891
Rp892
s(g1
g29
tp893
g4
(g8
S'\x12g)\xc9\xf6\xf3\x94?'
p894
tp895
Rp896
s(g1
g34
tp897
g4
(g8
S'\xc8Ij,\x9bm\x90?'
p898
tp899
Rp900
s(dp901
(g1
g2
tp902
F0.4005683991579151
s(g1
g14
tp903
F0.13164497330637603
s(g1
g19
tp904
F0.32114880376364274
s(g1
g24
tp905
F0.1369786917261253
s(g1
g29
tp906
F0.27515118980500947
s(g1
g34
tp907
F0.26124584056642514
s(dp908
(g1
g2
tp909
F0.3572789772629233
s(g1
g14
tp910
F0.14472285321484502
s(g1
g19
tp911
F0.3128975647356349
s(g1
g24
tp912
F0.1312572658184922
s(g1
g29
tp913
F0.23078535874592798
s(g1
g34
tp914
F0.24496046344495276
s(dp915
(dp916
(dp917
(g1
g2
tp918
(lp919
g4
(g8
S'=\xb9\xc8A\t:\xad?'
p920
tp921
Rp922
ag4
(g8
S'\xffE!\x96s\x9a\xc1?'
p923
tp924
Rp925
ag4
(g8
S'\x94\xdbl@\x8b\xdd\xc6?'
p926
tp927
Rp928
ag4
(g8
S'\x90\xda\x0f\x80/I\xd1?'
p929
tp930
Rp931
ag4
(g8
S'\xbc\xe3\xa5\xf2\xe3\x04#A'
p932
tp933
Rp934
ag4
(g8
S'\x9f{mc\x0e\x92\xb7?'
p935
tp936
Rp937
ag4
(g8
S'|\xd8T5\xbd\xf6\xd8?'
p938
tp939
Rp940
ag4
(g8
S'\x970\xcb\xd2\x03\xd8\xb8?'
p941
tp942
Rp943
ag4
(g8
S'8L\nsgL\xc9?'
p944
tp945
Rp946
ag4
(g8
S'svG\xafG\x0f\xe0?'
p947
tp948
Rp949
ag4
(g8
S'\x90p6q,\xe0\xc9?'
p950
tp951
Rp952
ag4
(g8
S'$\xdat@\x082\xe3?'
p953
tp954
Rp955
ag4
(g8
S'\xcb\xf2\xd4\xf2\x01\x87\xcb?'
p956
tp957
Rp958
ag4
(g8
S'E\xef$\xcd\r\x7f\xa5?'
p959
tp960
Rp961
ag4
(g8
S'E/K\x8d\xef\x1d9@'
p962
tp963
Rp964
ag4
(g8
S'\x17Pi\xc5\x12\xf7\x08@'
p965
tp966
Rp967
ag4
(g8
S"\xc8\x11'\xe8\x9d\x8c\x14@"
p968
tp969
Rp970
ag4
(g8
S'\xd0\x91\xf6,\xa7\xcd\xc5?'
p971
tp972
Rp973
ag4
(g8
S'\xb6>j\xea@\xd4\xbe?'
p974
tp975
Rp976
ag4
(g8
S'\x11q\xb4\xa0\xb2\xfd\xdb?'
p977
tp978
Rp979
ag4
(g8
S'\x92*@\xc72)\x90?'
p980
tp981
Rp982
ag4
(g8
S'\x14\xdb>zj^\xda?'
p983
tp984
Rp985
ag4
(g8
S'\xbb\xab\xbd3\xc6\xb3\x89?'
p986
tp987
Rp988
ag4
(g8
S'\xc1\x9c\xf9\xff\xcd\xba\xc3?'
p989
tp990
Rp991
ag4
(g8
S'E\\\xcd|\x06[\xed?'
p992
tp993
Rp994
ag4
(g8
S'\x1c\x07\x89\x04\xd8\xfe\x06@'
p995
tp996
Rp997
ag4
(g8
S'\x14\xa0\xdeP\xdd\xe2\x97?'
p998
tp999
Rp1000
ag4
(g8
S'\x1d\xe3\x18\\\xe0\x13\x83?'
p1001
tp1002
Rp1003
ag4
(g8
S'\x7f\x94\x1fP\xc5g\xc5?'
p1004
tp1005
Rp1006
ag4
(g8
S'vIF\x8b\xdb\x94\xc9?'
p1007
tp1008
Rp1009
ag4
(g8
S'\xde\xc0\xbd\x9a\xe7\x0b\xd0?'
p1010
tp1011
Rp1012
ag4
(g8
S'\xd3\xa0\xd3\x1c\xf4\xb5\x10@'
p1013
tp1014
Rp1015
ag4
(g8
S'\xd9\x08\xff[\x18\xd6\xbb?'
p1016
tp1017
Rp1018
ag4
(g8
S'\xb3\xe6,\x0f\x8e\xc2\xde?'
p1019
tp1020
Rp1021
ag4
(g8
S'aG/3\x01}\xd3?'
p1022
tp1023
Rp1024
ag4
(g8
S'\x89Pn-\x1e\xce\xca?'
p1025
tp1026
Rp1027
ag4
(g8
S'\xd4{\xd2\xc3\xe2\xa6u@'
p1028
tp1029
Rp1030
ag4
(g8
S'\x89.\x16)\xb6Z\xe8?'
p1031
tp1032
Rp1033
ag4
(g8
S'\r-\xcb\xdc5:\xa8?'
p1034
tp1035
Rp1036
ag4
(g8
S'\r\xdf\xd8#\xc8,\xc0?'
p1037
tp1038
Rp1039
as(g1
g14
tp1040
(lp1041
g4
(g8
S'\xeb\x92\x90\x16\xe5\xc8\x9c?'
p1042
tp1043
Rp1044
ag4
(g8
S'\x9ey\x02$*M\xd2?'
p1045
tp1046
Rp1047
ag4
(g8
S'\xd3X\xd6\xdf\xf2\xe2\xe1?'
p1048
tp1049
Rp1050
ag4
(g8
S'\xbe\xe8\x91\t\xf2\x85\x90?'
p1051
tp1052
Rp1053
ag4
(g8
S'\xe2\x84Z\xab\xeb\xdb!@'
p1054
tp1055
Rp1056
ag4
(g8
S'1\xcaf#^\x0f\xb4?'
p1057
tp1058
Rp1059
ag4
(g8
S'\xba\xf4\xcb\xd7\x89\xbd5@'
p1060
tp1061
Rp1062
ag4
(g8
S'&\x08I_{\x9f\xe0?'
p1063
tp1064
Rp1065
ag4
(g8
S'+v\xb9\xa8\xb32\xcb?'
p1066
tp1067
Rp1068
ag4
(g8
S'\x90\x88\x1c\x0c\x96V\xab?'
p1069
tp1070
Rp1071
ag4
(g8
S'>\x16\xdc+\x01X\x12@'
p1072
tp1073
Rp1074
ag4
(g8
S"\xad\xf2'\x11\xd5y`@"
p1075
tp1076
Rp1077
ag4
(g8
S'\x1d\xe6]\xe3\x0ev\xca?'
p1078
tp1079
Rp1080
ag4
(g8
S'\xb8\xd2\xbdx\x89\xcf\xcd?'
p1081
tp1082
Rp1083
ag4
(g8
S'\xb8\xbdy8\x01\xc6\xcc?'
p1084
tp1085
Rp1086
ag4
(g8
S'}\x04\xe3n\xb2\x01\xc6?'
p1087
tp1088
Rp1089
ag4
(g8
S'\x9e\x90\x02@\xa6\xa4\xbf?'
p1090
tp1091
Rp1092
ag4
(g8
S'\xd6\x0f\xc5\xa6\x04+\xc0?'
p1093
tp1094
Rp1095
ag4
(g8
S'\nFT\xca\x8cf\x07@'
p1096
tp1097
Rp1098
ag4
(g8
S'\xb2\x1er\xc9|\x97\xe0@'
p1099
tp1100
Rp1101
ag4
(g8
S'e\x8drn\xfb\xf8\xd2?'
p1102
tp1103
Rp1104
ag4
(g8
S'\xab\xf8\x1d\x80\xd9\xc2\xc7?'
p1105
tp1106
Rp1107
ag4
(g8
S'<\xf52\x81\n\xd7\xcd?'
p1108
tp1109
Rp1110
ag4
(g8
S'\x98\xb5\x16W\xb8\xde\x94?'
p1111
tp1112
Rp1113
ag4
(g8
S'_{\xbb\xbd\xca\x0f\xcb?'
p1114
tp1115
Rp1116
ag4
(g8
S'\x9c\x89`8x\xb8\xc5?'
p1117
tp1118
Rp1119
ag4
(g8
S'\xba,\x02\xac:m\xc8?'
p1120
tp1121
Rp1122
ag4
(g8
S'\xe2_\xb5\xff\xa9\xdb\xd3?'
p1123
tp1124
Rp1125
ag4
(g8
S'\xd1\xae\xcfqm\x8f\xf6?'
p1126
tp1127
Rp1128
ag4
(g8
S'\x1b\x00 0\xf2\x9a\xb4?'
p1129
tp1130
Rp1131
ag4
(g8
S'e2\xbb\xb3\x8c\xd8\x0f@'
p1132
tp1133
Rp1134
ag4
(g8
S'\xc1\x1c\xed\x0bY\xc8\xdb?'
p1135
tp1136
Rp1137
as(g1
g19
tp1138
(lp1139
g4
(g8
S'(\x93\xae\x87,\xfe\xaf?'
p1140
tp1141
Rp1142
ag4
(g8
S'\xca=mjU\x05\xce?'
p1143
tp1144
Rp1145
ag4
(g8
S'\xd2\xce\x02\xe1@\xc2\xfe?'
p1146
tp1147
Rp1148
ag4
(g8
S'\xfa\x81E\xec\xe3\x04\x90?'
p1149
tp1150
Rp1151
ag4
(g8
S'\x8c\xf3\xcd4\x90\xe5\xa3?'
p1152
tp1153
Rp1154
ag4
(g8
S'\x8cnZi\xf8\x90\xc9?'
p1155
tp1156
Rp1157
ag4
(g8
S'\x85E-\xe2\x90\xe1\xc6?'
p1158
tp1159
Rp1160
ag4
(g8
S'\xf0>\xa7Nd\xa9\xa5?'
p1161
tp1162
Rp1163
ag4
(g8
S'\xdc\x89^\x1a^r\xe7?'
p1164
tp1165
Rp1166
ag4
(g8
S'\xf7\x96\x956\xdc\xc0\xc1?'
p1167
tp1168
Rp1169
ag4
(g8
S'\xea6E\xd69W\x18@'
p1170
tp1171
Rp1172
ag4
(g8
S' )d7\xe8\xf4\xbd?'
p1173
tp1174
Rp1175
ag4
(g8
S'\r\xc8\x8b\xfb\x10\xce\xe7?'
p1176
tp1177
Rp1178
ag4
(g8
S'\x9bB\x15\x13]t\xd0?'
p1179
tp1180
Rp1181
ag4
(g8
S'j!F\xce\x07\xd7\xf9?'
p1182
tp1183
Rp1184
ag4
(g8
S'\xc7\xb1(}c\x7f\xb0?'
p1185
tp1186
Rp1187
ag4
(g8
S'\xff\x93\x94\r\xc12\xb2?'
p1188
tp1189
Rp1190
ag4
(g8
S'\xbd.\x02J\xa6\\\xce?'
p1191
tp1192
Rp1193
ag4
(g8
S'\x0e\xf15\x88\xa3\xee\xd3?'
p1194
tp1195
Rp1196
ag4
(g8
S'Q\x0b\xb0\xf8\xc9\xf9}?'
p1197
tp1198
Rp1199
ag4
(g8
S'D\x1f\x80\xaa\x15+\xc8?'
p1200
tp1201
Rp1202
ag4
(g8
S'W\x92\xb9<\xa4\xe5\xca?'
p1203
tp1204
Rp1205
as(g1
g24
tp1206
(lp1207
g4
(g8
S'=\xb9\xc8A\t:\xad?'
p1208
tp1209
Rp1210
ag4
(g8
S'\xc3\x0es\x9a\x05\xc4\xc7?'
p1211
tp1212
Rp1213
ag4
(g8
S'\xeb\x92\x90\x16\xe5\xc8\x9c?'
p1214
tp1215
Rp1216
ag4
(g8
S'm\xb2\xbe-\x1dQ\xd2?'
p1217
tp1218
Rp1219
ag4
(g8
S'"C\x95\xcf\xdc\xe2\xe6?'
p1220
tp1221
Rp1222
ag4
(g8
S'\xd3X\xd6\xdf\xf2\xe2\xe1?'
p1223
tp1224
Rp1225
ag4
(g8
S'\xbe\xe8\x91\t\xf2\x85\x90?'
p1226
tp1227
Rp1228
ag4
(g8
S'(\x93\xae\x87,\xfe\xaf?'
p1229
tp1230
Rp1231
ag4
(g8
S'\xffE!\x96s\x9a\xc1?'
p1232
tp1233
Rp1234
ag4
(g8
S'\x94\xdbl@\x8b\xdd\xc6?'
p1235
tp1236
Rp1237
ag4
(g8
S'\x02t\xdf\xf7\x92\x96\xcb?'
p1238
tp1239
Rp1240
ag4
(g8
S'\xde97<\x8b\xf8\xe7?'
p1241
tp1242
Rp1243
ag4
(g8
S'\xa8\x06y$Bn\xa4?'
p1244
tp1245
Rp1246
ag4
(g8
S'1\xcaf#^\x0f\xb4?'
p1247
tp1248
Rp1249
ag4
(g8
S'\x90\xda\x0f\x80/I\xd1?'
p1250
tp1251
Rp1252
ag4
(g8
S'\xe4\x92\xc4\x18\xe0q\xc6?'
p1253
tp1254
Rp1255
ag4
(g8
S'\xc4\xb6\x8aB\x97;\xbb?'
p1256
tp1257
Rp1258
ag4
(g8
S'aePw\x05\xc6\xd0?'
p1259
tp1260
Rp1261
ag4
(g8
S'T\x17\xdf\xfc\x83J\xac?'
p1262
tp1263
Rp1264
ag4
(g8
S'|\xd8T5\xbd\xf6\xd8?'
p1265
tp1266
Rp1267
ag4
(g8
S'\xd0\xae-+-\xc4\x99?'
p1268
tp1269
Rp1270
ag4
(g8
S'\x13:\x87\xa8\x0b\xbf\xb1?'
p1271
tp1272
Rp1273
ag4
(g8
S'\x16\xcc\x0bV\xa7\xba\xc9?'
p1274
tp1275
Rp1276
ag4
(g8
S'\x970\xcb\xd2\x03\xd8\xb8?'
p1277
tp1278
Rp1279
ag4
(g8
S'\x80\x83\xc6}\xe2\x96\xc2?'
p1280
tp1281
Rp1282
ag4
(g8
S'8L\nsgL\xc9?'
p1283
tp1284
Rp1285
ag4
(g8
S'\xc7\x81H5\xd6\xf2\xca?'
p1286
tp1287
Rp1288
ag4
(g8
S'9\x1e\xb4\x1d\xac\xd2\xc1?'
p1289
tp1290
Rp1291
ag4
(g8
S'+v\xb9\xa8\xb32\xcb?'
p1292
tp1293
Rp1294
ag4
(g8
S'\x8c\xf3\xcd4\x90\xe5\xa3?'
p1295
tp1296
Rp1297
ag4
(g8
S'\x82\xc0\xc1\xbcs\xa3\x9e?'
p1298
tp1299
Rp1300
ag4
(g8
S'$\xdat@\x082\xe3?'
p1301
tp1302
Rp1303
ag4
(g8
S'jh\x8b\x95\xaf\x7f\xc5?'
p1304
tp1305
Rp1306
ag4
(g8
S'\xdc\r.\xdb\xe1\xee\xba?'
p1307
tp1308
Rp1309
ag4
(g8
S'\x02\x95\x7fa\x075\x9a?'
p1310
tp1311
Rp1312
ag4
(g8
S'\x90\x88\x1c\x0c\x96V\xab?'
p1313
tp1314
Rp1315
ag4
(g8
S'"\xf1C\x13\xb9\x9a\xc3?'
p1316
tp1317
Rp1318
ag4
(g8
S'\x85E-\xe2\x90\xe1\xc6?'
p1319
tp1320
Rp1321
ag4
(g8
S'>\x16\xdc+\x01X\x12@'
p1322
tp1323
Rp1324
ag4
(g8
S'\xf0>\xa7Nd\xa9\xa5?'
p1325
tp1326
Rp1327
ag4
(g8
S'\x8746*\\6\x94?'
p1328
tp1329
Rp1330
ag4
(g8
S"\xad\xf2'\x11\xd5y`@"
p1331
tp1332
Rp1333
ag4
(g8
S'\x1d\xe6]\xe3\x0ev\xca?'
p1334
tp1335
Rp1336
ag4
(g8
S'\xdc\x89^\x1a^r\xe7?'
p1337
tp1338
Rp1339
ag4
(g8
S'E\xef$\xcd\r\x7f\xa5?'
p1340
tp1341
Rp1342
ag4
(g8
S'\x17Pi\xc5\x12\xf7\x08@'
p1343
tp1344
Rp1345
ag4
(g8
S'W\x0c$\xa6\x9d\xbb\xd5?'
p1346
tp1347
Rp1348
ag4
(g8
S'\xbd\x16+1\x9d0\xdf?'
p1349
tp1350
Rp1351
ag4
(g8
S'O\xcd\xbcV\xbb\xcc\xc1?'
p1352
tp1353
Rp1354
ag4
(g8
S'\x16ZK\x94\xee\xba\xb8?'
p1355
tp1356
Rp1357
ag4
(g8
S'\xb8\xd2\xbdx\x89\xcf\xcd?'
p1358
tp1359
Rp1360
ag4
(g8
S'\x18\xcbm\xf0\xc8t\xc4?'
p1361
tp1362
Rp1363
ag4
(g8
S'\xd0\x91\xf6,\xa7\xcd\xc5?'
p1364
tp1365
Rp1366
ag4
(g8
S'7\x11Kn\xad~\xb1?'
p1367
tp1368
Rp1369
ag4
(g8
S'\x10\xf2%-\xda\x95\xbf?'
p1370
tp1371
Rp1372
ag4
(g8
S'\xb6>j\xea@\xd4\xbe?'
p1373
tp1374
Rp1375
ag4
(g8
S'\xbf\xa6l\xb6\x1b\x13\x8f?'
p1376
tp1377
Rp1378
ag4
(g8
S'\xb8\xbdy8\x01\xc6\xcc?'
p1379
tp1380
Rp1381
ag4
(g8
S'}\x04\xe3n\xb2\x01\xc6?'
p1382
tp1383
Rp1384
ag4
(g8
S'9l\xf23\xebi\xcf?'
p1385
tp1386
Rp1387
ag4
(g8
S'\x9e\x90\x02@\xa6\xa4\xbf?'
p1388
tp1389
Rp1390
ag4
(g8
S'#\x81\xd3\xffH\xc4\xc4?'
p1391
tp1392
Rp1393
ag4
(g8
S'\xe8\x9a/\xd9\xa0\xa6\xc1?'
p1394
tp1395
Rp1396
ag4
(g8
S'\xd6\x0f\xc5\xa6\x04+\xc0?'
p1397
tp1398
Rp1399
ag4
(g8
S' )d7\xe8\xf4\xbd?'
p1400
tp1401
Rp1402
ag4
(g8
S'\xc1\x9c\xf9\xff\xcd\xba\xc3?'
p1403
tp1404
Rp1405
ag4
(g8
S'\x05^\xbc\x99\x8c5\xbb?'
p1406
tp1407
Rp1408
ag4
(g8
S'\nFT\xca\x8cf\x07@'
p1409
tp1410
Rp1411
ag4
(g8
S'\r\xc8\x8b\xfb\x10\xce\xe7?'
p1412
tp1413
Rp1414
ag4
(g8
S'\x9bB\x15\x13]t\xd0?'
p1415
tp1416
Rp1417
ag4
(g8
S'\xf3\x1d\xce|\xe9_\xd2?'
p1418
tp1419
Rp1420
ag4
(g8
S'e\x8drn\xfb\xf8\xd2?'
p1421
tp1422
Rp1423
ag4
(g8
S'\x14\xa0\xdeP\xdd\xe2\x97?'
p1424
tp1425
Rp1426
ag4
(g8
S'\xab\xf8\x1d\x80\xd9\xc2\xc7?'
p1427
tp1428
Rp1429
ag4
(g8
S'\xc7\xb1(}c\x7f\xb0?'
p1430
tp1431
Rp1432
ag4
(g8
S'\xff\x93\x94\r\xc12\xb2?'
p1433
tp1434
Rp1435
ag4
(g8
S'vIF\x8b\xdb\x94\xc9?'
p1436
tp1437
Rp1438
ag4
(g8
S'a\xe2y\xf4F\xed\xd0?'
p1439
tp1440
Rp1441
ag4
(g8
S'<\xf52\x81\n\xd7\xcd?'
p1442
tp1443
Rp1444
ag4
(g8
S'\xbd.\x02J\xa6\\\xce?'
p1445
tp1446
Rp1447
ag4
(g8
S'\x98\xb5\x16W\xb8\xde\x94?'
p1448
tp1449
Rp1450
ag4
(g8
S'_{\xbb\xbd\xca\x0f\xcb?'
p1451
tp1452
Rp1453
ag4
(g8
S'\x0e\xf15\x88\xa3\xee\xd3?'
p1454
tp1455
Rp1456
ag4
(g8
S'Q\x0b\xb0\xf8\xc9\xf9}?'
p1457
tp1458
Rp1459
ag4
(g8
S'\xd3\xa0\xd3\x1c\xf4\xb5\x10@'
p1460
tp1461
Rp1462
ag4
(g8
S'\xd9\x08\xff[\x18\xd6\xbb?'
p1463
tp1464
Rp1465
ag4
(g8
S'#\x1cx\xcd\xba\xb1\x8f?'
p1466
tp1467
Rp1468
ag4
(g8
S'\x9c\x89`8x\xb8\xc5?'
p1469
tp1470
Rp1471
ag4
(g8
S'D\x1f\x80\xaa\x15+\xc8?'
p1472
tp1473
Rp1474
ag4
(g8
S'w\x91\t\x8aka\xc4?'
p1475
tp1476
Rp1477
ag4
(g8
S'\x9e\n\x1b\x82\x1c\xe8\xd6?'
p1478
tp1479
Rp1480
ag4
(g8
S'\xba,\x02\xac:m\xc8?'
p1481
tp1482
Rp1483
ag4
(g8
S'\xb3\xe6,\x0f\x8e\xc2\xde?'
p1484
tp1485
Rp1486
ag4
(g8
S'\xd1\xae\xcfqm\x8f\xf6?'
p1487
tp1488
Rp1489
ag4
(g8
S'aG/3\x01}\xd3?'
p1490
tp1491
Rp1492
ag4
(g8
S'J>\xcd8\x14\xe4\xc8?'
p1493
tp1494
Rp1495
ag4
(g8
S'\xe5\xc0^\xde\x06\x07\xa4?'
p1496
tp1497
Rp1498
ag4
(g8
S'\x1b\x00 0\xf2\x9a\xb4?'
p1499
tp1500
Rp1501
ag4
(g8
S'\x89.\x16)\xb6Z\xe8?'
p1502
tp1503
Rp1504
ag4
(g8
S'\x19{\x0b\x0c\xc0\x86\xcb?'
p1505
tp1506
Rp1507
ag4
(g8
S'\x8cAZ\xae%\xcc\xae?'
p1508
tp1509
Rp1510
ag4
(g8
S'e2\xbb\xb3\x8c\xd8\x0f@'
p1511
tp1512
Rp1513
ag4
(g8
S'W\x92\xb9<\xa4\xe5\xca?'
p1514
tp1515
Rp1516
ag4
(g8
S'\r\xdf\xd8#\xc8,\xc0?'
p1517
tp1518
Rp1519
as(g1
g29
tp1520
(lp1521
g4
(g8
S'g\xfb\x16\x9a\xabp6@'
p1522
tp1523
Rp1524
ag4
(g8
S'\xc3\x0es\x9a\x05\xc4\xc7?'
p1525
tp1526
Rp1527
ag4
(g8
S'm\xb2\xbe-\x1dQ\xd2?'
p1528
tp1529
Rp1530
ag4
(g8
S'"C\x95\xcf\xdc\xe2\xe6?'
p1531
tp1532
Rp1533
ag4
(g8
S'\xaf\xf8\xce\xe6\x92\xe8\xf4?'
p1534
tp1535
Rp1536
ag4
(g8
S'\x02t\xdf\xf7\x92\x96\xcb?'
p1537
tp1538
Rp1539
ag4
(g8
S'\x19\x04\xb2\xda\x8c\xe1\xf2?'
p1540
tp1541
Rp1542
ag4
(g8
S'\xa8\x06y$Bn\xa4?'
p1543
tp1544
Rp1545
ag4
(g8
S'\x1b\xbd\xda\xd4+0\xa4?'
p1546
tp1547
Rp1548
ag4
(g8
S'\xe4\x92\xc4\x18\xe0q\xc6?'
p1549
tp1550
Rp1551
ag4
(g8
S'\xf87W\x81\xe7k\xcb?'
p1552
tp1553
Rp1554
ag4
(g8
S'\xa5\xeb\xed\nxF\x1d@'
p1555
tp1556
Rp1557
ag4
(g8
S'aePw\x05\xc6\xd0?'
p1558
tp1559
Rp1560
ag4
(g8
S'T\x17\xdf\xfc\x83J\xac?'
p1561
tp1562
Rp1563
ag4
(g8
S'\xd0\xae-+-\xc4\x99?'
p1564
tp1565
Rp1566
ag4
(g8
S'\x13:\x87\xa8\x0b\xbf\xb1?'
p1567
tp1568
Rp1569
ag4
(g8
S'\xc7\x81H5\xd6\xf2\xca?'
p1570
tp1571
Rp1572
ag4
(g8
S'FW\xea\xf6N\xbe\xd5?'
p1573
tp1574
Rp1575
ag4
(g8
S'\xdc\r.\xdb\xe1\xee\xba?'
p1576
tp1577
Rp1578
ag4
(g8
S'\x02\x95\x7fa\x075\x9a?'
p1579
tp1580
Rp1581
ag4
(g8
S'\xf4\xe4!\x88Q\x96\xf6?'
p1582
tp1583
Rp1584
ag4
(g8
S'\x8746*\\6\x94?'
p1585
tp1586
Rp1587
ag4
(g8
S'\xa5\xbe(\xd8\xb5m\xf8?'
p1588
tp1589
Rp1590
ag4
(g8
S'W\x0c$\xa6\x9d\xbb\xd5?'
p1591
tp1592
Rp1593
ag4
(g8
S'\xbd\x16+1\x9d0\xdf?'
p1594
tp1595
Rp1596
ag4
(g8
S'O\xcd\xbcV\xbb\xcc\xc1?'
p1597
tp1598
Rp1599
ag4
(g8
S'\x16ZK\x94\xee\xba\xb8?'
p1600
tp1601
Rp1602
ag4
(g8
S'F\xff\x855\x8a!\xac?'
p1603
tp1604
Rp1605
ag4
(g8
S')\xcd)\x98g\xb2L@'
p1606
tp1607
Rp1608
ag4
(g8
S'7\x11Kn\xad~\xb1?'
p1609
tp1610
Rp1611
ag4
(g8
S'\x10\xf2%-\xda\x95\xbf?'
p1612
tp1613
Rp1614
ag4
(g8
S'\xbf\xa6l\xb6\x1b\x13\x8f?'
p1615
tp1616
Rp1617
ag4
(g8
S'9l\xf23\xebi\xcf?'
p1618
tp1619
Rp1620
ag4
(g8
S'#\x81\xd3\xffH\xc4\xc4?'
p1621
tp1622
Rp1623
ag4
(g8
S'\xac\x80\x93\x7f!\x8f\xc5?'
p1624
tp1625
Rp1626
ag4
(g8
S'\xe8\x9a/\xd9\xa0\xa6\xc1?'
p1627
tp1628
Rp1629
ag4
(g8
S'\x05^\xbc\x99\x8c5\xbb?'
p1630
tp1631
Rp1632
ag4
(g8
S'\xba\xa2V\xfbV\x90*@'
p1633
tp1634
Rp1635
ag4
(g8
S'\xf3\x1d\xce|\xe9_\xd2?'
p1636
tp1637
Rp1638
ag4
(g8
S't\x17\x144\xf3\xb1\x1d@'
p1639
tp1640
Rp1641
ag4
(g8
S'\x9a\xdb\xd2\x1e\xd9\x97\xaf?'
p1642
tp1643
Rp1644
ag4
(g8
S'<\x81\xcf\x1dX\x98\xad?'
p1645
tp1646
Rp1647
ag4
(g8
S'\xec>~T\xee\xe3\xc4?'
p1648
tp1649
Rp1650
ag4
(g8
S'$j\r\xf5\xda\xd0\xeb?'
p1651
tp1652
Rp1653
ag4
(g8
S'\xed\x86C\xef\x81}\xd6?'
p1654
tp1655
Rp1656
ag4
(g8
S'\x9e\n\x1b\x82\x1c\xe8\xd6?'
p1657
tp1658
Rp1659
ag4
(g8
S'J>\xcd8\x14\xe4\xc8?'
p1660
tp1661
Rp1662
ag4
(g8
S'\x8a^\xc3ZN\xad\n@'
p1663
tp1664
Rp1665
ag4
(g8
S'\xe5\xc0^\xde\x06\x07\xa4?'
p1666
tp1667
Rp1668
ag4
(g8
S'\x8cAZ\xae%\xcc\xae?'
p1669
tp1670
Rp1671
ag4
(g8
S'\xd9\xcd \x91\xfb\xce\xb9?'
p1672
tp1673
Rp1674
as(g1
g34
tp1675
(lp1676
g4
(g8
S'=\xb9\xc8A\t:\xad?'
p1677
tp1678
Rp1679
ag4
(g8
S'(\x93\xae\x87,\xfe\xaf?'
p1680
tp1681
Rp1682
ag4
(g8
S'\xffE!\x96s\x9a\xc1?'
p1683
tp1684
Rp1685
ag4
(g8
S'\x05W,M\xb8_\xe0?'
p1686
tp1687
Rp1688
ag4
(g8
S'\xba\xf4\xcb\xd7\x89\xbd5@'
p1689
tp1690
Rp1691
ag4
(g8
S'\xca=mjU\x05\xce?'
p1692
tp1693
Rp1694
ag4
(g8
S'\xee\x00\xda\x1b+S\x84?'
p1695
tp1696
Rp1697
ag4
(g8
S'H\x99\xc1\x13-\x14\x1d@'
p1698
tp1699
Rp1700
ag4
(g8
S'\x16\xcc\x0bV\xa7\xba\xc9?'
p1701
tp1702
Rp1703
ag4
(g8
S'\xd2\xce\x02\xe1@\xc2\xfe?'
p1704
tp1705
Rp1706
ag4
(g8
S'8L\nsgL\xc9?'
p1707
tp1708
Rp1709
ag4
(g8
S'\xfa\x81E\xec\xe3\x04\x90?'
p1710
tp1711
Rp1712
ag4
(g8
S'\x8c\xf3\xcd4\x90\xe5\xa3?'
p1713
tp1714
Rp1715
ag4
(g8
S'\x82\xc0\xc1\xbcs\xa3\x9e?'
p1716
tp1717
Rp1718
ag4
(g8
S'\x1b-\x82\xd5\xfa\xb7\xb5?'
p1719
tp1720
Rp1721
ag4
(g8
S'"\xf1C\x13\xb9\x9a\xc3?'
p1722
tp1723
Rp1724
ag4
(g8
S'\x85E-\xe2\x90\xe1\xc6?'
p1725
tp1726
Rp1727
ag4
(g8
S'\xf0>\xa7Nd\xa9\xa5?'
p1728
tp1729
Rp1730
ag4
(g8
S'\xcb\xf2\xd4\xf2\x01\x87\xcb?'
p1731
tp1732
Rp1733
ag4
(g8
S'\xdc\x89^\x1a^r\xe7?'
p1734
tp1735
Rp1736
ag4
(g8
S'E\xef$\xcd\r\x7f\xa5?'
p1737
tp1738
Rp1739
ag4
(g8
S'E/K\x8d\xef\x1d9@'
p1740
tp1741
Rp1742
ag4
(g8
S'\x18\xcbm\xf0\xc8t\xc4?'
p1743
tp1744
Rp1745
ag4
(g8
S'W\xee\xb5\x91$y\xbf?'
p1746
tp1747
Rp1748
ag4
(g8
S'\xd6\x0f\xc5\xa6\x04+\xc0?'
p1749
tp1750
Rp1751
ag4
(g8
S' )d7\xe8\xf4\xbd?'
p1752
tp1753
Rp1754
ag4
(g8
S'\xbb\xab\xbd3\xc6\xb3\x89?'
p1755
tp1756
Rp1757
ag4
(g8
S'\r\xc8\x8b\xfb\x10\xce\xe7?'
p1758
tp1759
Rp1760
ag4
(g8
S'\x9bB\x15\x13]t\xd0?'
p1761
tp1762
Rp1763
ag4
(g8
S'SA\xb4\xf956\xe5?'
p1764
tp1765
Rp1766
ag4
(g8
S'\x1c\x07\x89\x04\xd8\xfe\x06@'
p1767
tp1768
Rp1769
ag4
(g8
S'\xd5\xc6\x17\x99\x9cR\xc4?'
p1770
tp1771
Rp1772
ag4
(g8
S'\xc7\xb1(}c\x7f\xb0?'
p1773
tp1774
Rp1775
ag4
(g8
S'\xff\x93\x94\r\xc12\xb2?'
p1776
tp1777
Rp1778
ag4
(g8
S'\x7f\x94\x1fP\xc5g\xc5?'
p1779
tp1780
Rp1781
ag4
(g8
S'\xbcg\xd0\xce\xd6G\xc4?'
p1782
tp1783
Rp1784
ag4
(g8
S'\xc48U\xfb\xff\x91\xdd?'
p1785
tp1786
Rp1787
ag4
(g8
S'\xbd.\x02J\xa6\\\xce?'
p1788
tp1789
Rp1790
ag4
(g8
S'_{\xbb\xbd\xca\x0f\xcb?'
p1791
tp1792
Rp1793
ag4
(g8
S'\x0e\xf15\x88\xa3\xee\xd3?'
p1794
tp1795
Rp1796
ag4
(g8
S'Q\x0b\xb0\xf8\xc9\xf9}?'
p1797
tp1798
Rp1799
ag4
(g8
S'\x9c\x89`8x\xb8\xc5?'
p1800
tp1801
Rp1802
ag4
(g8
S'D\x1f\x80\xaa\x15+\xc8?'
p1803
tp1804
Rp1805
ag4
(g8
S'\xb3\xe6,\x0f\x8e\xc2\xde?'
p1806
tp1807
Rp1808
ag4
(g8
S'aG/3\x01}\xd3?'
p1809
tp1810
Rp1811
ag4
(g8
S'\xd4{\xd2\xc3\xe2\xa6u@'
p1812
tp1813
Rp1814
ag4
(g8
S'e2\xbb\xb3\x8c\xd8\x0f@'
p1815
tp1816
Rp1817
ag4
(g8
S'W\x92\xb9<\xa4\xe5\xca?'
p1818
tp1819
Rp1820
as(dp1821
(g1
g2
tp1822
(lp1823
g4
(g8
S'\xcd\xec\xd8\x82\xdf\xba\xdd?'
p1824
tp1825
Rp1826
ag4
(g8
S'\x18\xd2\xcc,u\xa3\xf3?'
p1827
tp1828
Rp1829
ag4
(g8
S' \x9c\xc7\xab\xf0\xfa\xef?'
p1830
tp1831
Rp1832
ag4
(g8
S'H\xa7\xd6\x04\xf9\x9e\xf1?'
p1833
tp1834
Rp1835
ag4
(g8
S'\xe9\xf0\xc7(\xd3\r\x19@'
p1836
tp1837
Rp1838
ag4
(g8
S'.\x9f\xdc\x8d}\xe9\xe3?'
p1839
tp1840
Rp1841
ag4
(g8
S'\xe6\xf9\xd5-\x8f\xaf\xf9?'
p1842
tp1843
Rp1844
ag4
(g8
S'\x0e\xbf\x1d*\xc5\x0b\xe7?'
p1845
tp1846
Rp1847
ag4
(g8
S'\xda\xfa<y}8\xed?'
p1848
tp1849
Rp1850
ag4
(g8
S'\xe1x\xca2\xcb\xc7\xf4?'
p1851
tp1852
Rp1853
ag4
(g8
S'g\xc8H\xfb\x0c\x9d\xf3?'
p1854
tp1855
Rp1856
ag4
(g8
S'\x95w%O\xe8(\xf5?'
p1857
tp1858
Rp1859
ag4
(g8
S'\xe7\xfa+,\xb0\xfd\xf5?'
p1860
tp1861
Rp1862
ag4
(g8
S'y\x10\x18zF\x11\xa2?'
p1863
tp1864
Rp1865
ag4
(g8
S'\xe7\xbc\xf7\xfeY\xc2\x06@'
p1866
tp1867
Rp1868
ag4
(g8
S'@;?(\x83\x1d\xfd?'
p1869
tp1870
Rp1871
ag4
(g8
S'\x81B\xb7D\x08\xb6\x0c@'
p1872
tp1873
Rp1874
ag4
(g8
S'%\x05,LQ\x03\xf7?'
p1875
tp1876
Rp1877
ag4
(g8
S'\xdb\xfe\xfc\xfbW\xf8\xec?'
p1878
tp1879
Rp1880
ag4
(g8
S'\x82\\"tk\xe7\xfd?'
p1881
tp1882
Rp1883
ag4
(g8
S'\x02B\xaezE\xa9\xde?'
p1884
tp1885
Rp1886
ag4
(g8
S'\x19\x0b0t\x1eL\xf8?'
p1887
tp1888
Rp1889
ag4
(g8
S'\xf0\xa7n\x04\xd6\x07\xdb?'
p1890
tp1891
Rp1892
ag4
(g8
S'\xb2\x88e\x97\xc5\x17\xe5?'
p1893
tp1894
Rp1895
ag4
(g8
S'\x18\xa1\xed\xf9r\xb7\xfd?'
p1896
tp1897
Rp1898
ag4
(g8
S'\x07\x8c\x16\xfd\xa6\xa8\xfd?'
p1899
tp1900
Rp1901
ag4
(g8
S'\x8f\xae\xd0\x8c\x85\xd8\xc9?'
p1902
tp1903
Rp1904
ag4
(g8
S'|#\x87(\xcfb\xa9?'
p1905
tp1906
Rp1907
ag4
(g8
S'\x9e\xc9\xd5\xb6({\xf5?'
p1908
tp1909
Rp1910
ag4
(g8
S'\xd9\xc4l\xf2_)\xf0?'
p1911
tp1912
Rp1913
ag4
(g8
S'\xc1z\xe6\xd3\xd4\xda\xf1?'
p1914
tp1915
Rp1916
ag4
(g8
S'2\x06\xae\xb9\xa5\x1c\x03@'
p1917
tp1918
Rp1919
ag4
(g8
S'\xbc7\xb6\x9f\xe9\xa2\xe6?'
p1920
tp1921
Rp1922
ag4
(g8
S'\xb1\xfdR\xa1\xac\x83\xfc?'
p1923
tp1924
Rp1925
ag4
(g8
S'\xdb1\n`\xd7.\xf6?'
p1926
tp1927
Rp1928
ag4
(g8
S'\xbd\x8b\xf4\x7fU\x1f\xf2?'
p1929
tp1930
Rp1931
ag4
(g8
S'\x000C\x9b\xc2J\x0f@'
p1932
tp1933
Rp1934
ag4
(g8
S'=e\x1eqz\x07\xf7?'
p1935
tp1936
Rp1937
ag4
(g8
S'\xa9\xef\xfdb\xc9j\xd9?'
p1938
tp1939
Rp1940
ag4
(g8
S'\xfb\xe3\x9f\xa5\x83\xcf\xe0?'
p1941
tp1942
Rp1943
as(g1
g14
tp1944
(lp1945
g4
(g8
S'\xf0b\x952\x8f)\xe9?'
p1946
tp1947
Rp1948
ag4
(g8
S'\xa2\xa6\xf9\xf8"\x17\xf2?'
p1949
tp1950
Rp1951
ag4
(g8
S'x\xf80c\x04\xc9\xf4?'
p1952
tp1953
Rp1954
ag4
(g8
S'\x84w\xeak\xa0\xfd\xd0?'
p1955
tp1956
Rp1957
ag4
(g8
S'\xebq9%\xdd\xda\x01@'
p1958
tp1959
Rp1960
ag4
(g8
S'0\xf1\x8b\xe9\x7f`\xe4?'
p1961
tp1962
Rp1963
ag4
(g8
S'\x05\x94\xd11\xab\xff\x02@'
p1964
tp1965
Rp1966
ag4
(g8
S'Oy\xbf\xbf\x07\xd7\xf5?'
p1967
tp1968
Rp1969
ag4
(g8
S'o\x9d\xa9\xc8\xf0Z\xed?'
p1970
tp1971
Rp1972
ag4
(g8
S'\x05\x90\xa5\x1ce\xc1\xe2?'
p1973
tp1974
Rp1975
ag4
(g8
S'\xc8x\x98\xeb\x9d\xc1\xfc?'
p1976
tp1977
Rp1978
ag4
(g8
S'\xae:\xe4\x1c\xca\x88\x0f@'
p1979
tp1980
Rp1981
ag4
(g8
S'\x89G\xed\xa3\xa2\x06\xf0?'
p1982
tp1983
Rp1984
ag4
(g8
S'\xa1\x9e\xe4\xd1(`\xf7?'
p1985
tp1986
Rp1987
ag4
(g8
S'9{\xbeuV\xb5\xec?'
p1988
tp1989
Rp1990
ag4
(g8
S'\xdd\n8\xdch\x17\xe5?'
p1991
tp1992
Rp1993
ag4
(g8
S'\xb0\xc3\xe8D\xae\\\xed?'
p1994
tp1995
Rp1996
ag4
(g8
S'T\xbe,G\x8f\xb9\xeb?'
p1997
tp1998
Rp1999
ag4
(g8
S'qp\xc5\xb0Z\xf0\xff?'
p2000
tp2001
Rp2002
ag4
(g8
S'\xe1\xb4\xc5\xa8\xf5F\n@'
p2003
tp2004
Rp2005
ag4
(g8
S'\x01W\xb4dx^\xf2?'
p2006
tp2007
Rp2008
ag4
(g8
S"\xb7\xcc'\x84\xf9\x8d\xe5?"
p2009
tp2010
Rp2011
ag4
(g8
S'\xce\xa7\x07>O\x9c\xf0?'
p2012
tp2013
Rp2014
ag4
(g8
S'\xcc?\xd0\x98I:\xc8?'
p2015
tp2016
Rp2017
ag4
(g8
S'\x91\xcb\x8e\xc0!\xf2\xf0?'
p2018
tp2019
Rp2020
ag4
(g8
S'\xf7\x02\xabo\xb7%\xef?'
p2021
tp2022
Rp2023
ag4
(g8
S'N\x12I<\xc02\xe7?'
p2024
tp2025
Rp2026
ag4
(g8
S'\xf6\x9a<\xf5\xac\x15\xf4?'
p2027
tp2028
Rp2029
ag4
(g8
S'O\x11m)!\x96\xfc?'
p2030
tp2031
Rp2032
ag4
(g8
S'p7\xafv\xab\x1c\xe5?'
p2033
tp2034
Rp2035
ag4
(g8
S'\x80\x14\x1e&\xe4\xb6\x00@'
p2036
tp2037
Rp2038
ag4
(g8
S'N\xd1\x854\xef/\xf3?'
p2039
tp2040
Rp2041
as(g1
g19
tp2042
(lp2043
g4
(g8
S'Cz\xe1\xdd\x96\xa7\xed?'
p2044
tp2045
Rp2046
ag4
(g8
S'\xf4Jf\xc1\x06x\xf6?'
p2047
tp2048
Rp2049
ag4
(g8
S'X\x99\xa3\xeeF#\x03@'
p2050
tp2051
Rp2052
ag4
(g8
S'\xbdiw\xbb13\xe4?'
p2053
tp2054
Rp2055
ag4
(g8
S'uk\xbb\xe3\x0ct\xc1?'
p2056
tp2057
Rp2058
ag4
(g8
S'\xf6\xc1\xa3_\xd6`\xef?'
p2059
tp2060
Rp2061
ag4
(g8
S'\x94\x95j\xae\xc8\xcc\xf2?'
p2062
tp2063
Rp2064
ag4
(g8
S'\x8e\xbd\x17\x8fa\xc1\xe1?'
p2065
tp2066
Rp2067
ag4
(g8
S'\x1c\x81\x1d\xf5\xed\x16\x00@'
p2068
tp2069
Rp2070
ag4
(g8
S'/\xb7\xcd9\x06v\xc4?'
p2071
tp2072
Rp2073
ag4
(g8
S'\x90{\x10\x9a\x1bx\x08@'
p2074
tp2075
Rp2076
ag4
(g8
S'\x06\xdf\xe9\x83\xd3\x87\xec?'
p2077
tp2078
Rp2079
ag4
(g8
S'3\t\xe2\xd3\xdcT\xfe?'
p2080
tp2081
Rp2082
ag4
(g8
S'\xb2W\xac _\xb6\xf6?'
p2083
tp2084
Rp2085
ag4
(g8
S'\xbf\xd5\xbbv\x98\xbc\x04@'
p2086
tp2087
Rp2088
ag4
(g8
S'!\x00R\x00\x02\xf4\xe6?'
p2089
tp2090
Rp2091
ag4
(g8
S'\xcc\x99k\x1d \xad\xe6?'
p2092
tp2093
Rp2094
ag4
(g8
S'Z\xe2\x033pe\xf4?'
p2095
tp2096
Rp2097
ag4
(g8
S'\x94\x92{\xa3\xda\x81\xf9?'
p2098
tp2099
Rp2100
ag4
(g8
S'&\x7f\xbd8\xde\xd1\xc2?'
p2101
tp2102
Rp2103
ag4
(g8
S'52u\xfd*\xe4\xfa?'
p2104
tp2105
Rp2106
ag4
(g8
S'5\\\xc0\x17K\xb0\xfd?'
p2107
tp2108
Rp2109
as(g1
g24
tp2110
(lp2111
g4
(g8
S'\xcd\xec\xd8\x82\xdf\xba\xdd?'
p2112
tp2113
Rp2114
ag4
(g8
S'-\x1c\xd3\x87l?\xea?'
p2115
tp2116
Rp2117
ag4
(g8
S'\xf0b\x952\x8f)\xe9?'
p2118
tp2119
Rp2120
ag4
(g8
S'<1\xd3S\xc6\xe8\xf0?'
p2121
tp2122
Rp2123
ag4
(g8
S'I\xb8s\xb5O\x8f\xf4?'
p2124
tp2125
Rp2126
ag4
(g8
S'x\xf80c\x04\xc9\xf4?'
p2127
tp2128
Rp2129
ag4
(g8
S'\x84w\xeak\xa0\xfd\xd0?'
p2130
tp2131
Rp2132
ag4
(g8
S'Cz\xe1\xdd\x96\xa7\xed?'
p2133
tp2134
Rp2135
ag4
(g8
S'\x18\xd2\xcc,u\xa3\xf3?'
p2136
tp2137
Rp2138
ag4
(g8
S' \x9c\xc7\xab\xf0\xfa\xef?'
p2139
tp2140
Rp2141
ag4
(g8
S'\x18Tx\x18w\x08\xec?'
p2142
tp2143
Rp2144
ag4
(g8
S'\xa3\xe4\xb7\xca\xa4\x03\xf7?'
p2145
tp2146
Rp2147
ag4
(g8
S'\xa8\x9f03!\xd5\xcb?'
p2148
tp2149
Rp2150
ag4
(g8
S'0\xf1\x8b\xe9\x7f`\xe4?'
p2151
tp2152
Rp2153
ag4
(g8
S'H\xa7\xd6\x04\xf9\x9e\xf1?'
p2154
tp2155
Rp2156
ag4
(g8
S'\r\xb5\x13]\x85\x07\xe6?'
p2157
tp2158
Rp2159
ag4
(g8
S'/\xbf\x14x\xa5\x97\xe5?'
p2160
tp2161
Rp2162
ag4
(g8
S'M\xbd\x06\xd2\xa4n\xf0?'
p2163
tp2164
Rp2165
ag4
(g8
S'\xed\xeaLr\xfb\xb9\xe2?'
p2166
tp2167
Rp2168
ag4
(g8
S'\xe6\xf9\xd5-\x8f\xaf\xf9?'
p2169
tp2170
Rp2171
ag4
(g8
S'\xf7\n\x1e\xb6^$\xd1?'
p2172
tp2173
Rp2174
ag4
(g8
S'}\xf1J,\x06\x8f\xd3?'
p2175
tp2176
Rp2177
ag4
(g8
S'\xad\xc9\xd1W\xa5\xac\xf4?'
p2178
tp2179
Rp2180
ag4
(g8
S'\x0e\xbf\x1d*\xc5\x0b\xe7?'
p2181
tp2182
Rp2183
ag4
(g8
S'&\xf8xi\xd8x\xe5?'
p2184
tp2185
Rp2186
ag4
(g8
S'\xda\xfa<y}8\xed?'
p2187
tp2188
Rp2189
ag4
(g8
S"p\n*'\x82\x1b\xeb?"
p2190
tp2191
Rp2192
ag4
(g8
S'\x922{F\xf1\xa2\xe9?'
p2193
tp2194
Rp2195
ag4
(g8
S'o\x9d\xa9\xc8\xf0Z\xed?'
p2196
tp2197
Rp2198
ag4
(g8
S'uk\xbb\xe3\x0ct\xc1?'
p2199
tp2200
Rp2201
ag4
(g8
S'\x9a\xd6\xb5 \x1e\xbf\xdd?'
p2202
tp2203
Rp2204
ag4
(g8
S'\x95w%O\xe8(\xf5?'
p2205
tp2206
Rp2207
ag4
(g8
S'!\x8a\x13qF\x1f\xee?'
p2208
tp2209
Rp2210
ag4
(g8
S'U\xc8poT\x06\xe7?'
p2211
tp2212
Rp2213
ag4
(g8
S'\xf4\xf8\xf1M7M\xd0?'
p2214
tp2215
Rp2216
ag4
(g8
S'\x05\x90\xa5\x1ce\xc1\xe2?'
p2217
tp2218
Rp2219
ag4
(g8
S'\xed\xc7\xcco\xa7B\xe9?'
p2220
tp2221
Rp2222
ag4
(g8
S'\x94\x95j\xae\xc8\xcc\xf2?'
p2223
tp2224
Rp2225
ag4
(g8
S'\xc8x\x98\xeb\x9d\xc1\xfc?'
p2226
tp2227
Rp2228
ag4
(g8
S'\x8e\xbd\x17\x8fa\xc1\xe1?'
p2229
tp2230
Rp2231
ag4
(g8
S'\xd1\xb4\xech\xfa\xeb\xce?'
p2232
tp2233
Rp2234
ag4
(g8
S'\xae:\xe4\x1c\xca\x88\x0f@'
p2235
tp2236
Rp2237
ag4
(g8
S'\x89G\xed\xa3\xa2\x06\xf0?'
p2238
tp2239
Rp2240
ag4
(g8
S'\x1c\x81\x1d\xf5\xed\x16\x00@'
p2241
tp2242
Rp2243
ag4
(g8
S'y\x10\x18zF\x11\xa2?'
p2244
tp2245
Rp2246
ag4
(g8
S'@;?(\x83\x1d\xfd?'
p2247
tp2248
Rp2249
ag4
(g8
S'\xb3\xc5q9\x1a\xda\xf2?'
p2250
tp2251
Rp2252
ag4
(g8
S'\xd7\x19\xaf$b\xf0\xf1?'
p2253
tp2254
Rp2255
ag4
(g8
S'\xfdm\xc5T\xb1\xbe\xe1?'
p2256
tp2257
Rp2258
ag4
(g8
S"\xee\xfb'~\x10\x88\xf7?"
p2259
tp2260
Rp2261
ag4
(g8
S'\xa1\x9e\xe4\xd1(`\xf7?'
p2262
tp2263
Rp2264
ag4
(g8
S'\x8axrJz\x17\xee?'
p2265
tp2266
Rp2267
ag4
(g8
S'%\x05,LQ\x03\xf7?'
p2268
tp2269
Rp2270
ag4
(g8
S'\xa9\xb2\xa8\xcd<\xaf\xe2?'
p2271
tp2272
Rp2273
ag4
(g8
S'=pm\x8c\x8a\xa3\xe9?'
p2274
tp2275
Rp2276
ag4
(g8
S'\xdb\xfe\xfc\xfbW\xf8\xec?'
p2277
tp2278
Rp2279
ag4
(g8
S'\xbaA\xbc(\x17\xec\xc4?'
p2280
tp2281
Rp2282
ag4
(g8
S'9{\xbeuV\xb5\xec?'
p2283
tp2284
Rp2285
ag4
(g8
S'\xdd\n8\xdch\x17\xe5?'
p2286
tp2287
Rp2288
ag4
(g8
S'n\xae\x04\x87\xd5\\\xf1?'
p2289
tp2290
Rp2291
ag4
(g8
S'\xb0\xc3\xe8D\xae\\\xed?'
p2292
tp2293
Rp2294
ag4
(g8
S'\xe9\xfdW\xfc\xa7\xae\xef?'
p2295
tp2296
Rp2297
ag4
(g8
S'\xa5\xd7\xee_\xa7\xc2\xe1?'
p2298
tp2299
Rp2300
ag4
(g8
S'T\xbe,G\x8f\xb9\xeb?'
p2301
tp2302
Rp2303
ag4
(g8
S'\x06\xdf\xe9\x83\xd3\x87\xec?'
p2304
tp2305
Rp2306
ag4
(g8
S'\xb2\x88e\x97\xc5\x17\xe5?'
p2307
tp2308
Rp2309
ag4
(g8
S'\x03\xcc\xe4E9Z\xe6?'
p2310
tp2311
Rp2312
ag4
(g8
S'qp\xc5\xb0Z\xf0\xff?'
p2313
tp2314
Rp2315
ag4
(g8
S'3\t\xe2\xd3\xdcT\xfe?'
p2316
tp2317
Rp2318
ag4
(g8
S'\xb2W\xac _\xb6\xf6?'
p2319
tp2320
Rp2321
ag4
(g8
S"}\xf0'\x8e\x14\xfa\xf0?"
p2322
tp2323
Rp2324
ag4
(g8
S'\x01W\xb4dx^\xf2?'
p2325
tp2326
Rp2327
ag4
(g8
S'\x8f\xae\xd0\x8c\x85\xd8\xc9?'
p2328
tp2329
Rp2330
ag4
(g8
S"\xb7\xcc'\x84\xf9\x8d\xe5?"
p2331
tp2332
Rp2333
ag4
(g8
S'!\x00R\x00\x02\xf4\xe6?'
p2334
tp2335
Rp2336
ag4
(g8
S'\xcc\x99k\x1d \xad\xe6?'
p2337
tp2338
Rp2339
ag4
(g8
S'\xd9\xc4l\xf2_)\xf0?'
p2340
tp2341
Rp2342
ag4
(g8
S'\xd8\xdd\xffF\xf4(\xf2?'
p2343
tp2344
Rp2345
ag4
(g8
S'\xce\xa7\x07>O\x9c\xf0?'
p2346
tp2347
Rp2348
ag4
(g8
S'Z\xe2\x033pe\xf4?'
p2349
tp2350
Rp2351
ag4
(g8
S'\xcc?\xd0\x98I:\xc8?'
p2352
tp2353
Rp2354
ag4
(g8
S'\x91\xcb\x8e\xc0!\xf2\xf0?'
p2355
tp2356
Rp2357
ag4
(g8
S'\x94\x92{\xa3\xda\x81\xf9?'
p2358
tp2359
Rp2360
ag4
(g8
S'&\x7f\xbd8\xde\xd1\xc2?'
p2361
tp2362
Rp2363
ag4
(g8
S'2\x06\xae\xb9\xa5\x1c\x03@'
p2364
tp2365
Rp2366
ag4
(g8
S'\xbc7\xb6\x9f\xe9\xa2\xe6?'
p2367
tp2368
Rp2369
ag4
(g8
S':\\#\xa1\x08\xa0\xd4?'
p2370
tp2371
Rp2372
ag4
(g8
S'\xf7\x02\xabo\xb7%\xef?'
p2373
tp2374
Rp2375
ag4
(g8
S'52u\xfd*\xe4\xfa?'
p2376
tp2377
Rp2378
ag4
(g8
S'\xf9\xc1\x911\x97\xd1\xee?'
p2379
tp2380
Rp2381
ag4
(g8
S'\xa5\x812KU\xa7\xf1?'
p2382
tp2383
Rp2384
ag4
(g8
S'N\x12I<\xc02\xe7?'
p2385
tp2386
Rp2387
ag4
(g8
S'\xb1\xfdR\xa1\xac\x83\xfc?'
p2388
tp2389
Rp2390
ag4
(g8
S'O\x11m)!\x96\xfc?'
p2391
tp2392
Rp2393
ag4
(g8
S'\xdb1\n`\xd7.\xf6?'
p2394
tp2395
Rp2396
ag4
(g8
S'\x88r\x7f:Y\xfc\xe5?'
p2397
tp2398
Rp2399
ag4
(g8
S'\x16\x11\x18u\xa4\xf9\xc9?'
p2400
tp2401
Rp2402
ag4
(g8
S'p7\xafv\xab\x1c\xe5?'
p2403
tp2404
Rp2405
ag4
(g8
S'=e\x1eqz\x07\xf7?'
p2406
tp2407
Rp2408
ag4
(g8
S'\xe9\x82\xc3gIm\xec?'
p2409
tp2410
Rp2411
ag4
(g8
S'E\xaa\xa4\xdaKE\xd0?'
p2412
tp2413
Rp2414
ag4
(g8
S'\x80\x14\x1e&\xe4\xb6\x00@'
p2415
tp2416
Rp2417
ag4
(g8
S'5\\\xc0\x17K\xb0\xfd?'
p2418
tp2419
Rp2420
ag4
(g8
S'\xfb\xe3\x9f\xa5\x83\xcf\xe0?'
p2421
tp2422
Rp2423
as(g1
g29
tp2424
(lp2425
g4
(g8
S'55\xccG\xd2\xd7\x02@'
p2426
tp2427
Rp2428
ag4
(g8
S'-\x1c\xd3\x87l?\xea?'
p2429
tp2430
Rp2431
ag4
(g8
S'<1\xd3S\xc6\xe8\xf0?'
p2432
tp2433
Rp2434
ag4
(g8
S'I\xb8s\xb5O\x8f\xf4?'
p2435
tp2436
Rp2437
ag4
(g8
S'\xa0\x17@\xba%8\xf8?'
p2438
tp2439
Rp2440
ag4
(g8
S'\x18Tx\x18w\x08\xec?'
p2441
tp2442
Rp2443
ag4
(g8
S'=\xd2R\r<\xc4\xf9?'
p2444
tp2445
Rp2446
ag4
(g8
S'\xa8\x9f03!\xd5\xcb?'
p2447
tp2448
Rp2449
ag4
(g8
S'[\x8c(<\xed[\xe3?'
p2450
tp2451
Rp2452
ag4
(g8
S'\r\xb5\x13]\x85\x07\xe6?'
p2453
tp2454
Rp2455
ag4
(g8
S'mU\x10\xba\xc2]\xed?'
p2456
tp2457
Rp2458
ag4
(g8
S'\xedT\x9c\xe4%0\x00@'
p2459
tp2460
Rp2461
ag4
(g8
S'M\xbd\x06\xd2\xa4n\xf0?'
p2462
tp2463
Rp2464
ag4
(g8
S'\xed\xeaLr\xfb\xb9\xe2?'
p2465
tp2466
Rp2467
ag4
(g8
S'\xf7\n\x1e\xb6^$\xd1?'
p2468
tp2469
Rp2470
ag4
(g8
S'}\xf1J,\x06\x8f\xd3?'
p2471
tp2472
Rp2473
ag4
(g8
S"p\n*'\x82\x1b\xeb?"
p2474
tp2475
Rp2476
ag4
(g8
S'S\x06\xe6"\x0b\xbf\xe8?'
p2477
tp2478
Rp2479
ag4
(g8
S'U\xc8poT\x06\xe7?'
p2480
tp2481
Rp2482
ag4
(g8
S'\xf4\xf8\xf1M7M\xd0?'
p2483
tp2484
Rp2485
ag4
(g8
S'\x7f\xcc \xb4\xdb\xc8\xf8?'
p2486
tp2487
Rp2488
ag4
(g8
S'\xd1\xb4\xech\xfa\xeb\xce?'
p2489
tp2490
Rp2491
ag4
(g8
S'\x93\x90\xa6}\xd5\xb0\xf7?'
p2492
tp2493
Rp2494
ag4
(g8
S'\xb3\xc5q9\x1a\xda\xf2?'
p2495
tp2496
Rp2497
ag4
(g8
S'\xd7\x19\xaf$b\xf0\xf1?'
p2498
tp2499
Rp2500
ag4
(g8
S'\xfdm\xc5T\xb1\xbe\xe1?'
p2501
tp2502
Rp2503
ag4
(g8
S"\xee\xfb'~\x10\x88\xf7?"
p2504
tp2505
Rp2506
ag4
(g8
S'\xf1@\xf0&\xc2\xb3\xe6?'
p2507
tp2508
Rp2509
ag4
(g8
S'k\xday\xe3\xcc\x04\n@'
p2510
tp2511
Rp2512
ag4
(g8
S'\xa9\xb2\xa8\xcd<\xaf\xe2?'
p2513
tp2514
Rp2515
ag4
(g8
S'=pm\x8c\x8a\xa3\xe9?'
p2516
tp2517
Rp2518
ag4
(g8
S'\xbaA\xbc(\x17\xec\xc4?'
p2519
tp2520
Rp2521
ag4
(g8
S'n\xae\x04\x87\xd5\\\xf1?'
p2522
tp2523
Rp2524
ag4
(g8
S'\xe9\xfdW\xfc\xa7\xae\xef?'
p2525
tp2526
Rp2527
ag4
(g8
S'\xe4b5\xa4_Z\xf4?'
p2528
tp2529
Rp2530
ag4
(g8
S'\xa5\xd7\xee_\xa7\xc2\xe1?'
p2531
tp2532
Rp2533
ag4
(g8
S'\x03\xcc\xe4E9Z\xe6?'
p2534
tp2535
Rp2536
ag4
(g8
S'6\xe8\x84\xed7\x9d#@'
p2537
tp2538
Rp2539
ag4
(g8
S"}\xf0'\x8e\x14\xfa\xf0?"
p2540
tp2541
Rp2542
ag4
(g8
S'(u\x15\x18N\xa7\x1a@'
p2543
tp2544
Rp2545
ag4
(g8
S';\xd7\x91\xa4nK\xeb?'
p2546
tp2547
Rp2548
ag4
(g8
S'\x7f\xb2\xb4GW+\xe8?'
p2549
tp2550
Rp2551
ag4
(g8
S'\xf2\xe8\xf3Hzq\xee?'
p2552
tp2553
Rp2554
ag4
(g8
S'\xbd\x8f(6Cm\xfb?'
p2555
tp2556
Rp2557
ag4
(g8
S'\xe1\xd4\n\x98^\xa5\xf2?'
p2558
tp2559
Rp2560
ag4
(g8
S'\xa5\x812KU\xa7\xf1?'
p2561
tp2562
Rp2563
ag4
(g8
S'\x88r\x7f:Y\xfc\xe5?'
p2564
tp2565
Rp2566
ag4
(g8
S'\x91\xac\x07\xd7\xe9\xd2\xfb?'
p2567
tp2568
Rp2569
ag4
(g8
S'\x16\x11\x18u\xa4\xf9\xc9?'
p2570
tp2571
Rp2572
ag4
(g8
S'E\xaa\xa4\xdaKE\xd0?'
p2573
tp2574
Rp2575
ag4
(g8
S'\xa4\xda!\x98~?\xeb?'
p2576
tp2577
Rp2578
as(g1
g34
tp2579
(lp2580
g4
(g8
S'\xcd\xec\xd8\x82\xdf\xba\xdd?'
p2581
tp2582
Rp2583
ag4
(g8
S'Cz\xe1\xdd\x96\xa7\xed?'
p2584
tp2585
Rp2586
ag4
(g8
S'\x18\xd2\xcc,u\xa3\xf3?'
p2587
tp2588
Rp2589
ag4
(g8
S'L|%\xe7O\xdc\xe5?'
p2590
tp2591
Rp2592
ag4
(g8
S'\x05\x94\xd11\xab\xff\x02@'
p2593
tp2594
Rp2595
ag4
(g8
S'\xf4Jf\xc1\x06x\xf6?'
p2596
tp2597
Rp2598
ag4
(g8
S'\x8a\xc8\xe2\xbd\xcd\x8f\xe6?'
p2599
tp2600
Rp2601
ag4
(g8
S'<\x92?D\x03h\x02@'
p2602
tp2603
Rp2604
ag4
(g8
S'\xad\xc9\xd1W\xa5\xac\xf4?'
p2605
tp2606
Rp2607
ag4
(g8
S'X\x99\xa3\xeeF#\x03@'
p2608
tp2609
Rp2610
ag4
(g8
S'\xda\xfa<y}8\xed?'
p2611
tp2612
Rp2613
ag4
(g8
S'\xbdiw\xbb13\xe4?'
p2614
tp2615
Rp2616
ag4
(g8
S'uk\xbb\xe3\x0ct\xc1?'
p2617
tp2618
Rp2619
ag4
(g8
S'\x9a\xd6\xb5 \x1e\xbf\xdd?'
p2620
tp2621
Rp2622
ag4
(g8
S'r\x0e\xfc\xdc\xaa\\\xf1?'
p2623
tp2624
Rp2625
ag4
(g8
S'\xed\xc7\xcco\xa7B\xe9?'
p2626
tp2627
Rp2628
ag4
(g8
S'\x94\x95j\xae\xc8\xcc\xf2?'
p2629
tp2630
Rp2631
ag4
(g8
S'\x8e\xbd\x17\x8fa\xc1\xe1?'
p2632
tp2633
Rp2634
ag4
(g8
S'\xe7\xfa+,\xb0\xfd\xf5?'
p2635
tp2636
Rp2637
ag4
(g8
S'\x1c\x81\x1d\xf5\xed\x16\x00@'
p2638
tp2639
Rp2640
ag4
(g8
S'y\x10\x18zF\x11\xa2?'
p2641
tp2642
Rp2643
ag4
(g8
S'\xe7\xbc\xf7\xfeY\xc2\x06@'
p2644
tp2645
Rp2646
ag4
(g8
S'\x8axrJz\x17\xee?'
p2647
tp2648
Rp2649
ag4
(g8
S'\xe6!\xb4\xba\xf6,\xd1?'
p2650
tp2651
Rp2652
ag4
(g8
S'T\xbe,G\x8f\xb9\xeb?'
p2653
tp2654
Rp2655
ag4
(g8
S'\x06\xdf\xe9\x83\xd3\x87\xec?'
p2656
tp2657
Rp2658
ag4
(g8
S'\xf0\xa7n\x04\xd6\x07\xdb?'
p2659
tp2660
Rp2661
ag4
(g8
S'3\t\xe2\xd3\xdcT\xfe?'
p2662
tp2663
Rp2664
ag4
(g8
S'\xb2W\xac _\xb6\xf6?'
p2665
tp2666
Rp2667
ag4
(g8
S'\xbb\xb4\x1f\xd7\x8a\x07\xf8?'
p2668
tp2669
Rp2670
ag4
(g8
S'\x07\x8c\x16\xfd\xa6\xa8\xfd?'
p2671
tp2672
Rp2673
ag4
(g8
S'\xc0*\xe4\x98\xc8W\xf2?'
p2674
tp2675
Rp2676
ag4
(g8
S'!\x00R\x00\x02\xf4\xe6?'
p2677
tp2678
Rp2679
ag4
(g8
S'\xcc\x99k\x1d \xad\xe6?'
p2680
tp2681
Rp2682
ag4
(g8
S'\x9e\xc9\xd5\xb6({\xf5?'
p2683
tp2684
Rp2685
ag4
(g8
S'%\xf0\xdb\x8a\x0b\x1c\xec?'
p2686
tp2687
Rp2688
ag4
(g8
S'p\xde+\xa6`5\xf4?'
p2689
tp2690
Rp2691
ag4
(g8
S'Z\xe2\x033pe\xf4?'
p2692
tp2693
Rp2694
ag4
(g8
S'\x91\xcb\x8e\xc0!\xf2\xf0?'
p2695
tp2696
Rp2697
ag4
(g8
S'\x94\x92{\xa3\xda\x81\xf9?'
p2698
tp2699
Rp2700
ag4
(g8
S'&\x7f\xbd8\xde\xd1\xc2?'
p2701
tp2702
Rp2703
ag4
(g8
S'\xf7\x02\xabo\xb7%\xef?'
p2704
tp2705
Rp2706
ag4
(g8
S'52u\xfd*\xe4\xfa?'
p2707
tp2708
Rp2709
ag4
(g8
S'\xb1\xfdR\xa1\xac\x83\xfc?'
p2710
tp2711
Rp2712
ag4
(g8
S'\xdb1\n`\xd7.\xf6?'
p2713
tp2714
Rp2715
ag4
(g8
S'\x000C\x9b\xc2J\x0f@'
p2716
tp2717
Rp2718
ag4
(g8
S'\x80\x14\x1e&\xe4\xb6\x00@'
p2719
tp2720
Rp2721
ag4
(g8
S'5\\\xc0\x17K\xb0\xfd?'
p2722
tp2723
Rp2724
astp2725
.