((dp0
(S'02315500'
p1
S'summer'
p2
tp3
cnumpy.core.multiarray
scalar
p4
(cnumpy
dtype
p5
(S'f8'
p6
I0
I1
tp7
Rp8
(I3
S'<'
p9
NNNI-1
I-1
I0
tp10
bS'j\x89\xef\x98\x9c\xec\xa8?'
p11
tp12
Rp13
s(g1
S'annual'
p14
tp15
g4
(g8
S'R\xb5\x93\xcb\xc7\xae\xa1?'
p16
tp17
Rp18
s(g1
S'winter'
p19
tp20
g4
(g8
S'H\x95\xfd5\xb9\xc1\xb1?'
p21
tp22
Rp23
s(g1
S'fall'
p24
tp25
g4
(g8
S'\xfa\x18\x8cgQ\xa3\xa8?'
p26
tp27
Rp28
s(g1
S'spring'
p29
tp30
g4
(g8
S'\xad.\x1c\xf6\xc6\xef\xa1?'
p31
tp32
Rp33
s(g1
S'wet'
p34
tp35
g4
(g8
S'\x0eR\xb0o\xba\xac\xa4?'
p36
tp37
Rp38
s(dp39
(g1
g2
tp40
g4
(g8
S'\xc1\x1a\xcb*\xb9^\xeb?'
p41
tp42
Rp43
s(g1
g14
tp44
g4
(g8
S'G\x87\x9b/\xc4Y\xeb?'
p45
tp46
Rp47
s(g1
g19
tp48
g4
(g8
S'\xad8\xaft+\xd8\xf0?'
p49
tp50
Rp51
s(g1
g24
tp52
g4
(g8
S'o\x89\\\xd1*\x96\xed?'
p53
tp54
Rp55
s(g1
g29
tp56
g4
(g8
S'9\x1c\xcfQ#_\xeb?'
p57
tp58
Rp59
s(g1
g34
tp60
g4
(g8
S',4\xe0P\xc1\xa4\xee?'
p61
tp62
Rp63
s(dp64
(g1
g2
tp65
(lp66
cpandas.tslib
Timestamp
p67
(L328838400000000000L
NNtp68
Rp69
ag67
(L328924800000000000L
NNtp70
Rp71
ag67
(L329097600000000000L
NNtp72
Rp73
ag67
(L329443200000000000L
NNtp74
Rp75
ag67
(L329875200000000000L
NNtp76
Rp77
ag67
(L330480000000000000L
NNtp78
Rp79
ag67
(L330652800000000000L
NNtp80
Rp81
ag67
(L330912000000000000L
NNtp82
Rp83
ag67
(L330998400000000000L
NNtp84
Rp85
ag67
(L331257600000000000L
NNtp86
Rp87
ag67
(L331948800000000000L
NNtp88
Rp89
ag67
(L333072000000000000L
NNtp90
Rp91
ag67
(L333158400000000000L
NNtp92
Rp93
ag67
(L333936000000000000L
NNtp94
Rp95
ag67
(L335318400000000000L
NNtp96
Rp97
ag67
(L335404800000000000L
NNtp98
Rp99
ag67
(L335577600000000000L
NNtp100
Rp101
ag67
(L336182400000000000L
NNtp102
Rp103
ag67
(L336268800000000000L
NNtp104
Rp105
ag67
(L336355200000000000L
NNtp106
Rp107
ag67
(L336528000000000000L
NNtp108
Rp109
ag67
(L360633600000000000L
NNtp110
Rp111
as(g1
g14
tp112
(lp113
g67
(L315532800000000000L
NNtp114
Rp115
ag67
(L315964800000000000L
NNtp116
Rp117
ag67
(L316310400000000000L
NNtp118
Rp119
ag67
(L316396800000000000L
NNtp120
Rp121
ag67
(L316915200000000000L
NNtp122
Rp123
ag67
(L317088000000000000L
NNtp124
Rp125
ag67
(L317347200000000000L
NNtp126
Rp127
ag67
(L317692800000000000L
NNtp128
Rp129
ag67
(L318124800000000000L
NNtp130
Rp131
ag67
(L318988800000000000L
NNtp132
Rp133
ag67
(L319334400000000000L
NNtp134
Rp135
ag67
(L320630400000000000L
NNtp136
Rp137
ag67
(L320803200000000000L
NNtp138
Rp139
ag67
(L321235200000000000L
NNtp140
Rp141
ag67
(L321494400000000000L
NNtp142
Rp143
ag67
(L321753600000000000L
NNtp144
Rp145
ag67
(L322012800000000000L
NNtp146
Rp147
ag67
(L322185600000000000L
NNtp148
Rp149
ag67
(L322617600000000000L
NNtp150
Rp151
ag67
(L322704000000000000L
NNtp152
Rp153
ag67
(L322963200000000000L
NNtp154
Rp155
ag67
(L323136000000000000L
NNtp156
Rp157
ag67
(L323222400000000000L
NNtp158
Rp159
ag67
(L323308800000000000L
NNtp160
Rp161
ag67
(L323481600000000000L
NNtp162
Rp163
ag67
(L325468800000000000L
NNtp164
Rp165
ag67
(L326592000000000000L
NNtp166
Rp167
ag67
(L327369600000000000L
NNtp168
Rp169
ag67
(L327542400000000000L
NNtp170
Rp171
ag67
(L327715200000000000L
NNtp172
Rp173
ag67
(L328147200000000000L
NNtp174
Rp175
ag67
(L329097600000000000L
NNtp176
Rp177
ag67
(L329270400000000000L
NNtp178
Rp179
ag67
(L329443200000000000L
NNtp180
Rp181
ag67
(L329961600000000000L
NNtp182
Rp183
ag67
(L330048000000000000L
NNtp184
Rp185
ag67
(L331603200000000000L
NNtp186
Rp187
ag67
(L331689600000000000L
NNtp188
Rp189
ag67
(L332467200000000000L
NNtp190
Rp191
ag67
(L332553600000000000L
NNtp192
Rp193
ag67
(L332640000000000000L
NNtp194
Rp195
ag67
(L333417600000000000L
NNtp196
Rp197
ag67
(L334108800000000000L
NNtp198
Rp199
ag67
(L334195200000000000L
NNtp200
Rp201
ag67
(L334886400000000000L
NNtp202
Rp203
ag67
(L335059200000000000L
NNtp204
Rp205
ag67
(L335232000000000000L
NNtp206
Rp207
ag67
(L335318400000000000L
NNtp208
Rp209
ag67
(L335404800000000000L
NNtp210
Rp211
ag67
(L335491200000000000L
NNtp212
Rp213
ag67
(L335923200000000000L
NNtp214
Rp215
ag67
(L336009600000000000L
NNtp216
Rp217
ag67
(L336700800000000000L
NNtp218
Rp219
ag67
(L337132800000000000L
NNtp220
Rp221
ag67
(L337219200000000000L
NNtp222
Rp223
ag67
(L337564800000000000L
NNtp224
Rp225
ag67
(L337651200000000000L
NNtp226
Rp227
ag67
(L337824000000000000L
NNtp228
Rp229
ag67
(L339724800000000000L
NNtp230
Rp231
ag67
(L339984000000000000L
NNtp232
Rp233
ag67
(L340070400000000000L
NNtp234
Rp235
as(g1
g19
tp236
(lp237
g67
(L315532800000000000L
NNtp238
Rp239
ag67
(L315705600000000000L
NNtp240
Rp241
ag67
(L316310400000000000L
NNtp242
Rp243
ag67
(L317001600000000000L
NNtp244
Rp245
ag67
(L317260800000000000L
NNtp246
Rp247
ag67
(L317520000000000000L
NNtp248
Rp249
ag67
(L317692800000000000L
NNtp250
Rp251
ag67
(L318038400000000000L
NNtp252
Rp253
ag67
(L319248000000000000L
NNtp254
Rp255
ag67
(L319680000000000000L
NNtp256
Rp257
ag67
(L344736000000000000L
NNtp258
Rp259
ag67
(L344822400000000000L
NNtp260
Rp261
ag67
(L345081600000000000L
NNtp262
Rp263
ag67
(L345254400000000000L
NNtp264
Rp265
ag67
(L345600000000000000L
NNtp266
Rp267
ag67
(L346032000000000000L
NNtp268
Rp269
ag67
(L346204800000000000L
NNtp270
Rp271
as(g1
g24
tp272
(lp273
g67
(L337478400000000000L
NNtp274
Rp275
ag67
(L337564800000000000L
NNtp276
Rp277
ag67
(L338601600000000000L
NNtp278
Rp279
ag67
(L338774400000000000L
NNtp280
Rp281
ag67
(L339379200000000000L
NNtp282
Rp283
ag67
(L339552000000000000L
NNtp284
Rp285
ag67
(L339638400000000000L
NNtp286
Rp287
ag67
(L339811200000000000L
NNtp288
Rp289
ag67
(L340070400000000000L
NNtp290
Rp291
ag67
(L340329600000000000L
NNtp292
Rp293
ag67
(L340502400000000000L
NNtp294
Rp295
ag67
(L340675200000000000L
NNtp296
Rp297
ag67
(L341193600000000000L
NNtp298
Rp299
ag67
(L341366400000000000L
NNtp300
Rp301
ag67
(L341452800000000000L
NNtp302
Rp303
ag67
(L341798400000000000L
NNtp304
Rp305
ag67
(L342403200000000000L
NNtp306
Rp307
ag67
(L342489600000000000L
NNtp308
Rp309
ag67
(L342576000000000000L
NNtp310
Rp311
ag67
(L343180800000000000L
NNtp312
Rp313
ag67
(L343699200000000000L
NNtp314
Rp315
as(g1
g29
tp316
(lp317
g67
(L320889600000000000L
NNtp318
Rp319
ag67
(L321321600000000000L
NNtp320
Rp321
ag67
(L321667200000000000L
NNtp322
Rp323
ag67
(L322876800000000000L
NNtp324
Rp325
ag67
(L322963200000000000L
NNtp326
Rp327
ag67
(L324777600000000000L
NNtp328
Rp329
ag67
(L325296000000000000L
NNtp330
Rp331
ag67
(L325728000000000000L
NNtp332
Rp333
ag67
(L325987200000000000L
NNtp334
Rp335
ag67
(L326764800000000000L
NNtp336
Rp337
ag67
(L327110400000000000L
NNtp338
Rp339
as(g1
g34
tp340
(lp341
g67
(L315532800000000000L
NNtp342
Rp343
ag67
(L315705600000000000L
NNtp344
Rp345
ag67
(L316051200000000000L
NNtp346
Rp347
ag67
(L316483200000000000L
NNtp348
Rp349
ag67
(L316742400000000000L
NNtp350
Rp351
ag67
(L317088000000000000L
NNtp352
Rp353
ag67
(L318384000000000000L
NNtp354
Rp355
ag67
(L318643200000000000L
NNtp356
Rp357
ag67
(L318988800000000000L
NNtp358
Rp359
ag67
(L319161600000000000L
NNtp360
Rp361
ag67
(L319680000000000000L
NNtp362
Rp363
ag67
(L319766400000000000L
NNtp364
Rp365
ag67
(L321753600000000000L
NNtp366
Rp367
ag67
(L322272000000000000L
NNtp368
Rp369
ag67
(L322704000000000000L
NNtp370
Rp371
ag67
(L323136000000000000L
NNtp372
Rp373
ag67
(L323222400000000000L
NNtp374
Rp375
ag67
(L324345600000000000L
NNtp376
Rp377
ag67
(L324604800000000000L
NNtp378
Rp379
ag67
(L325296000000000000L
NNtp380
Rp381
ag67
(L325382400000000000L
NNtp382
Rp383
ag67
(L325641600000000000L
NNtp384
Rp385
ag67
(L325814400000000000L
NNtp386
Rp387
ag67
(L341884800000000000L
NNtp388
Rp389
ag67
(L341971200000000000L
NNtp390
Rp391
ag67
(L342316800000000000L
NNtp392
Rp393
ag67
(L342576000000000000L
NNtp394
Rp395
ag67
(L342748800000000000L
NNtp396
Rp397
ag67
(L343008000000000000L
NNtp398
Rp399
as(dp400
(g1
g2
tp401
g4
(g8
S'XeQu\xbe\xde\xf3?'
p402
tp403
Rp404
s(g1
g14
tp405
g4
(g8
S'\x92\xb4E\x9d\x07\x19\xf4?'
p406
tp407
Rp408
s(g1
g19
tp409
g4
(g8
S'\x94\xda\xd9\xe0\xe4\xd0\xf2?'
p410
tp411
Rp412
s(g1
g24
tp413
g4
(g8
S'(\x10\xf2\rY\xac\xf4?'
p414
tp415
Rp416
s(g1
g29
tp417
g4
(g8
S'\x03d\x0f*{V\xf2?'
p418
tp419
Rp420
s(g1
g34
tp421
g4
(g8
S'\xdb\xc5)\x05\xc1\xd1\xf2?'
p422
tp423
Rp424
s(dp425
(g1
g2
tp426
g4
(g8
S'\xf5\xdc\xef \xc7\xf5\x03@'
p427
tp428
Rp429
s(g1
g14
tp430
g4
(g8
S'\xe2\xc9US\xc1\xa3\x05@'
p431
tp432
Rp433
s(g1
g19
tp434
g4
(g8
S'#\tC&\x1bU\x04@'
p435
tp436
Rp437
s(g1
g24
tp438
g4
(g8
S'\x97\xeds\xbfY\xcd\x05@'
p439
tp440
Rp441
s(g1
g29
tp442
g4
(g8
S'\xaf\x1fW#LN\x01@'
p443
tp444
Rp445
s(g1
g34
tp446
g4
(g8
S'\x84V\x83\x11\t\xfb\x03@'
p447
tp448
Rp449
s(dp450
(g1
g2
tp451
F0.039563550034055504
s(g1
g14
tp452
F0.059767749485021525
s(g1
g19
tp453
F0.06296454783839354
s(g1
g24
tp454
F0.03665526033971899
s(g1
g29
tp455
F0.09932579778266577
s(g1
g34
tp456
F0.07922928262475532
s(dp457
(g1
g2
tp458
g4
(g8
S'\xa0\x1a/\xdd$\x06%@'
p459
tp460
Rp461
s(g1
g14
tp462
g4
(g8
S'.g\xf5\xd8\x11\xa08@'
p463
tp464
Rp465
s(g1
g19
tp466
g4
(g8
S'\xa9]\x89\xda\x95\xa8#@'
p467
tp468
Rp469
s(g1
g24
tp470
g4
(g8
S'\x1b\xcak(\xaf\xa13@'
p471
tp472
Rp473
s(g1
g29
tp474
g4
(g8
S'\x92$I\x92$I3@'
p475
tp476
Rp477
s(g1
g34
tp478
g4
(g8
S'\x91\x1e\xa8\x9c\xddB)@'
p479
tp480
Rp481
s(dp482
(g1
g2
tp483
g4
(g8
S'\x8eQ\xe64\xa7F\xdf?'
p484
tp485
Rp486
s(g1
g14
tp487
g4
(g8
S'\xf1\x18\x14\xa3\xd2\x8d\xed?'
p488
tp489
Rp490
s(g1
g19
tp491
g4
(g8
S'^FqmxF\xe1?'
p492
tp493
Rp494
s(g1
g24
tp495
g4
(g8
S'y\xa3\xc7\xad\xda\x10\xe4?'
p496
tp497
Rp498
s(g1
g29
tp499
g4
(g8
S'\xc2\x8f n\xadI\xfa?'
p500
tp501
Rp502
s(g1
g34
tp503
g4
(g8
S'%\xcd\x824\xc6$\xef?'
p504
tp505
Rp506
s(dp507
(g1
g2
tp508
g4
(g8
S'\x93W+\x99L2\x0f@'
p509
tp510
Rp511
s(g1
g14
tp512
g4
(g8
S'g\xed\xfd\x8bw\xee\x10@'
p513
tp514
Rp515
s(g1
g19
tp516
g4
(g8
S'6(\x0c\xc3\xca\xd6\x0e@'
p517
tp518
Rp519
s(g1
g24
tp520
g4
(g8
S'\xbb\xb4\x8fB\x0f\xc5\x0e@'
p521
tp522
Rp523
s(g1
g29
tp524
g4
(g8
S'\xe8\xd1jK\xc7\x1c\x0f@'
p525
tp526
Rp527
s(g1
g34
tp528
g4
(g8
S' \x11\t8\x953\x10@'
p529
tp530
Rp531
s(dp532
(g1
g2
tp533
g4
(g8
S'\xc9\x1d6\x978*\x94?'
p534
tp535
Rp536
s(g1
g14
tp537
g4
(g8
S'{U\x8f\xb8\xd6%\x84?'
p538
tp539
Rp540
s(g1
g19
tp541
g4
(g8
S'\xdd5\x1f\xf9)\x0f\x95?'
p542
tp543
Rp544
s(g1
g24
tp545
g4
(g8
S'M\xf5\x8b]\x98\x96\x94?'
p546
tp547
Rp548
s(g1
g29
tp549
g4
(g8
S'\xd9\xb9\xdeR\xe9\x15\x94?'
p550
tp551
Rp552
s(g1
g34
tp553
g4
(g8
S'\x19G\x1d\xeb\xf9\x03\x8d?'
p554
tp555
Rp556
s(dp557
(g1
g2
tp558
g4
(g8
S'\xbf\x17}\xd9+\x97\xc8?'
p559
tp560
Rp561
s(g1
g14
tp562
g4
(g8
S':MZ\xe3\xdd\xb9\xd3?'
p563
tp564
Rp565
s(g1
g19
tp566
F0.5992653953898731
s(g1
g24
tp567
g4
(g8
S'\xd8\x84\xb5\xc7R\xc7\xd1?'
p568
tp569
Rp570
s(g1
g29
tp571
g4
(g8
S'\xcc\x7f;n\xf4\xb9\xe0?'
p572
tp573
Rp574
s(g1
g34
tp575
g4
(g8
S'\xd3\xd1^\x06o~\xdb?'
p576
tp577
Rp578
s(dp579
(g1
g2
tp580
F0.1717167660662848
s(g1
g14
tp581
F0.2676482110876691
s(g1
g19
tp582
F0.4398901040517123
s(g1
g24
tp583
F0.26563862475601724
s(g1
g29
tp584
F0.46706349038779704
s(g1
g34
tp585
F0.3915818297717471
s(dp586
(dp587
(dp588
(g1
g2
tp589
(lp590
g4
(g8
S'F\xc1VH\xa0\xe9"@'
p591
tp592
Rp593
ag4
(g8
S'\xcb:8\x1f\x9c\xcc\x06@'
p594
tp595
Rp596
ag4
(g8
S'\x9c\xbb\xe7\x8c\xe7\\\x9c?'
p597
tp598
Rp599
ag4
(g8
S'\x8e\xa4\x1ek\x0b\xfc\xda?'
p600
tp601
Rp602
ag4
(g8
S'.\xa7\xdc\xc3\xba)\x11@'
p603
tp604
Rp605
ag4
(g8
S'\x0bo\xd8\x07+t;@'
p606
tp607
Rp608
ag4
(g8
S'5\xe7Z\x82\xc7\x83\xd5?'
p609
tp610
Rp611
ag4
(g8
S'2\xe2\xe2\xe5\x18\xb0 @'
p612
tp613
Rp614
ag4
(g8
S'\x08p\xeblI\x9f\x04@'
p615
tp616
Rp617
ag4
(g8
S'oX\x94\xa1\xfe\xb3\xb1?'
p618
tp619
Rp620
ag4
(g8
S'\xae\x97\xa7\x8d5\x0f\xcc?'
p621
tp622
Rp623
ag4
(g8
S'9kE2\xafv\x81?'
p624
tp625
Rp626
ag4
(g8
S'\x97\x8c\xb3\x1a\x8a\xec\x12@'
p627
tp628
Rp629
ag4
(g8
S'\x8e\xf8\xe1\x81\x92\xd6\xa2?'
p630
tp631
Rp632
ag4
(g8
S'x\xd3\x9c\xbdi\x9e\xb0?'
p633
tp634
Rp635
ag4
(g8
S'E \xf9\x00\x1d\x99\xec@'
p636
tp637
Rp638
as(g1
g14
tp639
(lp640
g4
(g8
S'\xd6|r86\xee\x17@'
p641
tp642
Rp643
ag4
(g8
S'F\xc1VH\xa0\xe9"@'
p644
tp645
Rp646
ag4
(g8
S'\xcb:8\x1f\x9c\xcc\x06@'
p647
tp648
Rp649
ag4
(g8
S'\xb1\xa3}m\xba\xd5\xde?'
p650
tp651
Rp652
ag4
(g8
S' _\xdd\xb0\xbd\x11\xec?'
p653
tp654
Rp655
ag4
(g8
S'\xe6\xf8=\x81\xec\xa1\xc9?'
p656
tp657
Rp658
ag4
(g8
S'\xe69\xaa\x0f\xaa\x86\xcc?'
p659
tp660
Rp661
ag4
(g8
S'\x9c\xbb\xe7\x8c\xe7\\\x9c?'
p662
tp663
Rp664
ag4
(g8
S'\x8e\xa4\x1ek\x0b\xfc\xda?'
p665
tp666
Rp667
ag4
(g8
S'.\xa7\xdc\xc3\xba)\x11@'
p668
tp669
Rp670
ag4
(g8
S'\xbe\xe8\xda_\xaa\xb0\xfa?'
p671
tp672
Rp673
ag4
(g8
S'\x9c\x86\x8f&g\x00\xa0?'
p674
tp675
Rp676
ag4
(g8
S'\x0bo\xd8\x07+t;@'
p677
tp678
Rp679
ag4
(g8
S'5\xe7Z\x82\xc7\x83\xd5?'
p680
tp681
Rp682
ag4
(g8
S'\x1f=\xcao\x1a0\xfb?'
p683
tp684
Rp685
ag4
(g8
S'\xc4\xfc\xa6N\x02\x04\xfe?'
p686
tp687
Rp688
ag4
(g8
S'\x9eT\xffR\x19\xad6@'
p689
tp690
Rp691
ag4
(g8
S'2\xe2\xe2\xe5\x18\xb0 @'
p692
tp693
Rp694
ag4
(g8
S'\x08p\xeblI\x9f\x04@'
p695
tp696
Rp697
ag4
(g8
S'f\x1a\xb9!\xec\xbc\x13@'
p698
tp699
Rp700
ag4
(g8
S'Y\xf4\xcb\xadJ/\x94?'
p701
tp702
Rp703
ag4
(g8
S'\xbd\xf08t<\x08\x8b?'
p704
tp705
Rp706
ag4
(g8
S'oX\x94\xa1\xfe\xb3\xb1?'
p707
tp708
Rp709
ag4
(g8
S'#\xeb=`\xd8k\xd5?'
p710
tp711
Rp712
ag4
(g8
S'B\xf2\x93\xb1\x11M\x97?'
p713
tp714
Rp715
ag4
(g8
S'\x10@\x00\xbe\x81\x93\xf4?'
p716
tp717
Rp718
ag4
(g8
S'\xae\x97\xa7\x8d5\x0f\xcc?'
p719
tp720
Rp721
ag4
(g8
S'\n_\x18\xbd\xdfW\xaa@'
p722
tp723
Rp724
ag4
(g8
S'VFD\xe4\x82\\\x02@'
p725
tp726
Rp727
ag4
(g8
S'q\xc2\xf6\x99\xe4\xc2K@'
p728
tp729
Rp730
ag4
(g8
S'\xc5\x1f3\xa2c{\xb5@'
p731
tp732
Rp733
ag4
(g8
S"'N|\xce\x10\xea2A"
p734
tp735
Rp736
ag4
(g8
S'\xdde\n\xe1\x1fTb@'
p737
tp738
Rp739
ag4
(g8
S'\x97\x8c\xb3\x1a\x8a\xec\x12@'
p740
tp741
Rp742
ag4
(g8
S'\xeb\xf7\x97\t*\x95\x91@'
p743
tp744
Rp745
ag4
(g8
S'\x8e\xf8\xe1\x81\x92\xd6\xa2?'
p746
tp747
Rp748
ag4
(g8
S'b?\x8e\xd4\x1d\x89w@'
p749
tp750
Rp751
ag4
(g8
S'x\xd3\x9c\xbdi\x9e\xb0?'
p752
tp753
Rp754
ag4
(g8
S'\x0f\x1e\x82\x97\x83$\xe2?'
p755
tp756
Rp757
ag4
(g8
S'\xb8+xv\x1f\nU@'
p758
tp759
Rp760
ag4
(g8
S'i1\x0f\x82S\x1f\xc4?'
p761
tp762
Rp763
as(g1
g19
tp764
(lp765
g4
(g8
S'\xd6|r86\xee\x17@'
p766
tp767
Rp768
ag4
(g8
S'\xe6\xf8=\x81\xec\xa1\xc9?'
p769
tp770
Rp771
ag4
(g8
S'\xbe\xe8\xda_\xaa\xb0\xfa?'
p772
tp773
Rp774
ag4
(g8
S'\x9c\x86\x8f&g\x00\xa0?'
p775
tp776
Rp777
ag4
(g8
S'\x12\x97\xcb\x0b\x14\x13\xa0A'
p778
tp779
Rp780
ag4
(g8
S'B\xf2\x93\xb1\x11M\x97?'
p781
tp782
Rp783
ag4
(g8
S"'N|\xce\x10\xea2A"
p784
tp785
Rp786
ag4
(g8
S'\xdde\n\xe1\x1fTb@'
p787
tp788
Rp789
ag4
(g8
S'b?\x8e\xd4\x1d\x89w@'
p790
tp791
Rp792
as(g1
g24
tp793
(lp794
g4
(g8
S'\xf2%\x8c\x1f\x18\xde\xa0A'
p795
tp796
Rp797
ag4
(g8
S'\x1f=\xcao\x1a0\xfb?'
p798
tp799
Rp800
ag4
(g8
S'y\xb4\xfc\xaa0,\xff?'
p801
tp802
Rp803
ag4
(g8
S'f\x1a\xb9!\xec\xbc\x13@'
p804
tp805
Rp806
ag4
(g8
S'Y\xf4\xcb\xadJ/\x94?'
p807
tp808
Rp809
ag4
(g8
S'\x05m\r^\x81&\x06@'
p810
tp811
Rp812
ag4
(g8
S'#\xeb=`\xd8k\xd5?'
p813
tp814
Rp815
ag4
(g8
S'\xb0a\xfa.\xf3y\xd3?'
p816
tp817
Rp818
ag4
(g8
S'\n_\x18\xbd\xdfW\xaa@'
p819
tp820
Rp821
ag4
(g8
S'VFD\xe4\x82\\\x02@'
p822
tp823
Rp824
ag4
(g8
S'\xc5\x1f3\xa2c{\xb5@'
p825
tp826
Rp827
ag4
(g8
S':\xd5\x08rA\x80\xd1?'
p828
tp829
Rp830
ag4
(g8
S'\x87\x80\xe2h\xa6\x96\xb2?'
p831
tp832
Rp833
ag4
(g8
S'i1\x0f\x82S\x1f\xc4?'
p834
tp835
Rp836
as(g1
g29
tp837
(lp838
g4
(g8
S'\xb1\xa3}m\xba\xd5\xde?'
p839
tp840
Rp841
ag4
(g8
S'\xe69\xaa\x0f\xaa\x86\xcc?'
p842
tp843
Rp844
ag4
(g8
S'\x9eT\xffR\x19\xad6@'
p845
tp846
Rp847
ag4
(g8
S'\xbd\xf08t<\x08\x8b?'
p848
tp849
Rp850
ag4
(g8
S'\x10@\x00\xbe\x81\x93\xf4?'
p851
tp852
Rp853
ag4
(g8
S'q\xc2\xf6\x99\xe4\xc2K@'
p854
tp855
Rp856
ag4
(g8
S'\xeb\xf7\x97\t*\x95\x91@'
p857
tp858
Rp859
as(g1
g34
tp860
(lp861
g4
(g8
S'\xd6|r86\xee\x17@'
p862
tp863
Rp864
ag4
(g8
S'\xb1\xa3}m\xba\xd5\xde?'
p865
tp866
Rp867
ag4
(g8
S'\xe6\xf8=\x81\xec\xa1\xc9?'
p868
tp869
Rp870
ag4
(g8
S'\xe69\xaa\x0f\xaa\x86\xcc?'
p871
tp872
Rp873
ag4
(g8
S'\xbe\xe8\xda_\xaa\xb0\xfa?'
p874
tp875
Rp876
ag4
(g8
S'\x9c\x86\x8f&g\x00\xa0?'
p877
tp878
Rp879
ag4
(g8
S'\xc4\xfc\xa6N\x02\x04\xfe?'
p880
tp881
Rp882
ag4
(g8
S'\xe9-c\xdfU\\\x06@'
p883
tp884
Rp885
ag4
(g8
S'f\x1a\xb9!\xec\xbc\x13@'
p886
tp887
Rp888
ag4
(g8
S'\xbd\xf08t<\x08\x8b?'
p889
tp890
Rp891
ag4
(g8
S'\xac\xdc{p\xa2\xb7\xf4?'
p892
tp893
Rp894
ag4
(g8
S'B\xf2\x93\xb1\x11M\x97?'
p895
tp896
Rp897
ag4
(g8
S'q\xc2\xf6\x99\xe4\xc2K@'
p898
tp899
Rp900
ag4
(g8
S"'N|\xce\x10\xea2A"
p901
tp902
Rp903
ag4
(g8
S'\xdde\n\xe1\x1fTb@'
p904
tp905
Rp906
ag4
(g8
S'\xeb\xf7\x97\t*\x95\x91@'
p907
tp908
Rp909
ag4
(g8
S'b?\x8e\xd4\x1d\x89w@'
p910
tp911
Rp912
ag4
(g8
S'\xb3+&(.\x9f\xe7@'
p913
tp914
Rp915
as(dp916
(g1
g2
tp917
(lp918
g4
(g8
S'\x05]\xdbT\xa0\xac\x00@'
p919
tp920
Rp921
ag4
(g8
S'\xb1\xef\xba\xcf\x7f\xc3\xfd?'
p922
tp923
Rp924
ag4
(g8
S'R\x10\x82\xef\xe3\x9e\xe8?'
p925
tp926
Rp927
ag4
(g8
S'\x8d&}\xd2T\xa9\xfa?'
p928
tp929
Rp930
ag4
(g8
S'u\xc7\xdc\xeb\x90&\xfe?'
p931
tp932
Rp933
ag4
(g8
S'\xd6\xd5"\x86\xael\x05@'
p934
tp935
Rp936
ag4
(g8
S'(\x92|gAT\xf6?'
p937
tp938
Rp939
ag4
(g8
S'\xa1\x91;\xae\xcf\x88\x02@'
p940
tp941
Rp942
ag4
(g8
S'ML\x84\xa2\xbd9\xfe?'
p943
tp944
Rp945
ag4
(g8
S'\xbff\x80\xff\xedz\xea?'
p946
tp947
Rp948
ag4
(g8
S'\xe9\x16\xf4m\xea\xf2\xf9?'
p949
tp950
Rp951
ag4
(g8
S'\x0e6*\xdd\xee\xac\xe3?'
p952
tp953
Rp954
ag4
(g8
S'\x176\xa4\x84\x1f+\x00@'
p955
tp956
Rp957
ag4
(g8
S'\xdb\xa5\xb1\xe0\x8ea\xe7?'
p958
tp959
Rp960
ag4
(g8
S'!h\x02\xdc\xba\x10\xea?'
p961
tp962
Rp963
ag4
(g8
S'\x82Im\xcdj\xfb\x19@'
p964
tp965
Rp966
as(g1
g14
tp967
(lp968
g4
(g8
S'I\x01\x988\\\xc2\x04@'
p969
tp970
Rp971
ag4
(g8
S'\x05]\xdbT\xa0\xac\x00@'
p972
tp973
Rp974
ag4
(g8
S'\xb1\xef\xba\xcf\x7f\xc3\xfd?'
p975
tp976
Rp977
ag4
(g8
S't\xf8O%\xde\xe4\xfb?'
p978
tp979
Rp980
ag4
(g8
S';Z\x89\xa2\xb0\xb1\xf6?'
p981
tp982
Rp983
ag4
(g8
S'E\xf2\xdeC\xf2-\xf7?'
p984
tp985
Rp986
ag4
(g8
S'\x8b\xb0%\xcb\xa4=\xf8?'
p987
tp988
Rp989
ag4
(g8
S'R\x10\x82\xef\xe3\x9e\xe8?'
p990
tp991
Rp992
ag4
(g8
S'\x8d&}\xd2T\xa9\xfa?'
p993
tp994
Rp995
ag4
(g8
S'u\xc7\xdc\xeb\x90&\xfe?'
p996
tp997
Rp998
ag4
(g8
S'\xc8\xedEE\xa0\x0b\x11@'
p999
tp1000
Rp1001
ag4
(g8
S'\xf1\xb4(a\xe7#\xe7?'
p1002
tp1003
Rp1004
ag4
(g8
S'\xd6\xd5"\x86\xael\x05@'
p1005
tp1006
Rp1007
ag4
(g8
S'(\x92|gAT\xf6?'
p1008
tp1009
Rp1010
ag4
(g8
S' \xdbu_\\\x84\xfd?'
p1011
tp1012
Rp1013
ag4
(g8
S'\xb4%\x8d\xaa\x91A\xfe?'
p1014
tp1015
Rp1016
ag4
(g8
S'/\xbc\xb3i\xf9\xcb\x01@'
p1017
tp1018
Rp1019
ag4
(g8
S'\xa1\x91;\xae\xcf\x88\x02@'
p1020
tp1021
Rp1022
ag4
(g8
S'ML\x84\xa2\xbd9\xfe?'
p1023
tp1024
Rp1025
ag4
(g8
S'|\xfb\xa8\xbe\x9f\xd3\x01@'
p1026
tp1027
Rp1028
ag4
(g8
S'\xad!?MK\x98\xe3?'
p1029
tp1030
Rp1031
ag4
(g8
S'~\xb7i.\x92\x1d\xe3?'
p1032
tp1033
Rp1034
ag4
(g8
S'\xbff\x80\xff\xedz\xea?'
p1035
tp1036
Rp1037
ag4
(g8
S'!\xbaO_\xb0\x15\xf4?'
p1038
tp1039
Rp1040
ag4
(g8
S'z\x19\xbf\xa4\r\xdb\xed?'
p1041
tp1042
Rp1043
ag4
(g8
S'\xc7,(Xw\x1e\x00@'
p1044
tp1045
Rp1046
ag4
(g8
S'\xe9\x16\xf4m\xea\xf2\xf9?'
p1047
tp1048
Rp1049
ag4
(g8
S'\xf1\xa1\x98\xa5X\xee\x0c@'
p1050
tp1051
Rp1052
ag4
(g8
S'h\xcdd\xba\x890\xfa?'
p1053
tp1054
Rp1055
ag4
(g8
S'@\x03\x18k?!\r@'
p1056
tp1057
Rp1058
ag4
(g8
S'h7\x1b\x11K\x9a\x11@'
p1059
tp1060
Rp1061
ag4
(g8
S'\xb7\xf6\xd0\x80\x84\xb8"@'
p1062
tp1063
Rp1064
ag4
(g8
S'\x8b\x1a\xef>~\xcf\x05@'
p1065
tp1066
Rp1067
ag4
(g8
S'\x176\xa4\x84\x1f+\x00@'
p1068
tp1069
Rp1070
ag4
(g8
S'.\x97\xf4*M\xe4\x12@'
p1071
tp1072
Rp1073
ag4
(g8
S'\xdb\xa5\xb1\xe0\x8ea\xe7?'
p1074
tp1075
Rp1076
ag4
(g8
S'\xf5\xbe\x9f\xaf\x1bL\t@'
p1077
tp1078
Rp1079
ag4
(g8
S'!h\x02\xdc\xba\x10\xea?'
p1080
tp1081
Rp1082
ag4
(g8
S'\xd4/\xca\x9d\x1aw\x03@'
p1083
tp1084
Rp1085
ag4
(g8
S'\x84\xe5L\xf9\x81\xb3\x03@'
p1086
tp1087
Rp1088
ag4
(g8
S'UHv\x96\xb1R\xf2?'
p1089
tp1090
Rp1091
as(g1
g19
tp1092
(lp1093
g4
(g8
S'I\x01\x988\\\xc2\x04@'
p1094
tp1095
Rp1096
ag4
(g8
S'E\xf2\xdeC\xf2-\xf7?'
p1097
tp1098
Rp1099
ag4
(g8
S'\xc8\xedEE\xa0\x0b\x11@'
p1100
tp1101
Rp1102
ag4
(g8
S'\xf1\xb4(a\xe7#\xe7?'
p1103
tp1104
Rp1105
ag4
(g8
S'\xf8\xe7\xa1\xaa\xa2a\x19@'
p1106
tp1107
Rp1108
ag4
(g8
S'z\x19\xbf\xa4\r\xdb\xed?'
p1109
tp1110
Rp1111
ag4
(g8
S'\xb7\xf6\xd0\x80\x84\xb8"@'
p1112
tp1113
Rp1114
ag4
(g8
S'\x8b\x1a\xef>~\xcf\x05@'
p1115
tp1116
Rp1117
ag4
(g8
S'\xf5\xbe\x9f\xaf\x1bL\t@'
p1118
tp1119
Rp1120
as(g1
g24
tp1121
(lp1122
g4
(g8
S'|j\x03sB\xcf\x18@'
p1123
tp1124
Rp1125
ag4
(g8
S' \xdbu_\\\x84\xfd?'
p1126
tp1127
Rp1128
ag4
(g8
S'\xb3\xe1\xd6\xb7>*\xfe?'
p1129
tp1130
Rp1131
ag4
(g8
S'|\xfb\xa8\xbe\x9f\xd3\x01@'
p1132
tp1133
Rp1134
ag4
(g8
S'\xad!?MK\x98\xe3?'
p1135
tp1136
Rp1137
ag4
(g8
S'\x10\xe7\x1d*\xda\xd6\x00@'
p1138
tp1139
Rp1140
ag4
(g8
S'!\xbaO_\xb0\x15\xf4?'
p1141
tp1142
Rp1143
ag4
(g8
S'\x02\x92z* \xed\xf4?'
p1144
tp1145
Rp1146
ag4
(g8
S'\xf1\xa1\x98\xa5X\xee\x0c@'
p1147
tp1148
Rp1149
ag4
(g8
S'h\xcdd\xba\x890\xfa?'
p1150
tp1151
Rp1152
ag4
(g8
S'h7\x1b\x11K\x9a\x11@'
p1153
tp1154
Rp1155
ag4
(g8
S'\xee\xfc\x90\xa7\xf8k\xf2?'
p1156
tp1157
Rp1158
ag4
(g8
S'\x95\xb6\xd7\xfb\xf4E\xec?'
p1159
tp1160
Rp1161
ag4
(g8
S'UHv\x96\xb1R\xf2?'
p1162
tp1163
Rp1164
as(g1
g29
tp1165
(lp1166
g4
(g8
S't\xf8O%\xde\xe4\xfb?'
p1167
tp1168
Rp1169
ag4
(g8
S'\x8b\xb0%\xcb\xa4=\xf8?'
p1170
tp1171
Rp1172
ag4
(g8
S'/\xbc\xb3i\xf9\xcb\x01@'
p1173
tp1174
Rp1175
ag4
(g8
S'~\xb7i.\x92\x1d\xe3?'
p1176
tp1177
Rp1178
ag4
(g8
S'\xc7,(Xw\x1e\x00@'
p1179
tp1180
Rp1181
ag4
(g8
S'@\x03\x18k?!\r@'
p1182
tp1183
Rp1184
ag4
(g8
S'.\x97\xf4*M\xe4\x12@'
p1185
tp1186
Rp1187
as(g1
g34
tp1188
(lp1189
g4
(g8
S'I\x01\x988\\\xc2\x04@'
p1190
tp1191
Rp1192
ag4
(g8
S't\xf8O%\xde\xe4\xfb?'
p1193
tp1194
Rp1195
ag4
(g8
S'E\xf2\xdeC\xf2-\xf7?'
p1196
tp1197
Rp1198
ag4
(g8
S'\x8b\xb0%\xcb\xa4=\xf8?'
p1199
tp1200
Rp1201
ag4
(g8
S'\xc8\xedEE\xa0\x0b\x11@'
p1202
tp1203
Rp1204
ag4
(g8
S'\xf1\xb4(a\xe7#\xe7?'
p1205
tp1206
Rp1207
ag4
(g8
S'\xb4%\x8d\xaa\x91A\xfe?'
p1208
tp1209
Rp1210
ag4
(g8
S'\xdb\x83Ju\x8eB\xfc?'
p1211
tp1212
Rp1213
ag4
(g8
S'|\xfb\xa8\xbe\x9f\xd3\x01@'
p1214
tp1215
Rp1216
ag4
(g8
S'~\xb7i.\x92\x1d\xe3?'
p1217
tp1218
Rp1219
ag4
(g8
S'\xf31U\x96V\x04\x00@'
p1220
tp1221
Rp1222
ag4
(g8
S'z\x19\xbf\xa4\r\xdb\xed?'
p1223
tp1224
Rp1225
ag4
(g8
S'@\x03\x18k?!\r@'
p1226
tp1227
Rp1228
ag4
(g8
S'\xb7\xf6\xd0\x80\x84\xb8"@'
p1229
tp1230
Rp1231
ag4
(g8
S'\x8b\x1a\xef>~\xcf\x05@'
p1232
tp1233
Rp1234
ag4
(g8
S'.\x97\xf4*M\xe4\x12@'
p1235
tp1236
Rp1237
ag4
(g8
S'\xf5\xbe\x9f\xaf\x1bL\t@'
p1238
tp1239
Rp1240
ag4
(g8
S'{\x85\xef\xfc+j\x10@'
p1241
tp1242
Rp1243
astp1244
.