((dp0
(S'02310947'
p1
S'summer'
p2
tp3
cnumpy.core.multiarray
scalar
p4
(cnumpy
dtype
p5
(S'f8'
p6
I0
I1
tp7
Rp8
(I3
S'<'
p9
NNNI-1
I-1
I0
tp10
bS'.\x87 Va\xa6\xb7?'
p11
tp12
Rp13
s(g1
S'winter'
p14
tp15
g4
(g8
S'\xb6\x1e\xf7(tE\xab?'
p16
tp17
Rp18
s(g1
S'annual'
p19
tp20
g4
(g8
S'vJ5?J\xd5\xac?'
p21
tp22
Rp23
s(g1
S'fall'
p24
tp25
g4
(g8
S'~qLmQe\xb3?'
p26
tp27
Rp28
s(g1
S'spring'
p29
tp30
g4
(g8
S'\xe3O\xf8)M\x1f\xb0?'
p31
tp32
Rp33
s(g1
S'wet'
p34
tp35
g4
(g8
S'\x19\xb2+\x84p\xd4\xa8?'
p36
tp37
Rp38
s(dp39
(g1
g2
tp40
g4
(g8
S'\x050?8k\xb7\xea?'
p41
tp42
Rp43
s(g1
g14
tp44
g4
(g8
S'!\xce\xd8\xdc\xb2"\xed?'
p45
tp46
Rp47
s(g1
g19
tp48
g4
(g8
S'\x0c4\xea\xe3\x80\xab\xeb?'
p49
tp50
Rp51
s(g1
g24
tp52
g4
(g8
S'\xd0\xc4s\xdf/\xf4\xec?'
p53
tp54
Rp55
s(g1
g29
tp56
g4
(g8
S'\x003{\xef\xa7l\xeb?'
p57
tp58
Rp59
s(g1
g34
tp60
g4
(g8
S'\xc6F\\\xd4\xb1T\xec?'
p61
tp62
Rp63
s(dp64
(g1
g2
tp65
(lp66
cpandas.tslib
Timestamp
p67
(L328665600000000000L
NNtp68
Rp69
ag67
(L329184000000000000L
NNtp70
Rp71
ag67
(L331430400000000000L
NNtp72
Rp73
ag67
(L331516800000000000L
NNtp74
Rp75
ag67
(L331862400000000000L
NNtp76
Rp77
ag67
(L332467200000000000L
NNtp78
Rp79
ag67
(L332553600000000000L
NNtp80
Rp81
ag67
(L333676800000000000L
NNtp82
Rp83
ag67
(L334022400000000000L
NNtp84
Rp85
ag67
(L334368000000000000L
NNtp86
Rp87
ag67
(L334540800000000000L
NNtp88
Rp89
ag67
(L335664000000000000L
NNtp90
Rp91
ag67
(L336096000000000000L
NNtp92
Rp93
ag67
(L360806400000000000L
NNtp94
Rp95
ag67
(L361324800000000000L
NNtp96
Rp97
ag67
(L361584000000000000L
NNtp98
Rp99
ag67
(L362102400000000000L
NNtp100
Rp101
ag67
(L363052800000000000L
NNtp102
Rp103
ag67
(L363139200000000000L
NNtp104
Rp105
ag67
(L363225600000000000L
NNtp106
Rp107
ag67
(L363398400000000000L
NNtp108
Rp109
ag67
(L363484800000000000L
NNtp110
Rp111
ag67
(L365126400000000000L
NNtp112
Rp113
as(g1
g14
tp114
(lp115
g67
(L315532800000000000L
NNtp116
Rp117
ag67
(L315878400000000000L
NNtp118
Rp119
ag67
(L317001600000000000L
NNtp120
Rp121
ag67
(L317692800000000000L
NNtp122
Rp123
ag67
(L318643200000000000L
NNtp124
Rp125
ag67
(L318988800000000000L
NNtp126
Rp127
ag67
(L319420800000000000L
NNtp128
Rp129
ag67
(L319766400000000000L
NNtp130
Rp131
as(g1
g19
tp132
(lp133
g67
(L315532800000000000L
NNtp134
Rp135
ag67
(L315792000000000000L
NNtp136
Rp137
ag67
(L316137600000000000L
NNtp138
Rp139
ag67
(L316483200000000000L
NNtp140
Rp141
ag67
(L317260800000000000L
NNtp142
Rp143
ag67
(L319161600000000000L
NNtp144
Rp145
ag67
(L319334400000000000L
NNtp146
Rp147
ag67
(L319939200000000000L
NNtp148
Rp149
ag67
(L320025600000000000L
NNtp150
Rp151
ag67
(L320889600000000000L
NNtp152
Rp153
ag67
(L321235200000000000L
NNtp154
Rp155
ag67
(L322099200000000000L
NNtp156
Rp157
ag67
(L322444800000000000L
NNtp158
Rp159
ag67
(L323222400000000000L
NNtp160
Rp161
ag67
(L323308800000000000L
NNtp162
Rp163
ag67
(L323827200000000000L
NNtp164
Rp165
ag67
(L324518400000000000L
NNtp166
Rp167
ag67
(L324864000000000000L
NNtp168
Rp169
ag67
(L324950400000000000L
NNtp170
Rp171
ag67
(L325296000000000000L
NNtp172
Rp173
ag67
(L325555200000000000L
NNtp174
Rp175
ag67
(L325728000000000000L
NNtp176
Rp177
ag67
(L326851200000000000L
NNtp178
Rp179
ag67
(L326937600000000000L
NNtp180
Rp181
ag67
(L328060800000000000L
NNtp182
Rp183
ag67
(L329270400000000000L
NNtp184
Rp185
ag67
(L329356800000000000L
NNtp186
Rp187
ag67
(L330220800000000000L
NNtp188
Rp189
ag67
(L330739200000000000L
NNtp190
Rp191
ag67
(L331603200000000000L
NNtp192
Rp193
ag67
(L334368000000000000L
NNtp194
Rp195
ag67
(L334540800000000000L
NNtp196
Rp197
ag67
(L335491200000000000L
NNtp198
Rp199
ag67
(L337651200000000000L
NNtp200
Rp201
ag67
(L337737600000000000L
NNtp202
Rp203
ag67
(L337910400000000000L
NNtp204
Rp205
ag67
(L339638400000000000L
NNtp206
Rp207
ag67
(L340329600000000000L
NNtp208
Rp209
as(g1
g24
tp210
(lp211
g67
(L336787200000000000L
NNtp212
Rp213
ag67
(L337651200000000000L
NNtp214
Rp215
ag67
(L337910400000000000L
NNtp216
Rp217
ag67
(L338083200000000000L
NNtp218
Rp219
ag67
(L338256000000000000L
NNtp220
Rp221
ag67
(L338601600000000000L
NNtp222
Rp223
ag67
(L339033600000000000L
NNtp224
Rp225
ag67
(L339465600000000000L
NNtp226
Rp227
ag67
(L339638400000000000L
NNtp228
Rp229
ag67
(L339811200000000000L
NNtp230
Rp231
ag67
(L339897600000000000L
NNtp232
Rp233
ag67
(L339984000000000000L
NNtp234
Rp235
ag67
(L341193600000000000L
NNtp236
Rp237
ag67
(L341452800000000000L
NNtp238
Rp239
ag67
(L341539200000000000L
NNtp240
Rp241
ag67
(L343785600000000000L
NNtp242
Rp243
ag67
(L343958400000000000L
NNtp244
Rp245
ag67
(L344044800000000000L
NNtp246
Rp247
ag67
(L368668800000000000L
NNtp248
Rp249
as(g1
g29
tp250
(lp251
g67
(L321580800000000000L
NNtp252
Rp253
ag67
(L321667200000000000L
NNtp254
Rp255
ag67
(L321840000000000000L
NNtp256
Rp257
ag67
(L322358400000000000L
NNtp258
Rp259
ag67
(L322617600000000000L
NNtp260
Rp261
ag67
(L322963200000000000L
NNtp262
Rp263
ag67
(L323395200000000000L
NNtp264
Rp265
ag67
(L323740800000000000L
NNtp266
Rp267
as(g1
g34
tp268
(lp269
g67
(L315532800000000000L
NNtp270
Rp271
ag67
(L315878400000000000L
NNtp272
Rp273
ag67
(L316224000000000000L
NNtp274
Rp275
ag67
(L317088000000000000L
NNtp276
Rp277
ag67
(L317606400000000000L
NNtp278
Rp279
ag67
(L318384000000000000L
NNtp280
Rp281
ag67
(L319420800000000000L
NNtp282
Rp283
ag67
(L320112000000000000L
NNtp284
Rp285
ag67
(L322012800000000000L
NNtp286
Rp287
ag67
(L322531200000000000L
NNtp288
Rp289
ag67
(L323049600000000000L
NNtp290
Rp291
ag67
(L323481600000000000L
NNtp292
Rp293
ag67
(L323827200000000000L
NNtp294
Rp295
ag67
(L324000000000000000L
NNtp296
Rp297
ag67
(L325036800000000000L
NNtp298
Rp299
as(dp300
(g1
g2
tp301
g4
(g8
S'\xc4@\x81\xa8\xfb>\xee?'
p302
tp303
Rp304
s(g1
g14
tp305
g4
(g8
S'\r\xf7Y2\xc7"\xee?'
p306
tp307
Rp308
s(g1
g19
tp309
g4
(g8
S'\xa1\x18\x844\xa0\x10\xee?'
p310
tp311
Rp312
s(g1
g24
tp313
g4
(g8
S'D\x12\xc8\xb9\xbd\xcb\xed?'
p314
tp315
Rp316
s(g1
g29
tp317
g4
(g8
S'\xd8\xbe\x01\xf8E\xd2\xee?'
p318
tp319
Rp320
s(g1
g34
tp321
g4
(g8
S'\xb4\xd7\xd4\xda2\x02\xee?'
p322
tp323
Rp324
s(dp325
(g1
g2
tp326
g4
(g8
S'\x16\xe3\xec)\xe1m!@'
p327
tp328
Rp329
s(g1
g14
tp330
g4
(g8
S"\xf5\xad\x0c\x04\x81'\x12@"
p331
tp332
Rp333
s(g1
g19
tp334
g4
(g8
S'\xf0\xe3\xcf\xf0\x97`\x18@'
p335
tp336
Rp337
s(g1
g24
tp338
g4
(g8
S'\xa7\xd6\xa9\x9c\x90\\\t@'
p339
tp340
Rp341
s(g1
g29
tp342
g4
(g8
S'g\x0e\x17"\xd9\xc8+@'
p343
tp344
Rp345
s(g1
g34
tp346
g4
(g8
S'k\x1e\x85\xb8;\xdf\x14@'
p347
tp348
Rp349
s(dp350
(g1
g2
tp351
F0.04298339126606513
s(g1
g14
tp352
F0.034902561069316475
s(g1
g19
tp353
F0.03853041493571263
s(g1
g24
tp354
F0.05158844464587039
s(g1
g29
tp355
F0.02493946416009254
s(g1
g34
tp356
F0.03207046659591314
s(dp357
(g1
g2
tp358
g4
(g8
S'\x0bbr\x051\xb9\x1b@'
p359
tp360
Rp361
s(g1
g14
tp362
g4
(g8
S'\xab\xaa\xaa\xaa\xaa\xaa,@'
p363
tp364
Rp365
s(g1
g19
tp366
g4
(g8
S'\xb5xP\xe0\xea\xf13@'
p367
tp368
Rp369
s(g1
g24
tp370
g4
(g8
S'\x7f\xbf\xdf\xef\xf7\xfb1@'
p371
tp372
Rp373
s(g1
g29
tp374
g4
(g8
S'\x00\x00\x00\x00\x00\x986@'
p375
tp376
Rp377
s(g1
g34
tp378
g4
(g8
S'BN\x05\xfc\xc2\xad1@'
p379
tp380
Rp381
s(dp382
(g1
g2
tp383
g4
(g8
S'1-\x9f\xbd\xf2\xd4\xd3?'
p384
tp385
Rp386
s(g1
g14
tp387
g4
(g8
S'\x03\x84\x95h\xdf\x9b\xe8?'
p388
tp389
Rp390
s(g1
g19
tp391
g4
(g8
S'\x8dW\xd0\x07\t)\xe5?'
p392
tp393
Rp394
s(g1
g24
tp395
g4
(g8
S'\xb6\x95m\xfa\n@\xe8?'
p396
tp397
Rp398
s(g1
g29
tp399
g4
(g8
S'B\x98\xd9vZ\x8f\xe7?'
p400
tp401
Rp402
s(g1
g34
tp403
g4
(g8
S'\xff[\xabo\xa9c\xe8?'
p404
tp405
Rp406
s(dp407
(g1
g2
tp408
g4
(g8
S'\xfd\xff\xff\xff\xff\xffX@'
p409
tp410
Rp411
s(g1
g14
tp412
g4
(g8
S'\xfd\xff\xff\xff\xff\xffX@'
p413
tp414
Rp415
s(g1
g19
tp416
g4
(g8
S'\xfd\xff\xff\xff\xff\xffX@'
p417
tp418
Rp419
s(g1
g24
tp420
g4
(g8
S'\xfd\xff\xff\xff\xff\xffX@'
p421
tp422
Rp423
s(g1
g29
tp424
g4
(g8
S'\xfd\xff\xff\xff\xff\xffX@'
p425
tp426
Rp427
s(g1
g34
tp428
g4
(g8
S'\xfd\xff\xff\xff\xff\xffX@'
p429
tp430
Rp431
s(dp432
(g1
g2
tp433
g4
(g8
S'\x00\x00\x00\x00\x00\x00\xf8\xff'
p434
tp435
Rp436
s(g1
g14
tp437
g4
(g8
S'\x00\x00\x00\x00\x00\x00\xf8\xff'
p438
tp439
Rp440
s(g1
g19
tp441
g4
(g8
S'\x00\x00\x00\x00\x00\x00\xf8\xff'
p442
tp443
Rp444
s(g1
g24
tp445
g4
(g8
S'\x00\x00\x00\x00\x00\x00\xf8\xff'
p446
tp447
Rp448
s(g1
g29
tp449
g4
(g8
S'\x00\x00\x00\x00\x00\x00\xf8\xff'
p450
tp451
Rp452
s(g1
g34
tp453
g4
(g8
S'\x00\x00\x00\x00\x00\x00\xf8\xff'
p454
tp455
Rp456
s(dp457
(g1
g2
tp458
g4
(g8
S'a\x9a\xc7\xb9\x0cw$@'
p459
tp460
Rp461
s(g1
g14
tp462
g4
(g8
S'\x06\x9f\xe1\xd1\xfa\xda\t@'
p463
tp464
Rp465
s(g1
g19
tp466
g4
(g8
S'\x95\x82\x9f\xd5\xf8\x8a\x0c@'
p467
tp468
Rp469
s(g1
g24
tp470
g4
(g8
S'\x8d\\B\xe75\r\x1c@'
p471
tp472
Rp473
s(g1
g29
tp474
g4
(g8
S'*\tk\xd41\x86\n@'
p475
tp476
Rp477
s(g1
g34
tp478
g4
(g8
S'\xb8\x84?\x8b\xe5\xc1\x07@'
p479
tp480
Rp481
s(dp482
(g1
g2
tp483
g4
(g8
S'y\x07\xaa\x88\xd2\n\xf0?'
p484
tp485
Rp486
s(g1
g14
tp487
g4
(g8
S'JR(=\xaa\xa8\xc8?'
p488
tp489
Rp490
s(g1
g19
tp491
g4
(g8
S'\x1b2\xb6\xa5\x8a \xd1?'
p492
tp493
Rp494
s(g1
g24
tp495
g4
(g8
S'\xcc\x1d\x93\x8f\x8e\xf2\xd3?'
p496
tp497
Rp498
s(g1
g29
tp499
g4
(g8
S'\x85\x89 \x07\xa4\xf2\xdf?'
p500
tp501
Rp502
s(g1
g34
tp503
g4
(g8
S'\xd3\xf5"\xc9T7\xc9?'
p504
tp505
Rp506
s(dp507
(dp508
(dp509
(g1
g2
tp510
(lp511
g4
(g8
S' \x00\xf0Q\\.\xbd?'
p512
tp513
Rp514
ag4
(g8
S'\x87\x8d|Y\x17\xec{?'
p515
tp516
Rp517
ag4
(g8
S'R\x01\xde\x18Gn\x8b?'
p518
tp519
Rp520
ag4
(g8
S'24\xe2\xdc\xa7\xac\xf1?'
p521
tp522
Rp523
ag4
(g8
S'\xba{\xca\xa0\xf7\x87\x1b@'
p524
tp525
Rp526
ag4
(g8
S"\x03\xe6'-{\xb2\x96?"
p527
tp528
Rp529
ag4
(g8
S'\xc6\xa1r\x86\x0f\xc5\x10@'
p530
tp531
Rp532
ag4
(g8
S'\xe6\xf5\xca#\x86\xec\x99?'
p533
tp534
Rp535
ag4
(g8
S'\xe8\xa2{\xee\xc4\x14\xaa?'
p536
tp537
Rp538
ag4
(g8
S'\x86\x1ff\x01zM\xca?'
p539
tp540
Rp541
ag4
(g8
S'\x1f\x00\x95_:\xbc\xc6?'
p542
tp543
Rp544
ag4
(g8
S'f\x1d\xacZ2\x1al?'
p545
tp546
Rp547
ag4
(g8
S'\xfc\x9bU\x0f\x92\xdc4@'
p548
tp549
Rp550
ag4
(g8
S'+\x9d\xdc\xd7f\xfcW@'
p551
tp552
Rp553
ag4
(g8
S'\xca\x15;lm8\xda@'
p554
tp555
Rp556
ag4
(g8
S'\xe6\x94\xca\xb7U\x16\xb7?'
p557
tp558
Rp559
ag4
(g8
S'\xe6\xfeL\xce-\xb6\xea?'
p560
tp561
Rp562
as(g1
g14
tp563
(lp564
g4
(g8
S'5\xfc\xa7\x93\xafT\xaa?'
p565
tp566
Rp567
ag4
(g8
S'\x96\xce\xdfj\xcf\xacD@'
p568
tp569
Rp570
ag4
(g8
S'\x14\x06\x08\xc3o\x16 @'
p571
tp572
Rp573
as(g1
g19
tp574
(lp575
g4
(g8
S' \x00\xf0Q\\.\xbd?'
p576
tp577
Rp578
ag4
(g8
S'\x88FR\xb3\x03\x1f\xa2?'
p579
tp580
Rp581
ag4
(g8
S'\x8a\xe4]\n\xc6\xb6\xb5?'
p582
tp583
Rp584
ag4
(g8
S'\xe9\xa5\xad\x83\xd0\xd9\xdc?'
p585
tp586
Rp587
ag4
(g8
S'j\xe5\xe4\xabF5\xb3?'
p588
tp589
Rp590
ag4
(g8
S'2A\xaf\xe3eB\xb8?'
p591
tp592
Rp593
ag4
(g8
S'\x00`\xc4\x1a\x89\xe0\xbe?'
p594
tp595
Rp596
ag4
(g8
S'\xb8m6~x\xa0\xe7@'
p597
tp598
Rp599
ag4
(g8
S'tJkOwR\xc0?'
p600
tp601
Rp602
ag4
(g8
S'\x17p\xd1\xbc\xfd\xc8\xcd?'
p603
tp604
Rp605
ag4
(g8
S'\xba{\xca\xa0\xf7\x87\x1b@'
p606
tp607
Rp608
ag4
(g8
S"\x03\xe6'-{\xb2\x96?"
p609
tp610
Rp611
ag4
(g8
S'\xe6<\xf9\x9e\xa01\xc4?'
p612
tp613
Rp614
ag4
(g8
S"3\x11\xee'4\x9f\xd9?"
p615
tp616
Rp617
ag4
(g8
S'{\x16t\xd0\xdf\x97\xe9?'
p618
tp619
Rp620
ag4
(g8
S'\xffe\x19)\x89\x8b\xdf?'
p621
tp622
Rp623
ag4
(g8
S'\x01\x9d_\xf1\xc3\xf6\xc4?'
p624
tp625
Rp626
ag4
(g8
S'\xc6\xa1r\x86\x0f\xc5\x10@'
p627
tp628
Rp629
ag4
(g8
S'\xe8\xa2{\xee\xc4\x14\xaa?'
p630
tp631
Rp632
ag4
(g8
S'\x1c\x8e\x7f{\x89l\xfe?'
p633
tp634
Rp635
ag4
(g8
S'\x86\x1ff\x01zM\xca?'
p636
tp637
Rp638
ag4
(g8
S'\xcd\xc4\xc8\xc2\x0f2\xcf?'
p639
tp640
Rp641
ag4
(g8
S'z\xac\xdea\x7ft\x8b?'
p642
tp643
Rp644
ag4
(g8
S'_I\xf4G\xfb\xcf\xd2?'
p645
tp646
Rp647
ag4
(g8
S'\xfc\x9bU\x0f\x92\xdc4@'
p648
tp649
Rp650
ag4
(g8
S'\xf9@\xc57\xc4\xccg@'
p651
tp652
Rp653
ag4
(g8
S'\xe6\x94\xca\xb7U\x16\xb7?'
p654
tp655
Rp656
ag4
(g8
S'(\xe9\x0f\x85S\xdbh@'
p657
tp658
Rp659
ag4
(g8
S'\xe6\xfeL\xce-\xb6\xea?'
p660
tp661
Rp662
as(g1
g24
tp663
(lp664
g4
(g8
S'\x88FR\xb3\x03\x1f\xa2?'
p665
tp666
Rp667
ag4
(g8
S'\xe9\xa5\xad\x83\xd0\xd9\xdc?'
p668
tp669
Rp670
ag4
(g8
S'2A\xaf\xe3eB\xb8?'
p671
tp672
Rp673
ag4
(g8
S'\x00`\xc4\x1a\x89\xe0\xbe?'
p674
tp675
Rp676
ag4
(g8
S'tJkOwR\xc0?'
p677
tp678
Rp679
ag4
(g8
S'\x0c\xe7\\<\xach\xb7?'
p680
tp681
Rp682
ag4
(g8
S'H!\xe7;ks\xe5?'
p683
tp684
Rp685
ag4
(g8
S"3\x11\xee'4\x9f\xd9?"
p686
tp687
Rp688
ag4
(g8
S'{\x16t\xd0\xdf\x97\xe9?'
p689
tp690
Rp691
ag4
(g8
S'\x01\x9d_\xf1\xc3\xf6\xc4?'
p692
tp693
Rp694
ag4
(g8
S'\xcd\xc4\xc8\xc2\x0f2\xcf?'
p695
tp696
Rp697
ag4
(g8
S'z\xac\xdea\x7ft\x8b?'
p698
tp699
Rp700
ag4
(g8
S'\xd1\x05\xea\x9f\xcf\x1a\xae?'
p701
tp702
Rp703
ag4
(g8
S'(\xe9\x0f\x85S\xdbh@'
p704
tp705
Rp706
as(g1
g29
tp707
(lp708
g4
(g8
S'j\xe5\xe4\xabF5\xb3?'
p709
tp710
Rp711
ag4
(g8
S'\x9b\x08\xeb-1\x90\xf3?'
p712
tp713
Rp714
ag4
(g8
S'\xb8m6~x\xa0\xe7@'
p715
tp716
Rp717
ag4
(g8
S'\x17p\xd1\xbc\xfd\xc8\xcd?'
p718
tp719
Rp720
ag4
(g8
S'\xffe\x19)\x89\x8b\xdf?'
p721
tp722
Rp723
ag4
(g8
S'\x1c\x8e\x7f{\x89l\xfe?'
p724
tp725
Rp726
as(g1
g34
tp727
(lp728
g4
(g8
S'a\xc7\x943\x8e\xa6\x84@'
p729
tp730
Rp731
ag4
(g8
S'j\xe5\xe4\xabF5\xb3?'
p732
tp733
Rp734
ag4
(g8
S'\xb8m6~x\xa0\xe7@'
p735
tp736
Rp737
ag4
(g8
S'\x17p\xd1\xbc\xfd\xc8\xcd?'
p738
tp739
Rp740
ag4
(g8
S'\xffe\x19)\x89\x8b\xdf?'
p741
tp742
Rp743
ag4
(g8
S'{\x913\x95\x10L\xf3?'
p744
tp745
Rp746
ag4
(g8
S'\x96\x86\xfa\xd3n\xb9\xb4?'
p747
tp748
Rp749
ag4
(g8
S'\xa0\xa6H\xaf)r\xdd?'
p750
tp751
Rp752
ag4
(g8
S'<\xdd\x15k\xf7\xbf\xb1?'
p753
tp754
Rp755
ag4
(g8
S'\x04<\xec5\xf7\xa9\x10A'
p756
tp757
Rp758
as(dp759
(g1
g2
tp760
(lp761
g4
(g8
S'\xca\xe4\x12tt\x9e\xec?'
p762
tp763
Rp764
ag4
(g8
S'\xac\xac50R\x7f\xd0?'
p765
tp766
Rp767
ag4
(g8
S'Bq\xa1\xcbT4\xe0?'
p768
tp769
Rp770
ag4
(g8
S'\x0e\xde\x95\xe8I\xa6\xf6?'
p771
tp772
Rp773
ag4
(g8
S'\xb2"\x94\x9c`\x02\x02@'
p774
tp775
Rp776
ag4
(g8
S')o\xfa\x96\x92\xf1\xd8?'
p777
tp778
Rp779
ag4
(g8
S'\x1c\xd4p\xfd\x15\xa5\xff?'
p780
tp781
Rp782
ag4
(g8
S'\x1f\n\x0e\xc6V\x0e\xd3?'
p783
tp784
Rp785
ag4
(g8
S'\xdf\xa4\x1e\xf2 \xea\xe2?'
p786
tp787
Rp788
ag4
(g8
S'\x95\xb5OS\xe1"\xf2?'
p789
tp790
Rp791
ag4
(g8
S'\xc1\xe9F\xd8j\x81\xef?'
p792
tp793
Rp794
ag4
(g8
S'\xe8:\x8b=\x86\x82\xd0?'
p795
tp796
Rp797
ag4
(g8
S'\xe1\xca\xb8\xfd\x1f$\x04@'
p798
tp799
Rp800
ag4
(g8
S"\n'\x13/Wm\n@"
p801
tp802
Rp803
ag4
(g8
S'\x11Y\xc2=|\xb2\x10@'
p804
tp805
Rp806
ag4
(g8
S'x\x18&\xd7Z:\xe5?'
p807
tp808
Rp809
ag4
(g8
S'L\x92\x1490\xf0\xfc?'
p810
tp811
Rp812
as(g1
g14
tp813
(lp814
g4
(g8
S'p\x11I\x04\x00]\xe1?'
p815
tp816
Rp817
ag4
(g8
S'\x94\x1d\xb2\xf1p\x91\n@'
p818
tp819
Rp820
ag4
(g8
S'_\x91\x96*\xc9\x1a\x02@'
p821
tp822
Rp823
as(g1
g19
tp824
(lp825
g4
(g8
S'\xca\xe4\x12tt\x9e\xec?'
p826
tp827
Rp828
ag4
(g8
S'\xcc\xe9_\xdfC^\xe1?'
p829
tp830
Rp831
ag4
(g8
S'\x9f\x95\xadp\x15\xf8\xea?'
p832
tp833
Rp834
ag4
(g8
S'\xaa\x00"=\x12\xb8\xf5?'
p835
tp836
Rp837
ag4
(g8
S'\x1e\x1bD\x1e?w\xe8?'
p838
tp839
Rp840
ag4
(g8
S'\x9e\xd4\xec=\xbb\xf4\xee?'
p841
tp842
Rp843
ag4
(g8
S'\xb5Bz\x1f_$\xf0?'
p844
tp845
Rp846
ag4
(g8
S'[6\xef\xb5\x01\x17\x14@'
p847
tp848
Rp849
ag4
(g8
S'"\x00\xa3\xab\x08\xf1\xf0?'
p850
tp851
Rp852
ag4
(g8
S'1\x01\x03\xe1|4\xf6?'
p853
tp854
Rp855
ag4
(g8
S'\xb2"\x94\x9c`\x02\x02@'
p856
tp857
Rp858
ag4
(g8
S')o\xfa\x96\x92\xf1\xd8?'
p859
tp860
Rp861
ag4
(g8
S'T\xd0X\xd6\x0e\xde\xf0?'
p862
tp863
Rp864
ag4
(g8
S'\xd9\x9f\x0b\xde\xaa\xe3\xf2?'
p865
tp866
Rp867
ag4
(g8
S'k\xef.\xdf\x82q\xfd?'
p868
tp869
Rp870
ag4
(g8
S'\x84\x8a\xf3VEK\xfb?'
p871
tp872
Rp873
ag4
(g8
S'\t!\x8e\xd9B\x17\xee?'
p874
tp875
Rp876
ag4
(g8
S'\x1c\xd4p\xfd\x15\xa5\xff?'
p877
tp878
Rp879
ag4
(g8
S'\xdf\xa4\x1e\xf2 \xea\xe2?'
p880
tp881
Rp882
ag4
(g8
S'3\xbae\x80X\xd1\xfe?'
p883
tp884
Rp885
ag4
(g8
S'\x95\xb5OS\xe1"\xf2?'
p886
tp887
Rp888
ag4
(g8
S'\xa6\xf7\xb1\xf3\xb5L\xf0?'
p889
tp890
Rp891
ag4
(g8
S'\x95\xfd\x85\x9a\xcd\x02\xd6?'
p892
tp893
Rp894
ag4
(g8
S'\xb9\xcd\xfex\x15\xeb\xf2?'
p895
tp896
Rp897
ag4
(g8
S'\xe1\xca\xb8\xfd\x1f$\x04@'
p898
tp899
Rp900
ag4
(g8
S'%\x07lRYM\x0c@'
p901
tp902
Rp903
ag4
(g8
S'x\x18&\xd7Z:\xe5?'
p904
tp905
Rp906
ag4
(g8
S'\xb5\\!}T\xf8\x0c@'
p907
tp908
Rp909
ag4
(g8
S'L\x92\x1490\xf0\xfc?'
p910
tp911
Rp912
as(g1
g24
tp913
(lp914
g4
(g8
S'\xcc\xe9_\xdfC^\xe1?'
p915
tp916
Rp917
ag4
(g8
S'\xaa\x00"=\x12\xb8\xf5?'
p918
tp919
Rp920
ag4
(g8
S'\x9e\xd4\xec=\xbb\xf4\xee?'
p921
tp922
Rp923
ag4
(g8
S'\xb5Bz\x1f_$\xf0?'
p924
tp925
Rp926
ag4
(g8
S'"\x00\xa3\xab\x08\xf1\xf0?'
p927
tp928
Rp929
ag4
(g8
S'7\x8c\xaeU\xc6\\\xea?'
p930
tp931
Rp932
ag4
(g8
S'w_}\xbdm\xe5\xf6?'
p933
tp934
Rp935
ag4
(g8
S'\xd9\x9f\x0b\xde\xaa\xe3\xf2?'
p936
tp937
Rp938
ag4
(g8
S'k\xef.\xdf\x82q\xfd?'
p939
tp940
Rp941
ag4
(g8
S'\t!\x8e\xd9B\x17\xee?'
p942
tp943
Rp944
ag4
(g8
S'\xa6\xf7\xb1\xf3\xb5L\xf0?'
p945
tp946
Rp947
ag4
(g8
S'\x95\xfd\x85\x9a\xcd\x02\xd6?'
p948
tp949
Rp950
ag4
(g8
S'\x1a9\xf8\x1e\x1c\xbc\xe1?'
p951
tp952
Rp953
ag4
(g8
S'\xb5\\!}T\xf8\x0c@'
p954
tp955
Rp956
as(g1
g29
tp957
(lp958
g4
(g8
S'\x1e\x1bD\x1e?w\xe8?'
p959
tp960
Rp961
ag4
(g8
S'\x8c&\xd3*"\xec\xfc?'
p962
tp963
Rp964
ag4
(g8
S'[6\xef\xb5\x01\x17\x14@'
p965
tp966
Rp967
ag4
(g8
S'1\x01\x03\xe1|4\xf6?'
p968
tp969
Rp970
ag4
(g8
S'\x84\x8a\xf3VEK\xfb?'
p971
tp972
Rp973
ag4
(g8
S'3\xbae\x80X\xd1\xfe?'
p974
tp975
Rp976
as(g1
g34
tp977
(lp978
g4
(g8
S'\xc3\x0fh;\xad\x16\r@'
p979
tp980
Rp981
ag4
(g8
S'\x1e\x1bD\x1e?w\xe8?'
p982
tp983
Rp984
ag4
(g8
S'[6\xef\xb5\x01\x17\x14@'
p985
tp986
Rp987
ag4
(g8
S'1\x01\x03\xe1|4\xf6?'
p988
tp989
Rp990
ag4
(g8
S'\x84\x8a\xf3VEK\xfb?'
p991
tp992
Rp993
ag4
(g8
S'\xbbL\x88\xee\xc7\xc6\x00@'
p994
tp995
Rp996
ag4
(g8
S'<8\x95\xde\xac\x9d\xf2?'
p997
tp998
Rp999
ag4
(g8
S'\xf1\xaf\x9e\xa3\xdc\xba\xfb?'
p1000
tp1001
Rp1002
ag4
(g8
S'n\x9e#\xb0\xa9\xde\xeb?'
p1003
tp1004
Rp1005
ag4
(g8
S'\xb2\xf8\xb1\xf5\xe9\xb8\x12@'
p1006
tp1007
Rp1008
astp1009
.