((dp0
(S'02314500'
p1
S'wet'
p2
tp3
cnumpy.core.multiarray
scalar
p4
(cnumpy
dtype
p5
(S'f8'
p6
I0
I1
tp7
Rp8
(I3
S'<'
p9
NNNI-1
I-1
I0
tp10
bS'\xcb\xe5f\\\x0f\xff\x9a?'
p11
tp12
Rp13
s(g1
S'summer'
p14
tp15
g4
(g8
S'*Q\x9f\xf7\x0f\xec\xa4?'
p16
tp17
Rp18
s(g1
S'annual'
p19
tp20
g4
(g8
S'6D\xe0t\xbe\xe8\x9b?'
p21
tp22
Rp23
s(g1
S'spring'
p24
tp25
g4
(g8
S'/\xeb\xca~(\xe6\x9b?'
p26
tp27
Rp28
s(g1
S'winter'
p29
tp30
g4
(g8
S'\xde:\x91m\x87\xfb\xad?'
p31
tp32
Rp33
s(g1
S'fall'
p34
tp35
g4
(g8
S'\x05\xd8?1\xa8\x93\xa5?'
p36
tp37
Rp38
s(dp39
(g1
g2
tp40
g4
(g8
S'\x8b}\xb1\xa7\\\xd8\xeb?'
p41
tp42
Rp43
s(g1
g14
tp44
g4
(g8
S'\xad\xc6\xfa\x88\xf6\xaf\xe9?'
p45
tp46
Rp47
s(g1
g19
tp48
g4
(g8
S'\x96\x1e\xc4\xc30a\xea?'
p49
tp50
Rp51
s(g1
g24
tp52
g4
(g8
S'z\xf9\x07BW\xf2\xe9?'
p53
tp54
Rp55
s(g1
g29
tp56
g4
(g8
S'\x95\x98m\x99\xb0q\xf0?'
p57
tp58
Rp59
s(g1
g34
tp60
g4
(g8
S'\xd8\xa8\xe8y\xcfh\xed?'
p61
tp62
Rp63
s(dp64
(g1
g2
tp65
(lp66
cpandas.tslib
Timestamp
p67
(L316310400000000000L
NNtp68
Rp69
ag67
(L317606400000000000L
NNtp70
Rp71
ag67
(L317692800000000000L
NNtp72
Rp73
ag67
(L317952000000000000L
NNtp74
Rp75
ag67
(L318124800000000000L
NNtp76
Rp77
ag67
(L318470400000000000L
NNtp78
Rp79
ag67
(L318556800000000000L
NNtp80
Rp81
ag67
(L319248000000000000L
NNtp82
Rp83
ag67
(L319420800000000000L
NNtp84
Rp85
ag67
(L319507200000000000L
NNtp86
Rp87
ag67
(L319593600000000000L
NNtp88
Rp89
ag67
(L319680000000000000L
NNtp90
Rp91
ag67
(L320544000000000000L
NNtp92
Rp93
ag67
(L321062400000000000L
NNtp94
Rp95
ag67
(L321321600000000000L
NNtp96
Rp97
ag67
(L322272000000000000L
NNtp98
Rp99
ag67
(L323395200000000000L
NNtp100
Rp101
ag67
(L324345600000000000L
NNtp102
Rp103
ag67
(L324518400000000000L
NNtp104
Rp105
ag67
(L341884800000000000L
NNtp106
Rp107
ag67
(L341971200000000000L
NNtp108
Rp109
ag67
(L342057600000000000L
NNtp110
Rp111
ag67
(L342748800000000000L
NNtp112
Rp113
ag67
(L343008000000000000L
NNtp114
Rp115
ag67
(L343180800000000000L
NNtp116
Rp117
as(g1
g14
tp118
(lp119
g67
(L329184000000000000L
NNtp120
Rp121
ag67
(L329702400000000000L
NNtp122
Rp123
ag67
(L331084800000000000L
NNtp124
Rp125
ag67
(L331171200000000000L
NNtp126
Rp127
ag67
(L331430400000000000L
NNtp128
Rp129
ag67
(L331516800000000000L
NNtp130
Rp131
ag67
(L333331200000000000L
NNtp132
Rp133
ag67
(L333849600000000000L
NNtp134
Rp135
ag67
(L334281600000000000L
NNtp136
Rp137
ag67
(L334627200000000000L
NNtp138
Rp139
ag67
(L334800000000000000L
NNtp140
Rp141
ag67
(L336009600000000000L
NNtp142
Rp143
ag67
(L360374400000000000L
NNtp144
Rp145
ag67
(L360633600000000000L
NNtp146
Rp147
ag67
(L361065600000000000L
NNtp148
Rp149
ag67
(L361238400000000000L
NNtp150
Rp151
ag67
(L361411200000000000L
NNtp152
Rp153
ag67
(L361497600000000000L
NNtp154
Rp155
ag67
(L361584000000000000L
NNtp156
Rp157
ag67
(L361670400000000000L
NNtp158
Rp159
ag67
(L361756800000000000L
NNtp160
Rp161
ag67
(L362620800000000000L
NNtp162
Rp163
ag67
(L363052800000000000L
NNtp164
Rp165
ag67
(L364089600000000000L
NNtp166
Rp167
as(g1
g19
tp168
(lp169
g67
(L316915200000000000L
NNtp170
Rp171
ag67
(L317001600000000000L
NNtp172
Rp173
ag67
(L317692800000000000L
NNtp174
Rp175
ag67
(L318211200000000000L
NNtp176
Rp177
ag67
(L318643200000000000L
NNtp178
Rp179
ag67
(L319680000000000000L
NNtp180
Rp181
ag67
(L319766400000000000L
NNtp182
Rp183
ag67
(L320025600000000000L
NNtp184
Rp185
ag67
(L320371200000000000L
NNtp186
Rp187
ag67
(L320803200000000000L
NNtp188
Rp189
ag67
(L320889600000000000L
NNtp190
Rp191
ag67
(L321235200000000000L
NNtp192
Rp193
ag67
(L321321600000000000L
NNtp194
Rp195
ag67
(L322012800000000000L
NNtp196
Rp197
ag67
(L322185600000000000L
NNtp198
Rp199
ag67
(L322272000000000000L
NNtp200
Rp201
ag67
(L322444800000000000L
NNtp202
Rp203
ag67
(L322617600000000000L
NNtp204
Rp205
ag67
(L322704000000000000L
NNtp206
Rp207
ag67
(L322790400000000000L
NNtp208
Rp209
ag67
(L322876800000000000L
NNtp210
Rp211
ag67
(L322963200000000000L
NNtp212
Rp213
ag67
(L325814400000000000L
NNtp214
Rp215
ag67
(L325987200000000000L
NNtp216
Rp217
ag67
(L326160000000000000L
NNtp218
Rp219
ag67
(L326764800000000000L
NNtp220
Rp221
ag67
(L329097600000000000L
NNtp222
Rp223
ag67
(L329270400000000000L
NNtp224
Rp225
ag67
(L330048000000000000L
NNtp226
Rp227
ag67
(L330480000000000000L
NNtp228
Rp229
ag67
(L331689600000000000L
NNtp230
Rp231
ag67
(L333072000000000000L
NNtp232
Rp233
ag67
(L333244800000000000L
NNtp234
Rp235
ag67
(L334368000000000000L
NNtp236
Rp237
ag67
(L335232000000000000L
NNtp238
Rp239
ag67
(L335404800000000000L
NNtp240
Rp241
ag67
(L335923200000000000L
NNtp242
Rp243
ag67
(L336182400000000000L
NNtp244
Rp245
ag67
(L336268800000000000L
NNtp246
Rp247
ag67
(L336528000000000000L
NNtp248
Rp249
ag67
(L337824000000000000L
NNtp250
Rp251
ag67
(L338083200000000000L
NNtp252
Rp253
ag67
(L338428800000000000L
NNtp254
Rp255
ag67
(L338688000000000000L
NNtp256
Rp257
ag67
(L338947200000000000L
NNtp258
Rp259
ag67
(L340502400000000000L
NNtp260
Rp261
as(g1
g24
tp262
(lp263
g67
(L322444800000000000L
NNtp264
Rp265
ag67
(L322531200000000000L
NNtp266
Rp267
ag67
(L322963200000000000L
NNtp268
Rp269
ag67
(L323049600000000000L
NNtp270
Rp271
ag67
(L324000000000000000L
NNtp272
Rp273
ag67
(L325123200000000000L
NNtp274
Rp275
ag67
(L326937600000000000L
NNtp276
Rp277
ag67
(L327196800000000000L
NNtp278
Rp279
as(g1
g29
tp280
(lp281
g67
(L315705600000000000L
NNtp282
Rp283
ag67
(L315878400000000000L
NNtp284
Rp285
ag67
(L316310400000000000L
NNtp286
Rp287
ag67
(L316483200000000000L
NNtp288
Rp289
ag67
(L317260800000000000L
NNtp290
Rp291
ag67
(L317433600000000000L
NNtp292
Rp293
ag67
(L317520000000000000L
NNtp294
Rp295
ag67
(L319766400000000000L
NNtp296
Rp297
ag67
(L319852800000000000L
NNtp298
Rp299
ag67
(L320284800000000000L
NNtp300
Rp301
ag67
(L344736000000000000L
NNtp302
Rp303
as(g1
g34
tp304
(lp305
g67
(L336873600000000000L
NNtp306
Rp307
ag67
(L337132800000000000L
NNtp308
Rp309
ag67
(L337219200000000000L
NNtp310
Rp311
ag67
(L337392000000000000L
NNtp312
Rp313
ag67
(L337737600000000000L
NNtp314
Rp315
ag67
(L337910400000000000L
NNtp316
Rp317
ag67
(L338083200000000000L
NNtp318
Rp319
ag67
(L338428800000000000L
NNtp320
Rp321
ag67
(L338688000000000000L
NNtp322
Rp323
ag67
(L338774400000000000L
NNtp324
Rp325
ag67
(L338947200000000000L
NNtp326
Rp327
ag67
(L339552000000000000L
NNtp328
Rp329
ag67
(L339897600000000000L
NNtp330
Rp331
ag67
(L341280000000000000L
NNtp332
Rp333
ag67
(L341539200000000000L
NNtp334
Rp335
ag67
(L342144000000000000L
NNtp336
Rp337
as(dp338
(g1
g2
tp339
g4
(g8
S'&\xb6Jzq\xa1\xf2?'
p340
tp341
Rp342
s(g1
g14
tp343
g4
(g8
S'\x06\xfd\xc7\x90\x08\xbc\xef?'
p344
tp345
Rp346
s(g1
g19
tp347
g4
(g8
S'(.\xfe5\xbe\xa1\xf0?'
p348
tp349
Rp350
s(g1
g24
tp351
g4
(g8
S'\\\x0f\x065XK\xf1?'
p352
tp353
Rp354
s(g1
g29
tp355
g4
(g8
S'\xa2\x97\x8a\xf3n\xfb\xf2?'
p356
tp357
Rp358
s(g1
g34
tp359
g4
(g8
S'\n\x8a\x8d.\xfdH\xf4?'
p360
tp361
Rp362
s(dp363
(g1
g2
tp364
g4
(g8
S'#HI\x9e\r\x16\x03@'
p365
tp366
Rp367
s(g1
g14
tp368
g4
(g8
S'\n\xa9t"\x82#\xff?'
p369
tp370
Rp371
s(g1
g19
tp372
g4
(g8
S'\xc0\x19a\xe3\xfd\xcd\x00@'
p373
tp374
Rp375
s(g1
g24
tp376
g4
(g8
S'\xf4B\x13\x86Q\xef\xfe?'
p377
tp378
Rp379
s(g1
g29
tp380
g4
(g8
S'\xb3;\xef#\x8f\xe2\x03@'
p381
tp382
Rp383
s(g1
g34
tp384
g4
(g8
S'\x1bN\x17\xc3\xef\x92\x06@'
p385
tp386
Rp387
s(dp388
(g1
g2
tp389
F0.07973652977674393
s(g1
g14
tp390
F0.03676286713535837
s(g1
g19
tp391
F0.0594096387009927
s(g1
g24
tp392
F0.09584616959730426
s(g1
g29
tp393
F0.06624104848520278
s(g1
g34
tp394
F0.03835596557365923
s(dp395
(g1
g2
tp396
g4
(g8
S'\x8a~\x12k^\xa9(@'
p397
tp398
Rp399
s(g1
g14
tp400
g4
(g8
S'\xf2\xc8#\x8f<\xf2!@'
p401
tp402
Rp403
s(g1
g19
tp404
g4
(g8
S'C\xae\xfc\xc7n\xad0@'
p405
tp406
Rp407
s(g1
g24
tp408
g4
(g8
S'^v\xd9e\x97]8@'
p409
tp410
Rp411
s(g1
g29
tp412
g4
(g8
S'SO\xc6o\x97z"@'
p413
tp414
Rp415
s(g1
g34
tp416
g4
(g8
S'9/\x8b\xf8\x04R1@'
p417
tp418
Rp419
s(dp420
(g1
g2
tp421
g4
(g8
S'\x0b\xe0\xde\x18"2\xf4?'
p422
tp423
Rp424
s(g1
g14
tp425
g4
(g8
S'K\x8fC\x07\xd9:\xd4?'
p426
tp427
Rp428
s(g1
g19
tp429
g4
(g8
S':\xd5\x07m:9\xe9?'
p430
tp431
Rp432
s(g1
g24
tp433
g4
(g8
S'\xbb\x1fC_\x02\xb7\x01@'
p434
tp435
Rp436
s(g1
g29
tp437
g4
(g8
S'\x88\xe8\x01&W\xb5\xe6?'
p438
tp439
Rp440
s(g1
g34
tp441
g4
(g8
S'\xd4h%\xca\xba\xb0\xe5?'
p442
tp443
Rp444
s(dp445
(g1
g2
tp446
g4
(g8
S'6\x97%`\x96\xc2\x10@'
p447
tp448
Rp449
s(g1
g14
tp450
g4
(g8
S'\xfd\xff\xff\xff\xff\xffX@'
p451
tp452
Rp453
s(g1
g19
tp454
g4
(g8
S'\xfd\xff\xff\xff\xff\xffX@'
p455
tp456
Rp457
s(g1
g24
tp458
g4
(g8
S'\xc0\x9e\x827\\\x02\x13@'
p459
tp460
Rp461
s(g1
g29
tp462
g4
(g8
S'\x85\x8f>\x80G\xcb\x10@'
p463
tp464
Rp465
s(g1
g34
tp466
g4
(g8
S'\x19\xbc\x94\x11Ef\x11@'
p467
tp468
Rp469
s(dp470
(g1
g2
tp471
g4
(g8
S'\x10\xb2#\xe8\x05\x8f\x8c?'
p472
tp473
Rp474
s(g1
g14
tp475
g4
(g8
S'\x00\x00\x00\x00\x00\x00\xf8\xff'
p476
tp477
Rp478
s(g1
g19
tp479
g4
(g8
S'\x00\x00\x00\x00\x00\x00\xf8\xff'
p480
tp481
Rp482
s(g1
g24
tp483
g4
(g8
S'T\x95\xaa\xe2A\xa7\x93?'
p484
tp485
Rp486
s(g1
g29
tp487
g4
(g8
S'\x19Wb\xbe\x16K\x94?'
p488
tp489
Rp490
s(g1
g34
tp491
g4
(g8
S'\xf5\xb1\x04\x8a4F\x94?'
p492
tp493
Rp494
s(dp495
(g1
g2
tp496
g4
(g8
S'\xb9\x0c\xd3\x8f\x11\xff\xe1?'
p497
tp498
Rp499
s(g1
g14
tp500
g4
(g8
S'\xf4\xb7\xa4\x87\xf3\xfe%@'
p501
tp502
Rp503
s(g1
g19
tp504
g4
(g8
S'\xfe\x9d\xec\x1cj\x9a\x1e@'
p505
tp506
Rp507
s(g1
g24
tp508
g4
(g8
S'\xc52\xc7\x96\xd8\xd5\xe7?'
p509
tp510
Rp511
s(g1
g29
tp512
F0.674746729164402
s(g1
g34
tp513
g4
(g8
S'k\x10\xa3~\xb5&\xd3?'
p514
tp515
Rp516
s(dp517
(g1
g2
tp518
F0.5156336442921295
s(g1
g14
tp519
g4
(g8
S'B\x9c8;3v\xd5?'
p520
tp521
Rp522
s(g1
g19
tp523
F0.3994223218246188
s(g1
g24
tp524
F0.6047335334519974
s(g1
g29
tp525
F0.45266507863384337
s(g1
g34
tp526
F0.2669920631317758
s(dp527
(dp528
(dp529
(g1
g2
tp530
(lp531
g4
(g8
S'V\r\xee\xf0C\x0e\xda?'
p532
tp533
Rp534
ag4
(g8
S'\xbf\x90\xe5\x89\xc1j\xa2?'
p535
tp536
Rp537
ag4
(g8
S'\x83\xf5"\x7f\xe3\xe1\x94?'
p538
tp539
Rp540
ag4
(g8
S'7\xa2\xfd\x16\x9c\xdc$@'
p541
tp542
Rp543
ag4
(g8
S'p\x89\xcd\x05\xeaFB@'
p544
tp545
Rp546
ag4
(g8
S'\xdf\x136\x1e9\xb05@'
p547
tp548
Rp549
ag4
(g8
S'\xe0JNV,\xc0\x94@'
p550
tp551
Rp552
ag4
(g8
S',\xd6\x8be\xe6u\xa4?'
p553
tp554
Rp555
ag4
(g8
S'\xd1A\xf0\xa8\xf3\xb5\xe1?'
p556
tp557
Rp558
ag4
(g8
S'\xa6\xd4\xfaA\xfc$\xcf@'
p559
tp560
Rp561
ag4
(g8
S'!\xea\xbfE<\xfb\xed?'
p562
tp563
Rp564
ag4
(g8
S'sE\x95m|\xb2\xc9?'
p565
tp566
Rp567
ag4
(g8
S'<\x05\x8a\x120y\xc8?'
p568
tp569
Rp570
ag4
(g8
S'\xe1\xdf\xdd\x1fn\xfa\xde?'
p571
tp572
Rp573
ag4
(g8
S'\xb1<*SAy1A'
p574
tp575
Rp576
ag4
(g8
S'\x8e\x0b\xa0)\xfd|\xab?'
p577
tp578
Rp579
ag4
(g8
S'=\x15\x1d8\xd9Bu@'
p580
tp581
Rp582
ag4
(g8
S'\xd7\xb5y\xe5r,\x07@'
p583
tp584
Rp585
as(g1
g14
tp586
(lp587
g4
(g8
S'\x07\xdcR]\x1e\xd9\x84?'
p588
tp589
Rp590
ag4
(g8
S'\xfe\xab1\x7fti\x1d@'
p591
tp592
Rp593
ag4
(g8
S'\xee\xb1[\x11\x8f\x08\x03@'
p594
tp595
Rp596
ag4
(g8
S'n\xe2\x13\x1d>\x8d\xc0?'
p597
tp598
Rp599
ag4
(g8
S"\xe2'\xa4\xa8\xf84\xc3?"
p600
tp601
Rp602
ag4
(g8
S'\xf7~\xeaxy\xbf\xc4?'
p603
tp604
Rp605
ag4
(g8
S'"\x9f\xa1:L\x986@'
p606
tp607
Rp608
ag4
(g8
S"'\xdc\x8d\xc1\xc3*\xdc?"
p609
tp610
Rp611
ag4
(g8
S'\xfc(vP\xa2\x93\x9e?'
p612
tp613
Rp614
ag4
(g8
S'\xbaW\xea\x0eM\x11S@'
p615
tp616
Rp617
ag4
(g8
S'M\x1fk\xb2\xa1\x02\xd3?'
p618
tp619
Rp620
ag4
(g8
S'\xd5C\xd0\xa6A^9@'
p621
tp622
Rp623
ag4
(g8
S')w@\xf3#D\xd8?'
p624
tp625
Rp626
ag4
(g8
S'\xdd\xc8\xbek?BW?'
p627
tp628
Rp629
ag4
(g8
S'\xe8\xfb\xdfPD\xc6\xd2?'
p630
tp631
Rp632
ag4
(g8
S'\x96\x99K\xd2x\xf2\x12@'
p633
tp634
Rp635
as(g1
g19
tp636
(lp637
g4
(g8
S'\x07\xdcR]\x1e\xd9\x84?'
p638
tp639
Rp640
ag4
(g8
S'4{0\xba\xb9\xdc\xaa?'
p641
tp642
Rp643
ag4
(g8
S'\xfe\xab1\x7fti\x1d@'
p644
tp645
Rp646
ag4
(g8
S"U'\xa47\xb2j\n@"
p647
tp648
Rp649
ag4
(g8
S'V\r\xee\xf0C\x0e\xda?'
p650
tp651
Rp652
ag4
(g8
S'\xee\xb1[\x11\x8f\x08\x03@'
p653
tp654
Rp655
ag4
(g8
S'n\xe2\x13\x1d>\x8d\xc0?'
p656
tp657
Rp658
ag4
(g8
S'\xbf\x90\xe5\x89\xc1j\xa2?'
p659
tp660
Rp661
ag4
(g8
S'\x83\xf5"\x7f\xe3\xe1\x94?'
p662
tp663
Rp664
ag4
(g8
S"\xe2'\xa4\xa8\xf84\xc3?"
p665
tp666
Rp667
ag4
(g8
S'$\x02\xf9\x1c\xadL\x94?'
p668
tp669
Rp670
ag4
(g8
S'7\xa2\xfd\x16\x9c\xdc$@'
p671
tp672
Rp673
ag4
(g8
S"!\xb4\xb2#'\xeeb?"
p674
tp675
Rp676
ag4
(g8
S'\x90\xa9\xd8\xd4\x16?\xd2?'
p677
tp678
Rp679
ag4
(g8
S'p\x89\xcd\x05\xeaFB@'
p680
tp681
Rp682
ag4
(g8
S'\xdf\x136\x1e9\xb05@'
p683
tp684
Rp685
ag4
(g8
S'\xe0JNV,\xc0\x94@'
p686
tp687
Rp688
ag4
(g8
S'\xd1A\xf0\xa8\xf3\xb5\xe1?'
p689
tp690
Rp691
ag4
(g8
S'\xdbV\x05\xf4\xe2hr@'
p692
tp693
Rp694
ag4
(g8
S'\xa6\xd4\xfaA\xfc$\xcf@'
p695
tp696
Rp697
ag4
(g8
S'\xf7~\xeaxy\xbf\xc4?'
p698
tp699
Rp700
ag4
(g8
S'"\x9f\xa1:L\x986@'
p701
tp702
Rp703
ag4
(g8
S"'\xdc\x8d\xc1\xc3*\xdc?"
p704
tp705
Rp706
ag4
(g8
S'sE\x95m|\xb2\xc9?'
p707
tp708
Rp709
ag4
(g8
S'\xfc(vP\xa2\x93\x9e?'
p710
tp711
Rp712
ag4
(g8
S'\xbaW\xea\x0eM\x11S@'
p713
tp714
Rp715
ag4
(g8
S'M\x1fk\xb2\xa1\x02\xd3?'
p716
tp717
Rp718
ag4
(g8
S'\xd5C\xd0\xa6A^9@'
p719
tp720
Rp721
ag4
(g8
S'\xc8\xb1n\xa9\xd4\x8aD@'
p722
tp723
Rp724
ag4
(g8
S'\xb3/\x9f\xaa\x18\x9f\x9e?'
p725
tp726
Rp727
ag4
(g8
S'\xb1<*SAy1A'
p728
tp729
Rp730
ag4
(g8
S'\x8e\x0b\xa0)\xfd|\xab?'
p731
tp732
Rp733
ag4
(g8
S'\x88_H\xe1I\xf3\xb3?'
p734
tp735
Rp736
ag4
(g8
S'\xe8\xfb\xdfPD\xc6\xd2?'
p737
tp738
Rp739
ag4
(g8
S'y\x8f\x99\xfe\xe6k\xdc?'
p740
tp741
Rp742
ag4
(g8
S'\xd7\xb5y\xe5r,\x07@'
p743
tp744
Rp745
ag4
(g8
S'\x96\x99K\xd2x\xf2\x12@'
p746
tp747
Rp748
as(g1
g24
tp749
(lp750
g4
(g8
S'V\r\xee\xf0C\x0e\xda?'
p751
tp752
Rp753
ag4
(g8
S'\xaaI\ts(=\xee?'
p754
tp755
Rp756
ag4
(g8
S"!\xb4\xb2#'\xeeb?"
p757
tp758
Rp759
ag4
(g8
S'\xd1A\xf0\xa8\xf3\xb5\xe1?'
p760
tp761
Rp762
ag4
(g8
S'sE\x95m|\xb2\xc9?'
p763
tp764
Rp765
ag4
(g8
S'\x8e\x0b\xa0)\xfd|\xab?'
p766
tp767
Rp768
ag4
(g8
S'\xd7\xb5y\xe5r,\x07@'
p769
tp770
Rp771
as(g1
g29
tp772
(lp773
g4
(g8
S';\x08\xcf\xd88t\x02@'
p774
tp775
Rp776
ag4
(g8
S'7\xa2\xfd\x16\x9c\xdc$@'
p777
tp778
Rp779
ag4
(g8
S'\xdf\x136\x1e9\xb05@'
p780
tp781
Rp782
ag4
(g8
S'\xe0JNV,\xc0\x94@'
p783
tp784
Rp785
ag4
(g8
S'\x04|N\x0fA>\tA'
p786
tp787
Rp788
as(g1
g34
tp789
(lp790
g4
(g8
S'4{0\xba\xb9\xdc\xaa?'
p791
tp792
Rp793
ag4
(g8
S"U'\xa47\xb2j\n@"
p794
tp795
Rp796
ag4
(g8
S'\xd9D%\x18\x17\x1b\xc3?'
p797
tp798
Rp799
ag4
(g8
S'\xbf\x90\xe5\x89\xc1j\xa2?'
p800
tp801
Rp802
ag4
(g8
S'$\x02\xf9\x1c\xadL\x94?'
p803
tp804
Rp805
ag4
(g8
S'\x90\xa9\xd8\xd4\x16?\xd2?'
p806
tp807
Rp808
ag4
(g8
S'\x19s\x06M\x18\xd51@'
p809
tp810
Rp811
ag4
(g8
S'\xdbV\x05\xf4\xe2hr@'
p812
tp813
Rp814
ag4
(g8
S'\xa6\xd4\xfaA\xfc$\xcf@'
p815
tp816
Rp817
ag4
(g8
S'\x9a\xfd\xb4\x84\xf8`\xd7?'
p818
tp819
Rp820
ag4
(g8
S'\xc8\xb1n\xa9\xd4\x8aD@'
p821
tp822
Rp823
ag4
(g8
S'p\xf4\xb1\xd0>\x04\xb1?'
p824
tp825
Rp826
ag4
(g8
S'y\x8f\x99\xfe\xe6k\xdc?'
p827
tp828
Rp829
as(dp830
(g1
g2
tp831
(lp832
g4
(g8
S"'\xbe\\ \x8f\x0f\xf7?"
p833
tp834
Rp835
ag4
(g8
S'/]\x0e\xaf\n\x07\xe3?'
p836
tp837
Rp838
ag4
(g8
S'T\x8d\x17\xa3\xa2\xc6\xda?'
p839
tp840
Rp841
ag4
(g8
S'\x94\xf99\xd7i4 @'
p842
tp843
Rp844
ag4
(g8
S'\x9dF\xb1\xedI\x80\x05@'
p845
tp846
Rp847
ag4
(g8
S'\x9dJj\x1e\x86\x88\x04@'
p848
tp849
Rp850
ag4
(g8
S'-\xca\x91U%\xeb\n@'
p851
tp852
Rp853
ag4
(g8
S'\xea\x16\xe9Z\xe6\xd7\xeb?'
p854
tp855
Rp856
ag4
(g8
S'\xa5\xad\xa6\x8e\xb9\xb7\x07@'
p857
tp858
Rp859
ag4
(g8
S'\xbb\x1a\x88\x8c\xc91\x12@'
p860
tp861
Rp862
ag4
(g8
S'6\x90\xc0\x82\x88\x08\xff?'
p863
tp864
Rp865
ag4
(g8
S'\xfeX9H\xcd~\xfe?'
p866
tp867
Rp868
ag4
(g8
S'\xd9\x89(\x84\xa33\xf6?'
p869
tp870
Rp871
ag4
(g8
S'n>\xb2\xb9\t%\xfa?'
p872
tp873
Rp874
ag4
(g8
S'~(sV\x80\x18\x13@'
p875
tp876
Rp877
ag4
(g8
S'7\x81\r\x87[7\xeb?'
p878
tp879
Rp880
ag4
(g8
S'\x9b\x89\x10\x03\xc7)\t@'
p881
tp882
Rp883
ag4
(g8
S'T\x0e\xd9\x12\x03L\x07@'
p884
tp885
Rp886
as(g1
g14
tp887
(lp888
g4
(g8
S'\x1a\x16\xea\xd8bI\xd9?'
p889
tp890
Rp891
ag4
(g8
S'j\x86\x9a}\x1c\xb7\x04@'
p892
tp893
Rp894
ag4
(g8
S'UWm<\xea\x82\xf9?'
p895
tp896
Rp897
ag4
(g8
S'p1\xa3\xcd\xa8\t\xee?'
p898
tp899
Rp900
ag4
(g8
S'\x16\xb6,\xe3\x182\xf2?'
p901
tp902
Rp903
ag4
(g8
S'\xb7\xa1\xa2\x86\x077\xf5?'
p904
tp905
Rp906
ag4
(g8
S'\x05c\xba>0\xb1\x06@'
p907
tp908
Rp909
ag4
(g8
S'\x9b\x07\x847U\x10\xff?'
p910
tp911
Rp912
ag4
(g8
S'\x10\xa5m1\x89\xa5\xe8?'
p913
tp914
Rp915
ag4
(g8
S'\xb6\x1e0Ls\xbd\x06@'
p916
tp917
Rp918
ag4
(g8
S'%>\xd3\xbf\x812\xfa?'
p919
tp920
Rp921
ag4
(g8
S'\\\xd5\x13\xf0\xe73\x1f@'
p922
tp923
Rp924
ag4
(g8
S'<\xcb\x08\x88L\xc8\xf2?'
p925
tp926
Rp927
ag4
(g8
S'\xe5\xee\xbd\xb6\xd0I\xc0?'
p928
tp929
Rp930
ag4
(g8
S'5\xd492~\xca\xf9?'
p931
tp932
Rp933
ag4
(g8
S'^;8n\x86\xe7\xfe?'
p934
tp935
Rp936
as(g1
g19
tp937
(lp938
g4
(g8
S'\x1a\x16\xea\xd8bI\xd9?'
p939
tp940
Rp941
ag4
(g8
S'6\xae\x8c\x03G \xef?'
p942
tp943
Rp944
ag4
(g8
S'j\x86\x9a}\x1c\xb7\x04@'
p945
tp946
Rp947
ag4
(g8
S'4\x02\x8c\x18\xbe.\xfe?'
p948
tp949
Rp950
ag4
(g8
S"'\xbe\\ \x8f\x0f\xf7?"
p951
tp952
Rp953
ag4
(g8
S'UWm<\xea\x82\xf9?'
p954
tp955
Rp956
ag4
(g8
S'p1\xa3\xcd\xa8\t\xee?'
p957
tp958
Rp959
ag4
(g8
S'/]\x0e\xaf\n\x07\xe3?'
p960
tp961
Rp962
ag4
(g8
S'T\x8d\x17\xa3\xa2\xc6\xda?'
p963
tp964
Rp965
ag4
(g8
S'\x16\xb6,\xe3\x182\xf2?'
p966
tp967
Rp968
ag4
(g8
S'Kl\xbd\xd7\x805\xcb?'
p969
tp970
Rp971
ag4
(g8
S'\x94\xf99\xd7i4 @'
p972
tp973
Rp974
ag4
(g8
S'\x8c\x8d9{\xd3\x84\xcf?'
p975
tp976
Rp977
ag4
(g8
S'_\xa0h\x94\xbe\xd4\xf5?'
p978
tp979
Rp980
ag4
(g8
S'\x9dF\xb1\xedI\x80\x05@'
p981
tp982
Rp983
ag4
(g8
S'\x9dJj\x1e\x86\x88\x04@'
p984
tp985
Rp986
ag4
(g8
S'-\xca\x91U%\xeb\n@'
p987
tp988
Rp989
ag4
(g8
S'\xa5\xad\xa6\x8e\xb9\xb7\x07@'
p990
tp991
Rp992
ag4
(g8
S'\x1fn\xe5\xc4\xbd\xe1\x04@'
p993
tp994
Rp995
ag4
(g8
S'\xbb\x1a\x88\x8c\xc91\x12@'
p996
tp997
Rp998
ag4
(g8
S'\xb7\xa1\xa2\x86\x077\xf5?'
p999
tp1000
Rp1001
ag4
(g8
S'\x05c\xba>0\xb1\x06@'
p1002
tp1003
Rp1004
ag4
(g8
S'\x9b\x07\x847U\x10\xff?'
p1005
tp1006
Rp1007
ag4
(g8
S'\xfeX9H\xcd~\xfe?'
p1008
tp1009
Rp1010
ag4
(g8
S'\x10\xa5m1\x89\xa5\xe8?'
p1011
tp1012
Rp1013
ag4
(g8
S'\xb6\x1e0Ls\xbd\x06@'
p1014
tp1015
Rp1016
ag4
(g8
S'%>\xd3\xbf\x812\xfa?'
p1017
tp1018
Rp1019
ag4
(g8
S'\\\xd5\x13\xf0\xe73\x1f@'
p1020
tp1021
Rp1022
ag4
(g8
S'~\x8c\x15\xe3\x13\xb0"@'
p1023
tp1024
Rp1025
ag4
(g8
S'\x0b\xc2\xa3\xd7\x00\xec\xe8?'
p1026
tp1027
Rp1028
ag4
(g8
S'~(sV\x80\x18\x13@'
p1029
tp1030
Rp1031
ag4
(g8
S'7\x81\r\x87[7\xeb?'
p1032
tp1033
Rp1034
ag4
(g8
S'\xf2\xa0\x8c*\xfa\xba\xec?'
p1035
tp1036
Rp1037
ag4
(g8
S'5\xd492~\xca\xf9?'
p1038
tp1039
Rp1040
ag4
(g8
S'\xc0\x83\xcd\xeb\xa0|\xfd?'
p1041
tp1042
Rp1043
ag4
(g8
S'T\x0e\xd9\x12\x03L\x07@'
p1044
tp1045
Rp1046
ag4
(g8
S'^;8n\x86\xe7\xfe?'
p1047
tp1048
Rp1049
as(g1
g24
tp1050
(lp1051
g4
(g8
S"'\xbe\\ \x8f\x0f\xf7?"
p1052
tp1053
Rp1054
ag4
(g8
S'\xdd\xd7\xe3\x89\xb1\xfb\t@'
p1055
tp1056
Rp1057
ag4
(g8
S'\x8c\x8d9{\xd3\x84\xcf?'
p1058
tp1059
Rp1060
ag4
(g8
S'\xa5\xad\xa6\x8e\xb9\xb7\x07@'
p1061
tp1062
Rp1063
ag4
(g8
S'\xfeX9H\xcd~\xfe?'
p1064
tp1065
Rp1066
ag4
(g8
S'7\x81\r\x87[7\xeb?'
p1067
tp1068
Rp1069
ag4
(g8
S'T\x0e\xd9\x12\x03L\x07@'
p1070
tp1071
Rp1072
as(g1
g29
tp1073
(lp1074
g4
(g8
S'\xc8\x02\xca\xd6g\xe6\xfb?'
p1075
tp1076
Rp1077
ag4
(g8
S'\x94\xf99\xd7i4 @'
p1078
tp1079
Rp1080
ag4
(g8
S'\x9dJj\x1e\x86\x88\x04@'
p1081
tp1082
Rp1083
ag4
(g8
S'-\xca\x91U%\xeb\n@'
p1084
tp1085
Rp1086
ag4
(g8
S'\xf9\x7f\x83\xadI\x8d\x11@'
p1087
tp1088
Rp1089
as(g1
g34
tp1090
(lp1091
g4
(g8
S'6\xae\x8c\x03G \xef?'
p1092
tp1093
Rp1094
ag4
(g8
S'4\x02\x8c\x18\xbe.\xfe?'
p1095
tp1096
Rp1097
ag4
(g8
S'+\xf3u|\xd7\xcb\xf2?'
p1098
tp1099
Rp1100
ag4
(g8
S'/]\x0e\xaf\n\x07\xe3?'
p1101
tp1102
Rp1103
ag4
(g8
S'Kl\xbd\xd7\x805\xcb?'
p1104
tp1105
Rp1106
ag4
(g8
S'_\xa0h\x94\xbe\xd4\xf5?'
p1107
tp1108
Rp1109
ag4
(g8
S':\xa8G\xa1\xf7\x92\x0f@'
p1110
tp1111
Rp1112
ag4
(g8
S'\x1fn\xe5\xc4\xbd\xe1\x04@'
p1113
tp1114
Rp1115
ag4
(g8
S'\xbb\x1a\x88\x8c\xc91\x12@'
p1116
tp1117
Rp1118
ag4
(g8
S'aej\xf4\x10P\xf5?'
p1119
tp1120
Rp1121
ag4
(g8
S'~\x8c\x15\xe3\x13\xb0"@'
p1122
tp1123
Rp1124
ag4
(g8
S'\x07R\xfb\xf0 \xb9\xf2?'
p1125
tp1126
Rp1127
ag4
(g8
S'\xc0\x83\xcd\xeb\xa0|\xfd?'
p1128
tp1129
Rp1130
astp1131
.