((dp0
(S'02408540'
p1
S'summer'
p2
tp3
cnumpy.core.multiarray
scalar
p4
(cnumpy
dtype
p5
(S'f8'
p6
I0
I1
tp7
Rp8
(I3
S'<'
p9
NNNI-1
I-1
I0
tp10
bS'\xc5\xce01b%\xe0?'
p11
tp12
Rp13
s(g1
S'fall'
p14
tp15
g4
(g8
S'H\x05\xaco\xbf!\xfb?'
p16
tp17
Rp18
s(g1
S'winter'
p19
tp20
g4
(g8
S'\x95\xb4\x93\xa1Y\xab\xea?'
p21
tp22
Rp23
s(g1
S'annual'
p24
tp25
g4
(g8
S'\x0c\xa4\xdc:yE\xe3?'
p26
tp27
Rp28
s(g1
S'wet'
p29
tp30
g4
(g8
S'=O.9\xdb\x8e\xe1?'
p31
tp32
Rp33
s(g1
S'spring'
p34
tp35
g4
(g8
S'\xd2\xf9\xc6[&\xbd\xdd?'
p36
tp37
Rp38
s(dp39
(g1
g2
tp40
g4
(g8
S'\xcb&b\xb54\xa7\xf5?'
p41
tp42
Rp43
s(g1
g14
tp44
g4
(g8
S'\x03$\x94\xc5\x8b\xc9\xfb?'
p45
tp46
Rp47
s(g1
g19
tp48
g4
(g8
S'\xac\xd6\xf1\xbd\x96k\xfc?'
p49
tp50
Rp51
s(g1
g24
tp52
g4
(g8
S'\xad\x8b\xd9\xeb\x03F\xf7?'
p53
tp54
Rp55
s(g1
g29
tp56
g4
(g8
S'\x0c\x04&\x03\x1fF\xf9?'
p57
tp58
Rp59
s(g1
g34
tp60
g4
(g8
S'}\x0c\x0f\xdfD\xb5\xf9?'
p61
tp62
Rp63
s(dp64
(g1
g2
tp65
(lp66
cpandas.tslib
Timestamp
p67
(L360460800000000000L
NNtp68
Rp69
ag67
(L360892800000000000L
NNtp70
Rp71
ag67
(L361411200000000000L
NNtp72
Rp73
ag67
(L361929600000000000L
NNtp74
Rp75
ag67
(L362275200000000000L
NNtp76
Rp77
ag67
(L362448000000000000L
NNtp78
Rp79
ag67
(L362620800000000000L
NNtp80
Rp81
ag67
(L363139200000000000L
NNtp82
Rp83
ag67
(L363484800000000000L
NNtp84
Rp85
ag67
(L363571200000000000L
NNtp86
Rp87
ag67
(L363657600000000000L
NNtp88
Rp89
ag67
(L363744000000000000L
NNtp90
Rp91
ag67
(L364003200000000000L
NNtp92
Rp93
ag67
(L364262400000000000L
NNtp94
Rp95
ag67
(L364435200000000000L
NNtp96
Rp97
ag67
(L364521600000000000L
NNtp98
Rp99
ag67
(L364608000000000000L
NNtp100
Rp101
ag67
(L364867200000000000L
NNtp102
Rp103
ag67
(L365040000000000000L
NNtp104
Rp105
ag67
(L365472000000000000L
NNtp106
Rp107
ag67
(L365817600000000000L
NNtp108
Rp109
ag67
(L365904000000000000L
NNtp110
Rp111
ag67
(L366249600000000000L
NNtp112
Rp113
ag67
(L367200000000000000L
NNtp114
Rp115
ag67
(L367459200000000000L
NNtp116
Rp117
ag67
(L367545600000000000L
NNtp118
Rp119
ag67
(L367718400000000000L
NNtp120
Rp121
ag67
(L367977600000000000L
NNtp122
Rp123
ag67
(L391737600000000000L
NNtp124
Rp125
ag67
(L391824000000000000L
NNtp126
Rp127
ag67
(L391910400000000000L
NNtp128
Rp129
ag67
(L392601600000000000L
NNtp130
Rp131
ag67
(L393120000000000000L
NNtp132
Rp133
ag67
(L393206400000000000L
NNtp134
Rp135
ag67
(L393379200000000000L
NNtp136
Rp137
ag67
(L393465600000000000L
NNtp138
Rp139
ag67
(L393552000000000000L
NNtp140
Rp141
ag67
(L393984000000000000L
NNtp142
Rp143
ag67
(L394502400000000000L
NNtp144
Rp145
ag67
(L394588800000000000L
NNtp146
Rp147
ag67
(L394934400000000000L
NNtp148
Rp149
ag67
(L395193600000000000L
NNtp150
Rp151
ag67
(L395366400000000000L
NNtp152
Rp153
ag67
(L395452800000000000L
NNtp154
Rp155
ag67
(L395539200000000000L
NNtp156
Rp157
ag67
(L397094400000000000L
NNtp158
Rp159
ag67
(L397526400000000000L
NNtp160
Rp161
ag67
(L397785600000000000L
NNtp162
Rp163
ag67
(L398131200000000000L
NNtp164
Rp165
ag67
(L398304000000000000L
NNtp166
Rp167
ag67
(L399081600000000000L
NNtp168
Rp169
ag67
(L399254400000000000L
NNtp170
Rp171
ag67
(L399427200000000000L
NNtp172
Rp173
ag67
(L399513600000000000L
NNtp174
Rp175
ag67
(L423964800000000000L
NNtp176
Rp177
ag67
(L424396800000000000L
NNtp178
Rp179
ag67
(L424483200000000000L
NNtp180
Rp181
ag67
(L425001600000000000L
NNtp182
Rp183
ag67
(L425174400000000000L
NNtp184
Rp185
ag67
(L425520000000000000L
NNtp186
Rp187
ag67
(L425779200000000000L
NNtp188
Rp189
ag67
(L425952000000000000L
NNtp190
Rp191
ag67
(L426297600000000000L
NNtp192
Rp193
ag67
(L426902400000000000L
NNtp194
Rp195
ag67
(L427075200000000000L
NNtp196
Rp197
ag67
(L427161600000000000L
NNtp198
Rp199
ag67
(L427248000000000000L
NNtp200
Rp201
ag67
(L427593600000000000L
NNtp202
Rp203
ag67
(L427680000000000000L
NNtp204
Rp205
ag67
(L427852800000000000L
NNtp206
Rp207
ag67
(L427939200000000000L
NNtp208
Rp209
ag67
(L428284800000000000L
NNtp210
Rp211
ag67
(L429148800000000000L
NNtp212
Rp213
ag67
(L429321600000000000L
NNtp214
Rp215
ag67
(L429667200000000000L
NNtp216
Rp217
ag67
(L429840000000000000L
NNtp218
Rp219
ag67
(L430185600000000000L
NNtp220
Rp221
ag67
(L430272000000000000L
NNtp222
Rp223
ag67
(L430444800000000000L
NNtp224
Rp225
ag67
(L430531200000000000L
NNtp226
Rp227
ag67
(L430617600000000000L
NNtp228
Rp229
ag67
(L430876800000000000L
NNtp230
Rp231
ag67
(L431136000000000000L
NNtp232
Rp233
ag67
(L455328000000000000L
NNtp234
Rp235
ag67
(L455414400000000000L
NNtp236
Rp237
ag67
(L455500800000000000L
NNtp238
Rp239
ag67
(L456105600000000000L
NNtp240
Rp241
ag67
(L456278400000000000L
NNtp242
Rp243
ag67
(L456451200000000000L
NNtp244
Rp245
ag67
(L456710400000000000L
NNtp246
Rp247
ag67
(L456969600000000000L
NNtp248
Rp249
ag67
(L457315200000000000L
NNtp250
Rp251
ag67
(L457660800000000000L
NNtp252
Rp253
ag67
(L458179200000000000L
NNtp254
Rp255
ag67
(L458265600000000000L
NNtp256
Rp257
ag67
(L458524800000000000L
NNtp258
Rp259
as(g1
g14
tp260
(lp261
g67
(L339206400000000000L
NNtp262
Rp263
ag67
(L339292800000000000L
NNtp264
Rp265
ag67
(L339465600000000000L
NNtp266
Rp267
ag67
(L339552000000000000L
NNtp268
Rp269
ag67
(L339897600000000000L
NNtp270
Rp271
ag67
(L339984000000000000L
NNtp272
Rp273
ag67
(L340329600000000000L
NNtp274
Rp275
ag67
(L340588800000000000L
NNtp276
Rp277
ag67
(L340675200000000000L
NNtp278
Rp279
ag67
(L340934400000000000L
NNtp280
Rp281
ag67
(L341366400000000000L
NNtp282
Rp283
ag67
(L341625600000000000L
NNtp284
Rp285
ag67
(L341712000000000000L
NNtp286
Rp287
ag67
(L341971200000000000L
NNtp288
Rp289
ag67
(L342316800000000000L
NNtp290
Rp291
ag67
(L342403200000000000L
NNtp292
Rp293
ag67
(L342576000000000000L
NNtp294
Rp295
ag67
(L342662400000000000L
NNtp296
Rp297
ag67
(L342748800000000000L
NNtp298
Rp299
ag67
(L342835200000000000L
NNtp300
Rp301
ag67
(L342921600000000000L
NNtp302
Rp303
ag67
(L343008000000000000L
NNtp304
Rp305
ag67
(L343094400000000000L
NNtp306
Rp307
ag67
(L343267200000000000L
NNtp308
Rp309
ag67
(L343353600000000000L
NNtp310
Rp311
ag67
(L343440000000000000L
NNtp312
Rp313
ag67
(L343526400000000000L
NNtp314
Rp315
ag67
(L343612800000000000L
NNtp316
Rp317
ag67
(L343699200000000000L
NNtp318
Rp319
ag67
(L343785600000000000L
NNtp320
Rp321
ag67
(L343958400000000000L
NNtp322
Rp323
ag67
(L344131200000000000L
NNtp324
Rp325
ag67
(L344217600000000000L
NNtp326
Rp327
ag67
(L368150400000000000L
NNtp328
Rp329
ag67
(L368236800000000000L
NNtp330
Rp331
ag67
(L368582400000000000L
NNtp332
Rp333
ag67
(L369014400000000000L
NNtp334
Rp335
ag67
(L369100800000000000L
NNtp336
Rp337
ag67
(L369360000000000000L
NNtp338
Rp339
ag67
(L369446400000000000L
NNtp340
Rp341
ag67
(L369532800000000000L
NNtp342
Rp343
ag67
(L369619200000000000L
NNtp344
Rp345
ag67
(L369705600000000000L
NNtp346
Rp347
ag67
(L369792000000000000L
NNtp348
Rp349
ag67
(L369878400000000000L
NNtp350
Rp351
ag67
(L369964800000000000L
NNtp352
Rp353
ag67
(L370051200000000000L
NNtp354
Rp355
ag67
(L370137600000000000L
NNtp356
Rp357
ag67
(L370224000000000000L
NNtp358
Rp359
ag67
(L370396800000000000L
NNtp360
Rp361
ag67
(L370656000000000000L
NNtp362
Rp363
ag67
(L371088000000000000L
NNtp364
Rp365
ag67
(L371433600000000000L
NNtp366
Rp367
ag67
(L371520000000000000L
NNtp368
Rp369
ag67
(L371779200000000000L
NNtp370
Rp371
ag67
(L371865600000000000L
NNtp372
Rp373
ag67
(L372038400000000000L
NNtp374
Rp375
ag67
(L372211200000000000L
NNtp376
Rp377
ag67
(L372297600000000000L
NNtp378
Rp379
ag67
(L372384000000000000L
NNtp380
Rp381
ag67
(L372556800000000000L
NNtp382
Rp383
ag67
(L372643200000000000L
NNtp384
Rp385
ag67
(L372816000000000000L
NNtp386
Rp387
ag67
(L372902400000000000L
NNtp388
Rp389
ag67
(L372988800000000000L
NNtp390
Rp391
ag67
(L373075200000000000L
NNtp392
Rp393
ag67
(L373161600000000000L
NNtp394
Rp395
ag67
(L373420800000000000L
NNtp396
Rp397
ag67
(L373507200000000000L
NNtp398
Rp399
ag67
(L373680000000000000L
NNtp400
Rp401
ag67
(L373939200000000000L
NNtp402
Rp403
ag67
(L374025600000000000L
NNtp404
Rp405
ag67
(L374112000000000000L
NNtp406
Rp407
ag67
(L374198400000000000L
NNtp408
Rp409
ag67
(L374284800000000000L
NNtp410
Rp411
ag67
(L374803200000000000L
NNtp412
Rp413
ag67
(L374976000000000000L
NNtp414
Rp415
as(g1
g19
tp416
(lp417
g67
(L344476800000000000L
NNtp418
Rp419
ag67
(L344563200000000000L
NNtp420
Rp421
ag67
(L344649600000000000L
NNtp422
Rp423
ag67
(L344822400000000000L
NNtp424
Rp425
ag67
(L344908800000000000L
NNtp426
Rp427
ag67
(L345340800000000000L
NNtp428
Rp429
ag67
(L345513600000000000L
NNtp430
Rp431
ag67
(L345600000000000000L
NNtp432
Rp433
ag67
(L345772800000000000L
NNtp434
Rp435
ag67
(L345945600000000000L
NNtp436
Rp437
ag67
(L346118400000000000L
NNtp438
Rp439
ag67
(L346291200000000000L
NNtp440
Rp441
ag67
(L346636800000000000L
NNtp442
Rp443
ag67
(L347068800000000000L
NNtp444
Rp445
ag67
(L347241600000000000L
NNtp446
Rp447
ag67
(L347328000000000000L
NNtp448
Rp449
ag67
(L347587200000000000L
NNtp450
Rp451
ag67
(L347760000000000000L
NNtp452
Rp453
ag67
(L348019200000000000L
NNtp454
Rp455
ag67
(L348105600000000000L
NNtp456
Rp457
ag67
(L348364800000000000L
NNtp458
Rp459
ag67
(L348537600000000000L
NNtp460
Rp461
ag67
(L348624000000000000L
NNtp462
Rp463
ag67
(L348796800000000000L
NNtp464
Rp465
ag67
(L348883200000000000L
NNtp466
Rp467
ag67
(L348969600000000000L
NNtp468
Rp469
ag67
(L349056000000000000L
NNtp470
Rp471
ag67
(L349315200000000000L
NNtp472
Rp473
ag67
(L349401600000000000L
NNtp474
Rp475
ag67
(L349488000000000000L
NNtp476
Rp477
ag67
(L349660800000000000L
NNtp478
Rp479
ag67
(L350006400000000000L
NNtp480
Rp481
ag67
(L350092800000000000L
NNtp482
Rp483
ag67
(L350179200000000000L
NNtp484
Rp485
ag67
(L350352000000000000L
NNtp486
Rp487
ag67
(L350524800000000000L
NNtp488
Rp489
ag67
(L350611200000000000L
NNtp490
Rp491
ag67
(L350697600000000000L
NNtp492
Rp493
ag67
(L350956800000000000L
NNtp494
Rp495
ag67
(L351475200000000000L
NNtp496
Rp497
ag67
(L351734400000000000L
NNtp498
Rp499
ag67
(L351820800000000000L
NNtp500
Rp501
ag67
(L376012800000000000L
NNtp502
Rp503
ag67
(L376272000000000000L
NNtp504
Rp505
ag67
(L376444800000000000L
NNtp506
Rp507
ag67
(L376617600000000000L
NNtp508
Rp509
ag67
(L376876800000000000L
NNtp510
Rp511
ag67
(L376963200000000000L
NNtp512
Rp513
ag67
(L377136000000000000L
NNtp514
Rp515
ag67
(L377395200000000000L
NNtp516
Rp517
ag67
(L377827200000000000L
NNtp518
Rp519
ag67
(L378000000000000000L
NNtp520
Rp521
ag67
(L378691200000000000L
NNtp522
Rp523
ag67
(L378777600000000000L
NNtp524
Rp525
ag67
(L378864000000000000L
NNtp526
Rp527
ag67
(L379036800000000000L
NNtp528
Rp529
ag67
(L379296000000000000L
NNtp530
Rp531
ag67
(L379382400000000000L
NNtp532
Rp533
ag67
(L379555200000000000L
NNtp534
Rp535
ag67
(L379728000000000000L
NNtp536
Rp537
ag67
(L379987200000000000L
NNtp538
Rp539
ag67
(L380073600000000000L
NNtp540
Rp541
ag67
(L380160000000000000L
NNtp542
Rp543
ag67
(L380592000000000000L
NNtp544
Rp545
ag67
(L380678400000000000L
NNtp546
Rp547
ag67
(L380764800000000000L
NNtp548
Rp549
ag67
(L380937600000000000L
NNtp550
Rp551
ag67
(L381196800000000000L
NNtp552
Rp553
ag67
(L381283200000000000L
NNtp554
Rp555
ag67
(L381456000000000000L
NNtp556
Rp557
ag67
(L381628800000000000L
NNtp558
Rp559
ag67
(L381974400000000000L
NNtp560
Rp561
ag67
(L382147200000000000L
NNtp562
Rp563
ag67
(L382233600000000000L
NNtp564
Rp565
ag67
(L382579200000000000L
NNtp566
Rp567
ag67
(L383184000000000000L
NNtp568
Rp569
ag67
(L383270400000000000L
NNtp570
Rp571
ag67
(L383356800000000000L
NNtp572
Rp573
ag67
(L383616000000000000L
NNtp574
Rp575
ag67
(L383702400000000000L
NNtp576
Rp577
ag67
(L407635200000000000L
NNtp578
Rp579
ag67
(L407808000000000000L
NNtp580
Rp581
ag67
(L407894400000000000L
NNtp582
Rp583
ag67
(L408067200000000000L
NNtp584
Rp585
ag67
(L408153600000000000L
NNtp586
Rp587
ag67
(L408326400000000000L
NNtp588
Rp589
ag67
(L408672000000000000L
NNtp590
Rp591
ag67
(L408931200000000000L
NNtp592
Rp593
ag67
(L409017600000000000L
NNtp594
Rp595
ag67
(L409104000000000000L
NNtp596
Rp597
ag67
(L409536000000000000L
NNtp598
Rp599
ag67
(L409708800000000000L
NNtp600
Rp601
ag67
(L409968000000000000L
NNtp602
Rp603
ag67
(L410054400000000000L
NNtp604
Rp605
ag67
(L410227200000000000L
NNtp606
Rp607
ag67
(L410400000000000000L
NNtp608
Rp609
ag67
(L410486400000000000L
NNtp610
Rp611
ag67
(L410572800000000000L
NNtp612
Rp613
ag67
(L410745600000000000L
NNtp614
Rp615
ag67
(L410832000000000000L
NNtp616
Rp617
ag67
(L410918400000000000L
NNtp618
Rp619
ag67
(L411177600000000000L
NNtp620
Rp621
ag67
(L411264000000000000L
NNtp622
Rp623
ag67
(L411350400000000000L
NNtp624
Rp625
ag67
(L411523200000000000L
NNtp626
Rp627
ag67
(L411696000000000000L
NNtp628
Rp629
ag67
(L412041600000000000L
NNtp630
Rp631
ag67
(L412214400000000000L
NNtp632
Rp633
ag67
(L412732800000000000L
NNtp634
Rp635
ag67
(L413164800000000000L
NNtp636
Rp637
ag67
(L413251200000000000L
NNtp638
Rp639
ag67
(L413337600000000000L
NNtp640
Rp641
ag67
(L413424000000000000L
NNtp642
Rp643
ag67
(L413510400000000000L
NNtp644
Rp645
ag67
(L413769600000000000L
NNtp646
Rp647
ag67
(L413856000000000000L
NNtp648
Rp649
ag67
(L414288000000000000L
NNtp650
Rp651
ag67
(L414633600000000000L
NNtp652
Rp653
ag67
(L414720000000000000L
NNtp654
Rp655
ag67
(L414806400000000000L
NNtp656
Rp657
ag67
(L414979200000000000L
NNtp658
Rp659
ag67
(L415238400000000000L
NNtp660
Rp661
ag67
(L439084800000000000L
NNtp662
Rp663
ag67
(L439171200000000000L
NNtp664
Rp665
ag67
(L439603200000000000L
NNtp666
Rp667
ag67
(L439689600000000000L
NNtp668
Rp669
ag67
(L439776000000000000L
NNtp670
Rp671
ag67
(L439948800000000000L
NNtp672
Rp673
ag67
(L440121600000000000L
NNtp674
Rp675
ag67
(L440294400000000000L
NNtp676
Rp677
ag67
(L440467200000000000L
NNtp678
Rp679
ag67
(L440553600000000000L
NNtp680
Rp681
ag67
(L440726400000000000L
NNtp682
Rp683
ag67
(L440812800000000000L
NNtp684
Rp685
ag67
(L441504000000000000L
NNtp686
Rp687
ag67
(L441676800000000000L
NNtp688
Rp689
ag67
(L442195200000000000L
NNtp690
Rp691
ag67
(L442368000000000000L
NNtp692
Rp693
ag67
(L442454400000000000L
NNtp694
Rp695
ag67
(L442540800000000000L
NNtp696
Rp697
ag67
(L442627200000000000L
NNtp698
Rp699
as(g1
g24
tp700
(lp701
g67
(L339206400000000000L
NNtp702
Rp703
ag67
(L339292800000000000L
NNtp704
Rp705
ag67
(L339379200000000000L
NNtp706
Rp707
ag67
(L339465600000000000L
NNtp708
Rp709
ag67
(L339552000000000000L
NNtp710
Rp711
ag67
(L339638400000000000L
NNtp712
Rp713
ag67
(L339811200000000000L
NNtp714
Rp715
ag67
(L340156800000000000L
NNtp716
Rp717
ag67
(L340243200000000000L
NNtp718
Rp719
ag67
(L340329600000000000L
NNtp720
Rp721
ag67
(L340588800000000000L
NNtp722
Rp723
ag67
(L340761600000000000L
NNtp724
Rp725
ag67
(L341193600000000000L
NNtp726
Rp727
ag67
(L341366400000000000L
NNtp728
Rp729
ag67
(L341452800000000000L
NNtp730
Rp731
ag67
(L341625600000000000L
NNtp732
Rp733
ag67
(L341712000000000000L
NNtp734
Rp735
ag67
(L341798400000000000L
NNtp736
Rp737
ag67
(L341971200000000000L
NNtp738
Rp739
ag67
(L342144000000000000L
NNtp740
Rp741
ag67
(L342230400000000000L
NNtp742
Rp743
ag67
(L342403200000000000L
NNtp744
Rp745
ag67
(L343094400000000000L
NNtp746
Rp747
ag67
(L343180800000000000L
NNtp748
Rp749
ag67
(L343526400000000000L
NNtp750
Rp751
ag67
(L343699200000000000L
NNtp752
Rp753
ag67
(L343872000000000000L
NNtp754
Rp755
ag67
(L344217600000000000L
NNtp756
Rp757
ag67
(L344476800000000000L
NNtp758
Rp759
ag67
(L344736000000000000L
NNtp760
Rp761
ag67
(L344908800000000000L
NNtp762
Rp763
ag67
(L344995200000000000L
NNtp764
Rp765
ag67
(L345081600000000000L
NNtp766
Rp767
ag67
(L345427200000000000L
NNtp768
Rp769
ag67
(L345772800000000000L
NNtp770
Rp771
ag67
(L345859200000000000L
NNtp772
Rp773
ag67
(L345945600000000000L
NNtp774
Rp775
ag67
(L346550400000000000L
NNtp776
Rp777
ag67
(L346723200000000000L
NNtp778
Rp779
ag67
(L346809600000000000L
NNtp780
Rp781
ag67
(L347068800000000000L
NNtp782
Rp783
ag67
(L347241600000000000L
NNtp784
Rp785
ag67
(L347328000000000000L
NNtp786
Rp787
ag67
(L347414400000000000L
NNtp788
Rp789
ag67
(L348278400000000000L
NNtp790
Rp791
ag67
(L348451200000000000L
NNtp792
Rp793
ag67
(L348883200000000000L
NNtp794
Rp795
ag67
(L349142400000000000L
NNtp796
Rp797
ag67
(L349574400000000000L
NNtp798
Rp799
ag67
(L349660800000000000L
NNtp800
Rp801
ag67
(L349920000000000000L
NNtp802
Rp803
ag67
(L350006400000000000L
NNtp804
Rp805
ag67
(L350179200000000000L
NNtp806
Rp807
ag67
(L350265600000000000L
NNtp808
Rp809
ag67
(L350352000000000000L
NNtp810
Rp811
ag67
(L350611200000000000L
NNtp812
Rp813
ag67
(L350697600000000000L
NNtp814
Rp815
ag67
(L350784000000000000L
NNtp816
Rp817
ag67
(L350870400000000000L
NNtp818
Rp819
ag67
(L350956800000000000L
NNtp820
Rp821
ag67
(L351216000000000000L
NNtp822
Rp823
ag67
(L351302400000000000L
NNtp824
Rp825
ag67
(L351475200000000000L
NNtp826
Rp827
ag67
(L351648000000000000L
NNtp828
Rp829
ag67
(L351734400000000000L
NNtp830
Rp831
ag67
(L351820800000000000L
NNtp832
Rp833
ag67
(L351993600000000000L
NNtp834
Rp835
ag67
(L352339200000000000L
NNtp836
Rp837
ag67
(L352425600000000000L
NNtp838
Rp839
ag67
(L352512000000000000L
NNtp840
Rp841
ag67
(L352771200000000000L
NNtp842
Rp843
ag67
(L352857600000000000L
NNtp844
Rp845
ag67
(L352944000000000000L
NNtp846
Rp847
ag67
(L353116800000000000L
NNtp848
Rp849
ag67
(L353289600000000000L
NNtp850
Rp851
ag67
(L353462400000000000L
NNtp852
Rp853
ag67
(L353721600000000000L
NNtp854
Rp855
ag67
(L353808000000000000L
NNtp856
Rp857
ag67
(L354067200000000000L
NNtp858
Rp859
ag67
(L354240000000000000L
NNtp860
Rp861
ag67
(L354585600000000000L
NNtp862
Rp863
ag67
(L354672000000000000L
NNtp864
Rp865
ag67
(L354758400000000000L
NNtp866
Rp867
ag67
(L354931200000000000L
NNtp868
Rp869
ag67
(L355017600000000000L
NNtp870
Rp871
ag67
(L355363200000000000L
NNtp872
Rp873
ag67
(L355449600000000000L
NNtp874
Rp875
ag67
(L355708800000000000L
NNtp876
Rp877
ag67
(L355795200000000000L
NNtp878
Rp879
ag67
(L356054400000000000L
NNtp880
Rp881
ag67
(L356140800000000000L
NNtp882
Rp883
ag67
(L356313600000000000L
NNtp884
Rp885
ag67
(L356400000000000000L
NNtp886
Rp887
ag67
(L356486400000000000L
NNtp888
Rp889
ag67
(L356659200000000000L
NNtp890
Rp891
ag67
(L356745600000000000L
NNtp892
Rp893
ag67
(L357609600000000000L
NNtp894
Rp895
ag67
(L358214400000000000L
NNtp896
Rp897
ag67
(L358473600000000000L
NNtp898
Rp899
ag67
(L358560000000000000L
NNtp900
Rp901
ag67
(L358732800000000000L
NNtp902
Rp903
ag67
(L358819200000000000L
NNtp904
Rp905
ag67
(L359078400000000000L
NNtp906
Rp907
ag67
(L359596800000000000L
NNtp908
Rp909
ag67
(L359856000000000000L
NNtp910
Rp911
ag67
(L359942400000000000L
NNtp912
Rp913
ag67
(L360028800000000000L
NNtp914
Rp915
ag67
(L360115200000000000L
NNtp916
Rp917
ag67
(L360374400000000000L
NNtp918
Rp919
ag67
(L360547200000000000L
NNtp920
Rp921
ag67
(L360633600000000000L
NNtp922
Rp923
ag67
(L360720000000000000L
NNtp924
Rp925
ag67
(L360979200000000000L
NNtp926
Rp927
ag67
(L361065600000000000L
NNtp928
Rp929
ag67
(L361497600000000000L
NNtp930
Rp931
ag67
(L361670400000000000L
NNtp932
Rp933
ag67
(L361929600000000000L
NNtp934
Rp935
ag67
(L362102400000000000L
NNtp936
Rp937
ag67
(L362188800000000000L
NNtp938
Rp939
ag67
(L362620800000000000L
NNtp940
Rp941
ag67
(L362793600000000000L
NNtp942
Rp943
ag67
(L362880000000000000L
NNtp944
Rp945
ag67
(L363139200000000000L
NNtp946
Rp947
ag67
(L363225600000000000L
NNtp948
Rp949
ag67
(L363312000000000000L
NNtp950
Rp951
ag67
(L363484800000000000L
NNtp952
Rp953
ag67
(L363657600000000000L
NNtp954
Rp955
ag67
(L363916800000000000L
NNtp956
Rp957
ag67
(L364003200000000000L
NNtp958
Rp959
ag67
(L364176000000000000L
NNtp960
Rp961
ag67
(L364348800000000000L
NNtp962
Rp963
ag67
(L364521600000000000L
NNtp964
Rp965
ag67
(L364608000000000000L
NNtp966
Rp967
ag67
(L364694400000000000L
NNtp968
Rp969
ag67
(L364867200000000000L
NNtp970
Rp971
ag67
(L365126400000000000L
NNtp972
Rp973
ag67
(L365212800000000000L
NNtp974
Rp975
ag67
(L365299200000000000L
NNtp976
Rp977
ag67
(L365385600000000000L
NNtp978
Rp979
ag67
(L365558400000000000L
NNtp980
Rp981
ag67
(L365644800000000000L
NNtp982
Rp983
ag67
(L365731200000000000L
NNtp984
Rp985
ag67
(L365990400000000000L
NNtp986
Rp987
ag67
(L366422400000000000L
NNtp988
Rp989
ag67
(L366595200000000000L
NNtp990
Rp991
ag67
(L367113600000000000L
NNtp992
Rp993
ag67
(L367286400000000000L
NNtp994
Rp995
ag67
(L367804800000000000L
NNtp996
Rp997
ag67
(L368064000000000000L
NNtp998
Rp999
ag67
(L368236800000000000L
NNtp1000
Rp1001
ag67
(L368323200000000000L
NNtp1002
Rp1003
ag67
(L368409600000000000L
NNtp1004
Rp1005
ag67
(L368496000000000000L
NNtp1006
Rp1007
ag67
(L368755200000000000L
NNtp1008
Rp1009
ag67
(L368841600000000000L
NNtp1010
Rp1011
ag67
(L368928000000000000L
NNtp1012
Rp1013
ag67
(L369100800000000000L
NNtp1014
Rp1015
ag67
(L369273600000000000L
NNtp1016
Rp1017
ag67
(L369360000000000000L
NNtp1018
Rp1019
ag67
(L369532800000000000L
NNtp1020
Rp1021
ag67
(L369619200000000000L
NNtp1022
Rp1023
ag67
(L369705600000000000L
NNtp1024
Rp1025
ag67
(L370051200000000000L
NNtp1026
Rp1027
ag67
(L370483200000000000L
NNtp1028
Rp1029
ag67
(L370915200000000000L
NNtp1030
Rp1031
ag67
(L371088000000000000L
NNtp1032
Rp1033
ag67
(L371260800000000000L
NNtp1034
Rp1035
ag67
(L371347200000000000L
NNtp1036
Rp1037
ag67
(L371433600000000000L
NNtp1038
Rp1039
ag67
(L371606400000000000L
NNtp1040
Rp1041
ag67
(L371692800000000000L
NNtp1042
Rp1043
ag67
(L371865600000000000L
NNtp1044
Rp1045
ag67
(L372038400000000000L
NNtp1046
Rp1047
ag67
(L372297600000000000L
NNtp1048
Rp1049
ag67
(L372384000000000000L
NNtp1050
Rp1051
ag67
(L372470400000000000L
NNtp1052
Rp1053
ag67
(L372729600000000000L
NNtp1054
Rp1055
ag67
(L372988800000000000L
NNtp1056
Rp1057
ag67
(L373075200000000000L
NNtp1058
Rp1059
ag67
(L373420800000000000L
NNtp1060
Rp1061
ag67
(L373593600000000000L
NNtp1062
Rp1063
ag67
(L373680000000000000L
NNtp1064
Rp1065
ag67
(L373766400000000000L
NNtp1066
Rp1067
ag67
(L374198400000000000L
NNtp1068
Rp1069
ag67
(L374284800000000000L
NNtp1070
Rp1071
ag67
(L374371200000000000L
NNtp1072
Rp1073
ag67
(L374457600000000000L
NNtp1074
Rp1075
ag67
(L374544000000000000L
NNtp1076
Rp1077
ag67
(L374803200000000000L
NNtp1078
Rp1079
ag67
(L375926400000000000L
NNtp1080
Rp1081
ag67
(L376012800000000000L
NNtp1082
Rp1083
ag67
(L376185600000000000L
NNtp1084
Rp1085
ag67
(L376358400000000000L
NNtp1086
Rp1087
ag67
(L376617600000000000L
NNtp1088
Rp1089
ag67
(L376704000000000000L
NNtp1090
Rp1091
ag67
(L376876800000000000L
NNtp1092
Rp1093
ag67
(L377049600000000000L
NNtp1094
Rp1095
ag67
(L377222400000000000L
NNtp1096
Rp1097
ag67
(L377308800000000000L
NNtp1098
Rp1099
ag67
(L377395200000000000L
NNtp1100
Rp1101
ag67
(L377481600000000000L
NNtp1102
Rp1103
ag67
(L377740800000000000L
NNtp1104
Rp1105
ag67
(L377913600000000000L
NNtp1106
Rp1107
ag67
(L378345600000000000L
NNtp1108
Rp1109
ag67
(L378518400000000000L
NNtp1110
Rp1111
ag67
(L378777600000000000L
NNtp1112
Rp1113
ag67
(L378864000000000000L
NNtp1114
Rp1115
ag67
(L378950400000000000L
NNtp1116
Rp1117
ag67
(L379209600000000000L
NNtp1118
Rp1119
ag67
(L379382400000000000L
NNtp1120
Rp1121
ag67
(L379468800000000000L
NNtp1122
Rp1123
ag67
(L379814400000000000L
NNtp1124
Rp1125
ag67
(L380073600000000000L
NNtp1126
Rp1127
ag67
(L380246400000000000L
NNtp1128
Rp1129
ag67
(L380332800000000000L
NNtp1130
Rp1131
ag67
(L380764800000000000L
NNtp1132
Rp1133
ag67
(L380937600000000000L
NNtp1134
Rp1135
ag67
(L381110400000000000L
NNtp1136
Rp1137
ag67
(L381196800000000000L
NNtp1138
Rp1139
ag67
(L381715200000000000L
NNtp1140
Rp1141
ag67
(L381801600000000000L
NNtp1142
Rp1143
ag67
(L381888000000000000L
NNtp1144
Rp1145
ag67
(L381974400000000000L
NNtp1146
Rp1147
ag67
(L382320000000000000L
NNtp1148
Rp1149
ag67
(L382406400000000000L
NNtp1150
Rp1151
ag67
(L382492800000000000L
NNtp1152
Rp1153
ag67
(L382752000000000000L
NNtp1154
Rp1155
ag67
(L383011200000000000L
NNtp1156
Rp1157
ag67
(L383184000000000000L
NNtp1158
Rp1159
ag67
(L383356800000000000L
NNtp1160
Rp1161
ag67
(L384048000000000000L
NNtp1162
Rp1163
ag67
(L384134400000000000L
NNtp1164
Rp1165
ag67
(L384220800000000000L
NNtp1166
Rp1167
ag67
(L384393600000000000L
NNtp1168
Rp1169
ag67
(L384480000000000000L
NNtp1170
Rp1171
ag67
(L384652800000000000L
NNtp1172
Rp1173
ag67
(L384998400000000000L
NNtp1174
Rp1175
ag67
(L385084800000000000L
NNtp1176
Rp1177
ag67
(L385171200000000000L
NNtp1178
Rp1179
ag67
(L385257600000000000L
NNtp1180
Rp1181
ag67
(L385344000000000000L
NNtp1182
Rp1183
ag67
(L385430400000000000L
NNtp1184
Rp1185
ag67
(L385603200000000000L
NNtp1186
Rp1187
ag67
(L385689600000000000L
NNtp1188
Rp1189
ag67
(L385862400000000000L
NNtp1190
Rp1191
ag67
(L385948800000000000L
NNtp1192
Rp1193
ag67
(L386035200000000000L
NNtp1194
Rp1195
ag67
(L386294400000000000L
NNtp1196
Rp1197
ag67
(L386380800000000000L
NNtp1198
Rp1199
ag67
(L386467200000000000L
NNtp1200
Rp1201
ag67
(L387244800000000000L
NNtp1202
Rp1203
ag67
(L387417600000000000L
NNtp1204
Rp1205
ag67
(L387504000000000000L
NNtp1206
Rp1207
ag67
(L387936000000000000L
NNtp1208
Rp1209
ag67
(L388022400000000000L
NNtp1210
Rp1211
ag67
(L388108800000000000L
NNtp1212
Rp1213
ag67
(L388195200000000000L
NNtp1214
Rp1215
ag67
(L388281600000000000L
NNtp1216
Rp1217
ag67
(L388540800000000000L
NNtp1218
Rp1219
ag67
(L388800000000000000L
NNtp1220
Rp1221
ag67
(L389059200000000000L
NNtp1222
Rp1223
ag67
(L389145600000000000L
NNtp1224
Rp1225
ag67
(L389318400000000000L
NNtp1226
Rp1227
ag67
(L389750400000000000L
NNtp1228
Rp1229
ag67
(L390182400000000000L
NNtp1230
Rp1231
ag67
(L390355200000000000L
NNtp1232
Rp1233
ag67
(L390614400000000000L
NNtp1234
Rp1235
ag67
(L390700800000000000L
NNtp1236
Rp1237
ag67
(L390873600000000000L
NNtp1238
Rp1239
ag67
(L390960000000000000L
NNtp1240
Rp1241
ag67
(L391132800000000000L
NNtp1242
Rp1243
ag67
(L391305600000000000L
NNtp1244
Rp1245
ag67
(L391392000000000000L
NNtp1246
Rp1247
ag67
(L391824000000000000L
NNtp1248
Rp1249
ag67
(L392169600000000000L
NNtp1250
Rp1251
ag67
(L392688000000000000L
NNtp1252
Rp1253
ag67
(L392860800000000000L
NNtp1254
Rp1255
ag67
(L392947200000000000L
NNtp1256
Rp1257
ag67
(L393206400000000000L
NNtp1258
Rp1259
ag67
(L393379200000000000L
NNtp1260
Rp1261
ag67
(L393465600000000000L
NNtp1262
Rp1263
ag67
(L393552000000000000L
NNtp1264
Rp1265
ag67
(L393724800000000000L
NNtp1266
Rp1267
ag67
(L393811200000000000L
NNtp1268
Rp1269
ag67
(L393897600000000000L
NNtp1270
Rp1271
ag67
(L394070400000000000L
NNtp1272
Rp1273
ag67
(L394156800000000000L
NNtp1274
Rp1275
ag67
(L394243200000000000L
NNtp1276
Rp1277
ag67
(L394329600000000000L
NNtp1278
Rp1279
ag67
(L394416000000000000L
NNtp1280
Rp1281
ag67
(L394588800000000000L
NNtp1282
Rp1283
ag67
(L394848000000000000L
NNtp1284
Rp1285
ag67
(L394934400000000000L
NNtp1286
Rp1287
ag67
(L395107200000000000L
NNtp1288
Rp1289
ag67
(L395193600000000000L
NNtp1290
Rp1291
ag67
(L395280000000000000L
NNtp1292
Rp1293
ag67
(L395539200000000000L
NNtp1294
Rp1295
ag67
(L395625600000000000L
NNtp1296
Rp1297
ag67
(L395884800000000000L
NNtp1298
Rp1299
ag67
(L395971200000000000L
NNtp1300
Rp1301
ag67
(L396057600000000000L
NNtp1302
Rp1303
ag67
(L396230400000000000L
NNtp1304
Rp1305
ag67
(L396403200000000000L
NNtp1306
Rp1307
ag67
(L396576000000000000L
NNtp1308
Rp1309
ag67
(L396662400000000000L
NNtp1310
Rp1311
ag67
(L397008000000000000L
NNtp1312
Rp1313
ag67
(L397353600000000000L
NNtp1314
Rp1315
ag67
(L397440000000000000L
NNtp1316
Rp1317
ag67
(L397872000000000000L
NNtp1318
Rp1319
ag67
(L398476800000000000L
NNtp1320
Rp1321
ag67
(L398563200000000000L
NNtp1322
Rp1323
ag67
(L398649600000000000L
NNtp1324
Rp1325
ag67
(L398822400000000000L
NNtp1326
Rp1327
ag67
(L398995200000000000L
NNtp1328
Rp1329
ag67
(L399168000000000000L
NNtp1330
Rp1331
ag67
(L399686400000000000L
NNtp1332
Rp1333
ag67
(L399859200000000000L
NNtp1334
Rp1335
ag67
(L399945600000000000L
NNtp1336
Rp1337
ag67
(L400032000000000000L
NNtp1338
Rp1339
ag67
(L400118400000000000L
NNtp1340
Rp1341
ag67
(L400291200000000000L
NNtp1342
Rp1343
ag67
(L400377600000000000L
NNtp1344
Rp1345
ag67
(L400550400000000000L
NNtp1346
Rp1347
ag67
(L400636800000000000L
NNtp1348
Rp1349
ag67
(L400809600000000000L
NNtp1350
Rp1351
ag67
(L400896000000000000L
NNtp1352
Rp1353
ag67
(L401155200000000000L
NNtp1354
Rp1355
ag67
(L401241600000000000L
NNtp1356
Rp1357
ag67
(L401328000000000000L
NNtp1358
Rp1359
ag67
(L401414400000000000L
NNtp1360
Rp1361
ag67
(L401500800000000000L
NNtp1362
Rp1363
ag67
(L401673600000000000L
NNtp1364
Rp1365
ag67
(L401760000000000000L
NNtp1366
Rp1367
ag67
(L401846400000000000L
NNtp1368
Rp1369
ag67
(L402105600000000000L
NNtp1370
Rp1371
ag67
(L402192000000000000L
NNtp1372
Rp1373
ag67
(L402537600000000000L
NNtp1374
Rp1375
ag67
(L402710400000000000L
NNtp1376
Rp1377
ag67
(L402796800000000000L
NNtp1378
Rp1379
ag67
(L402969600000000000L
NNtp1380
Rp1381
ag67
(L403056000000000000L
NNtp1382
Rp1383
ag67
(L403315200000000000L
NNtp1384
Rp1385
ag67
(L403488000000000000L
NNtp1386
Rp1387
ag67
(L403747200000000000L
NNtp1388
Rp1389
ag67
(L403833600000000000L
NNtp1390
Rp1391
ag67
(L404006400000000000L
NNtp1392
Rp1393
ag67
(L404092800000000000L
NNtp1394
Rp1395
ag67
(L404179200000000000L
NNtp1396
Rp1397
ag67
(L404265600000000000L
NNtp1398
Rp1399
ag67
(L404352000000000000L
NNtp1400
Rp1401
ag67
(L404524800000000000L
NNtp1402
Rp1403
ag67
(L404870400000000000L
NNtp1404
Rp1405
ag67
(L404956800000000000L
NNtp1406
Rp1407
ag67
(L405043200000000000L
NNtp1408
Rp1409
ag67
(L405129600000000000L
NNtp1410
Rp1411
ag67
(L405216000000000000L
NNtp1412
Rp1413
ag67
(L405302400000000000L
NNtp1414
Rp1415
ag67
(L405475200000000000L
NNtp1416
Rp1417
ag67
(L405561600000000000L
NNtp1418
Rp1419
ag67
(L405734400000000000L
NNtp1420
Rp1421
ag67
(L405820800000000000L
NNtp1422
Rp1423
ag67
(L405907200000000000L
NNtp1424
Rp1425
ag67
(L405993600000000000L
NNtp1426
Rp1427
ag67
(L406080000000000000L
NNtp1428
Rp1429
ag67
(L406339200000000000L
NNtp1430
Rp1431
ag67
(L406598400000000000L
NNtp1432
Rp1433
ag67
(L406684800000000000L
NNtp1434
Rp1435
ag67
(L406857600000000000L
NNtp1436
Rp1437
ag67
(L407116800000000000L
NNtp1438
Rp1439
ag67
(L407203200000000000L
NNtp1440
Rp1441
ag67
(L407289600000000000L
NNtp1442
Rp1443
ag67
(L407376000000000000L
NNtp1444
Rp1445
ag67
(L407635200000000000L
NNtp1446
Rp1447
ag67
(L407721600000000000L
NNtp1448
Rp1449
ag67
(L407808000000000000L
NNtp1450
Rp1451
ag67
(L408240000000000000L
NNtp1452
Rp1453
ag67
(L408326400000000000L
NNtp1454
Rp1455
ag67
(L408412800000000000L
NNtp1456
Rp1457
ag67
(L408499200000000000L
NNtp1458
Rp1459
ag67
(L408585600000000000L
NNtp1460
Rp1461
ag67
(L408672000000000000L
NNtp1462
Rp1463
ag67
(L408758400000000000L
NNtp1464
Rp1465
ag67
(L408844800000000000L
NNtp1466
Rp1467
ag67
(L409104000000000000L
NNtp1468
Rp1469
ag67
(L409190400000000000L
NNtp1470
Rp1471
ag67
(L409276800000000000L
NNtp1472
Rp1473
ag67
(L409363200000000000L
NNtp1474
Rp1475
ag67
(L409536000000000000L
NNtp1476
Rp1477
ag67
(L409708800000000000L
NNtp1478
Rp1479
ag67
(L410054400000000000L
NNtp1480
Rp1481
ag67
(L410227200000000000L
NNtp1482
Rp1483
ag67
(L410313600000000000L
NNtp1484
Rp1485
ag67
(L410486400000000000L
NNtp1486
Rp1487
ag67
(L410832000000000000L
NNtp1488
Rp1489
ag67
(L410918400000000000L
NNtp1490
Rp1491
ag67
(L411091200000000000L
NNtp1492
Rp1493
ag67
(L411177600000000000L
NNtp1494
Rp1495
ag67
(L411350400000000000L
NNtp1496
Rp1497
ag67
(L411436800000000000L
NNtp1498
Rp1499
ag67
(L411609600000000000L
NNtp1500
Rp1501
ag67
(L411782400000000000L
NNtp1502
Rp1503
ag67
(L412041600000000000L
NNtp1504
Rp1505
ag67
(L412214400000000000L
NNtp1506
Rp1507
ag67
(L412300800000000000L
NNtp1508
Rp1509
ag67
(L412387200000000000L
NNtp1510
Rp1511
ag67
(L412560000000000000L
NNtp1512
Rp1513
ag67
(L412732800000000000L
NNtp1514
Rp1515
ag67
(L413251200000000000L
NNtp1516
Rp1517
ag67
(L413424000000000000L
NNtp1518
Rp1519
ag67
(L413683200000000000L
NNtp1520
Rp1521
ag67
(L413769600000000000L
NNtp1522
Rp1523
ag67
(L413942400000000000L
NNtp1524
Rp1525
ag67
(L414115200000000000L
NNtp1526
Rp1527
ag67
(L414374400000000000L
NNtp1528
Rp1529
ag67
(L414633600000000000L
NNtp1530
Rp1531
ag67
(L414720000000000000L
NNtp1532
Rp1533
ag67
(L414892800000000000L
NNtp1534
Rp1535
ag67
(L415238400000000000L
NNtp1536
Rp1537
ag67
(L415584000000000000L
NNtp1538
Rp1539
ag67
(L415670400000000000L
NNtp1540
Rp1541
ag67
(L416016000000000000L
NNtp1542
Rp1543
ag67
(L416188800000000000L
NNtp1544
Rp1545
ag67
(L416275200000000000L
NNtp1546
Rp1547
ag67
(L416361600000000000L
NNtp1548
Rp1549
ag67
(L416448000000000000L
NNtp1550
Rp1551
ag67
(L416793600000000000L
NNtp1552
Rp1553
ag67
(L416880000000000000L
NNtp1554
Rp1555
ag67
(L416966400000000000L
NNtp1556
Rp1557
ag67
(L417139200000000000L
NNtp1558
Rp1559
ag67
(L417398400000000000L
NNtp1560
Rp1561
ag67
(L418003200000000000L
NNtp1562
Rp1563
as(g1
g29
tp1564
(lp1565
g67
(L341884800000000000L
NNtp1566
Rp1567
ag67
(L341971200000000000L
NNtp1568
Rp1569
ag67
(L342057600000000000L
NNtp1570
Rp1571
ag67
(L342144000000000000L
NNtp1572
Rp1573
ag67
(L342316800000000000L
NNtp1574
Rp1575
ag67
(L342662400000000000L
NNtp1576
Rp1577
ag67
(L342748800000000000L
NNtp1578
Rp1579
ag67
(L342835200000000000L
NNtp1580
Rp1581
ag67
(L343267200000000000L
NNtp1582
Rp1583
ag67
(L343440000000000000L
NNtp1584
Rp1585
ag67
(L343526400000000000L
NNtp1586
Rp1587
ag67
(L343699200000000000L
NNtp1588
Rp1589
ag67
(L343785600000000000L
NNtp1590
Rp1591
ag67
(L343872000000000000L
NNtp1592
Rp1593
ag67
(L344044800000000000L
NNtp1594
Rp1595
ag67
(L344563200000000000L
NNtp1596
Rp1597
ag67
(L344736000000000000L
NNtp1598
Rp1599
ag67
(L344908800000000000L
NNtp1600
Rp1601
ag67
(L345254400000000000L
NNtp1602
Rp1603
ag67
(L345513600000000000L
NNtp1604
Rp1605
ag67
(L345772800000000000L
NNtp1606
Rp1607
ag67
(L345945600000000000L
NNtp1608
Rp1609
ag67
(L346032000000000000L
NNtp1610
Rp1611
ag67
(L346118400000000000L
NNtp1612
Rp1613
ag67
(L346723200000000000L
NNtp1614
Rp1615
ag67
(L346896000000000000L
NNtp1616
Rp1617
ag67
(L346982400000000000L
NNtp1618
Rp1619
ag67
(L347241600000000000L
NNtp1620
Rp1621
ag67
(L347414400000000000L
NNtp1622
Rp1623
ag67
(L347500800000000000L
NNtp1624
Rp1625
ag67
(L347587200000000000L
NNtp1626
Rp1627
ag67
(L348624000000000000L
NNtp1628
Rp1629
ag67
(L348710400000000000L
NNtp1630
Rp1631
ag67
(L348969600000000000L
NNtp1632
Rp1633
ag67
(L349056000000000000L
NNtp1634
Rp1635
ag67
(L349228800000000000L
NNtp1636
Rp1637
ag67
(L349315200000000000L
NNtp1638
Rp1639
ag67
(L349488000000000000L
NNtp1640
Rp1641
ag67
(L349574400000000000L
NNtp1642
Rp1643
ag67
(L349747200000000000L
NNtp1644
Rp1645
ag67
(L349920000000000000L
NNtp1646
Rp1647
ag67
(L350265600000000000L
NNtp1648
Rp1649
ag67
(L350352000000000000L
NNtp1650
Rp1651
ag67
(L350438400000000000L
NNtp1652
Rp1653
ag67
(L350697600000000000L
NNtp1654
Rp1655
ag67
(L350784000000000000L
NNtp1656
Rp1657
ag67
(L350870400000000000L
NNtp1658
Rp1659
ag67
(L351043200000000000L
NNtp1660
Rp1661
ag67
(L351216000000000000L
NNtp1662
Rp1663
ag67
(L351388800000000000L
NNtp1664
Rp1665
ag67
(L351475200000000000L
NNtp1666
Rp1667
ag67
(L351820800000000000L
NNtp1668
Rp1669
ag67
(L351907200000000000L
NNtp1670
Rp1671
ag67
(L351993600000000000L
NNtp1672
Rp1673
ag67
(L352166400000000000L
NNtp1674
Rp1675
ag67
(L352252800000000000L
NNtp1676
Rp1677
ag67
(L352771200000000000L
NNtp1678
Rp1679
ag67
(L352857600000000000L
NNtp1680
Rp1681
ag67
(L353030400000000000L
NNtp1682
Rp1683
ag67
(L353203200000000000L
NNtp1684
Rp1685
ag67
(L353289600000000000L
NNtp1686
Rp1687
ag67
(L353462400000000000L
NNtp1688
Rp1689
ag67
(L353548800000000000L
NNtp1690
Rp1691
ag67
(L353980800000000000L
NNtp1692
Rp1693
ag67
(L354067200000000000L
NNtp1694
Rp1695
ag67
(L354326400000000000L
NNtp1696
Rp1697
ag67
(L354844800000000000L
NNtp1698
Rp1699
ag67
(L355104000000000000L
NNtp1700
Rp1701
ag67
(L355190400000000000L
NNtp1702
Rp1703
ag67
(L355276800000000000L
NNtp1704
Rp1705
ag67
(L355363200000000000L
NNtp1706
Rp1707
ag67
(L355708800000000000L
NNtp1708
Rp1709
ag67
(L355795200000000000L
NNtp1710
Rp1711
ag67
(L355881600000000000L
NNtp1712
Rp1713
ag67
(L356313600000000000L
NNtp1714
Rp1715
ag67
(L356486400000000000L
NNtp1716
Rp1717
ag67
(L356745600000000000L
NNtp1718
Rp1719
ag67
(L356918400000000000L
NNtp1720
Rp1721
ag67
(L357091200000000000L
NNtp1722
Rp1723
ag67
(L357177600000000000L
NNtp1724
Rp1725
ag67
(L357350400000000000L
NNtp1726
Rp1727
ag67
(L373420800000000000L
NNtp1728
Rp1729
ag67
(L373680000000000000L
NNtp1730
Rp1731
ag67
(L373766400000000000L
NNtp1732
Rp1733
ag67
(L373939200000000000L
NNtp1734
Rp1735
ag67
(L374112000000000000L
NNtp1736
Rp1737
ag67
(L374284800000000000L
NNtp1738
Rp1739
ag67
(L374371200000000000L
NNtp1740
Rp1741
ag67
(L374457600000000000L
NNtp1742
Rp1743
ag67
(L374630400000000000L
NNtp1744
Rp1745
ag67
(L374716800000000000L
NNtp1746
Rp1747
ag67
(L374803200000000000L
NNtp1748
Rp1749
ag67
(L375062400000000000L
NNtp1750
Rp1751
ag67
(L375494400000000000L
NNtp1752
Rp1753
ag67
(L375667200000000000L
NNtp1754
Rp1755
ag67
(L376185600000000000L
NNtp1756
Rp1757
ag67
(L376358400000000000L
NNtp1758
Rp1759
ag67
(L376963200000000000L
NNtp1760
Rp1761
ag67
(L377049600000000000L
NNtp1762
Rp1763
ag67
(L377308800000000000L
NNtp1764
Rp1765
ag67
(L377395200000000000L
NNtp1766
Rp1767
ag67
(L377481600000000000L
NNtp1768
Rp1769
ag67
(L377654400000000000L
NNtp1770
Rp1771
ag67
(L377827200000000000L
NNtp1772
Rp1773
ag67
(L377913600000000000L
NNtp1774
Rp1775
ag67
(L378086400000000000L
NNtp1776
Rp1777
ag67
(L378172800000000000L
NNtp1778
Rp1779
ag67
(L378259200000000000L
NNtp1780
Rp1781
ag67
(L378345600000000000L
NNtp1782
Rp1783
ag67
(L378432000000000000L
NNtp1784
Rp1785
ag67
(L378604800000000000L
NNtp1786
Rp1787
ag67
(L378691200000000000L
NNtp1788
Rp1789
ag67
(L378864000000000000L
NNtp1790
Rp1791
ag67
(L379036800000000000L
NNtp1792
Rp1793
ag67
(L379296000000000000L
NNtp1794
Rp1795
ag67
(L379382400000000000L
NNtp1796
Rp1797
ag67
(L379468800000000000L
NNtp1798
Rp1799
ag67
(L379814400000000000L
NNtp1800
Rp1801
ag67
(L379987200000000000L
NNtp1802
Rp1803
ag67
(L380073600000000000L
NNtp1804
Rp1805
ag67
(L380160000000000000L
NNtp1806
Rp1807
ag67
(L380592000000000000L
NNtp1808
Rp1809
ag67
(L380678400000000000L
NNtp1810
Rp1811
ag67
(L380764800000000000L
NNtp1812
Rp1813
ag67
(L380851200000000000L
NNtp1814
Rp1815
ag67
(L380937600000000000L
NNtp1816
Rp1817
ag67
(L381283200000000000L
NNtp1818
Rp1819
ag67
(L381456000000000000L
NNtp1820
Rp1821
ag67
(L381628800000000000L
NNtp1822
Rp1823
ag67
(L381888000000000000L
NNtp1824
Rp1825
ag67
(L381974400000000000L
NNtp1826
Rp1827
ag67
(L382147200000000000L
NNtp1828
Rp1829
ag67
(L382320000000000000L
NNtp1830
Rp1831
ag67
(L382492800000000000L
NNtp1832
Rp1833
ag67
(L382579200000000000L
NNtp1834
Rp1835
ag67
(L382665600000000000L
NNtp1836
Rp1837
ag67
(L382752000000000000L
NNtp1838
Rp1839
ag67
(L383011200000000000L
NNtp1840
Rp1841
ag67
(L383097600000000000L
NNtp1842
Rp1843
ag67
(L383356800000000000L
NNtp1844
Rp1845
ag67
(L383529600000000000L
NNtp1846
Rp1847
ag67
(L383616000000000000L
NNtp1848
Rp1849
ag67
(L383961600000000000L
NNtp1850
Rp1851
ag67
(L384220800000000000L
NNtp1852
Rp1853
ag67
(L384393600000000000L
NNtp1854
Rp1855
ag67
(L384480000000000000L
NNtp1856
Rp1857
ag67
(L384912000000000000L
NNtp1858
Rp1859
ag67
(L384998400000000000L
NNtp1860
Rp1861
ag67
(L385344000000000000L
NNtp1862
Rp1863
ag67
(L385430400000000000L
NNtp1864
Rp1865
ag67
(L385516800000000000L
NNtp1866
Rp1867
ag67
(L385862400000000000L
NNtp1868
Rp1869
ag67
(L386121600000000000L
NNtp1870
Rp1871
ag67
(L386294400000000000L
NNtp1872
Rp1873
ag67
(L386467200000000000L
NNtp1874
Rp1875
ag67
(L386553600000000000L
NNtp1876
Rp1877
ag67
(L386726400000000000L
NNtp1878
Rp1879
ag67
(L387072000000000000L
NNtp1880
Rp1881
ag67
(L387158400000000000L
NNtp1882
Rp1883
ag67
(L387244800000000000L
NNtp1884
Rp1885
ag67
(L387331200000000000L
NNtp1886
Rp1887
ag67
(L387417600000000000L
NNtp1888
Rp1889
ag67
(L387504000000000000L
NNtp1890
Rp1891
ag67
(L387676800000000000L
NNtp1892
Rp1893
ag67
(L387763200000000000L
NNtp1894
Rp1895
ag67
(L387936000000000000L
NNtp1896
Rp1897
ag67
(L388022400000000000L
NNtp1898
Rp1899
ag67
(L388108800000000000L
NNtp1900
Rp1901
ag67
(L388368000000000000L
NNtp1902
Rp1903
ag67
(L388454400000000000L
NNtp1904
Rp1905
ag67
(L388540800000000000L
NNtp1906
Rp1907
ag67
(L388713600000000000L
NNtp1908
Rp1909
ag67
(L388972800000000000L
NNtp1910
Rp1911
ag67
(L405129600000000000L
NNtp1912
Rp1913
ag67
(L405216000000000000L
NNtp1914
Rp1915
ag67
(L405302400000000000L
NNtp1916
Rp1917
ag67
(L405388800000000000L
NNtp1918
Rp1919
ag67
(L405475200000000000L
NNtp1920
Rp1921
ag67
(L405734400000000000L
NNtp1922
Rp1923
ag67
(L406080000000000000L
NNtp1924
Rp1925
ag67
(L406512000000000000L
NNtp1926
Rp1927
ag67
(L406684800000000000L
NNtp1928
Rp1929
ag67
(L406944000000000000L
NNtp1930
Rp1931
ag67
(L407030400000000000L
NNtp1932
Rp1933
ag67
(L407203200000000000L
NNtp1934
Rp1935
ag67
(L407289600000000000L
NNtp1936
Rp1937
ag67
(L407462400000000000L
NNtp1938
Rp1939
ag67
(L407635200000000000L
NNtp1940
Rp1941
ag67
(L407894400000000000L
NNtp1942
Rp1943
ag67
(L408067200000000000L
NNtp1944
Rp1945
ag67
(L408153600000000000L
NNtp1946
Rp1947
ag67
(L408240000000000000L
NNtp1948
Rp1949
ag67
(L408412800000000000L
NNtp1950
Rp1951
ag67
(L408499200000000000L
NNtp1952
Rp1953
ag67
(L408585600000000000L
NNtp1954
Rp1955
ag67
(L408758400000000000L
NNtp1956
Rp1957
ag67
(L408844800000000000L
NNtp1958
Rp1959
ag67
(L408931200000000000L
NNtp1960
Rp1961
ag67
(L409104000000000000L
NNtp1962
Rp1963
ag67
(L409190400000000000L
NNtp1964
Rp1965
ag67
(L409276800000000000L
NNtp1966
Rp1967
ag67
(L409622400000000000L
NNtp1968
Rp1969
ag67
(L409708800000000000L
NNtp1970
Rp1971
ag67
(L409795200000000000L
NNtp1972
Rp1973
ag67
(L409968000000000000L
NNtp1974
Rp1975
ag67
(L410140800000000000L
NNtp1976
Rp1977
ag67
(L410313600000000000L
NNtp1978
Rp1979
ag67
(L410400000000000000L
NNtp1980
Rp1981
ag67
(L410745600000000000L
NNtp1982
Rp1983
ag67
(L411264000000000000L
NNtp1984
Rp1985
ag67
(L411436800000000000L
NNtp1986
Rp1987
ag67
(L411609600000000000L
NNtp1988
Rp1989
ag67
(L412128000000000000L
NNtp1990
Rp1991
ag67
(L412300800000000000L
NNtp1992
Rp1993
ag67
(L412387200000000000L
NNtp1994
Rp1995
ag67
(L412473600000000000L
NNtp1996
Rp1997
ag67
(L412560000000000000L
NNtp1998
Rp1999
ag67
(L412819200000000000L
NNtp2000
Rp2001
ag67
(L412905600000000000L
NNtp2002
Rp2003
ag67
(L413164800000000000L
NNtp2004
Rp2005
ag67
(L413251200000000000L
NNtp2006
Rp2007
ag67
(L413337600000000000L
NNtp2008
Rp2009
ag67
(L413424000000000000L
NNtp2010
Rp2011
ag67
(L413510400000000000L
NNtp2012
Rp2013
ag67
(L413683200000000000L
NNtp2014
Rp2015
ag67
(L413769600000000000L
NNtp2016
Rp2017
ag67
(L413856000000000000L
NNtp2018
Rp2019
ag67
(L414115200000000000L
NNtp2020
Rp2021
ag67
(L414201600000000000L
NNtp2022
Rp2023
ag67
(L414547200000000000L
NNtp2024
Rp2025
ag67
(L414720000000000000L
NNtp2026
Rp2027
ag67
(L414806400000000000L
NNtp2028
Rp2029
ag67
(L414979200000000000L
NNtp2030
Rp2031
ag67
(L415065600000000000L
NNtp2032
Rp2033
ag67
(L415152000000000000L
NNtp2034
Rp2035
ag67
(L415324800000000000L
NNtp2036
Rp2037
ag67
(L415670400000000000L
NNtp2038
Rp2039
ag67
(L415756800000000000L
NNtp2040
Rp2041
ag67
(L415843200000000000L
NNtp2042
Rp2043
ag67
(L415929600000000000L
NNtp2044
Rp2045
ag67
(L416016000000000000L
NNtp2046
Rp2047
ag67
(L416102400000000000L
NNtp2048
Rp2049
ag67
(L416275200000000000L
NNtp2050
Rp2051
ag67
(L416361600000000000L
NNtp2052
Rp2053
ag67
(L416448000000000000L
NNtp2054
Rp2055
ag67
(L416534400000000000L
NNtp2056
Rp2057
ag67
(L416620800000000000L
NNtp2058
Rp2059
ag67
(L416707200000000000L
NNtp2060
Rp2061
ag67
(L416966400000000000L
NNtp2062
Rp2063
ag67
(L417052800000000000L
NNtp2064
Rp2065
ag67
(L417139200000000000L
NNtp2066
Rp2067
ag67
(L417571200000000000L
NNtp2068
Rp2069
ag67
(L417657600000000000L
NNtp2070
Rp2071
ag67
(L417744000000000000L
NNtp2072
Rp2073
ag67
(L417830400000000000L
NNtp2074
Rp2075
ag67
(L417916800000000000L
NNtp2076
Rp2077
ag67
(L418089600000000000L
NNtp2078
Rp2079
ag67
(L418176000000000000L
NNtp2080
Rp2081
ag67
(L418348800000000000L
NNtp2082
Rp2083
ag67
(L418521600000000000L
NNtp2084
Rp2085
ag67
(L418867200000000000L
NNtp2086
Rp2087
ag67
(L419040000000000000L
NNtp2088
Rp2089
ag67
(L419126400000000000L
NNtp2090
Rp2091
ag67
(L419558400000000000L
NNtp2092
Rp2093
ag67
(L419644800000000000L
NNtp2094
Rp2095
ag67
(L419817600000000000L
NNtp2096
Rp2097
ag67
(L419904000000000000L
NNtp2098
Rp2099
ag67
(L420076800000000000L
NNtp2100
Rp2101
ag67
(L420163200000000000L
NNtp2102
Rp2103
ag67
(L420336000000000000L
NNtp2104
Rp2105
ag67
(L420508800000000000L
NNtp2106
Rp2107
ag67
(L436665600000000000L
NNtp2108
Rp2109
ag67
(L437184000000000000L
NNtp2110
Rp2111
ag67
(L437356800000000000L
NNtp2112
Rp2113
ag67
(L437616000000000000L
NNtp2114
Rp2115
ag67
(L437702400000000000L
NNtp2116
Rp2117
ag67
(L437875200000000000L
NNtp2118
Rp2119
ag67
(L438048000000000000L
NNtp2120
Rp2121
ag67
(L438307200000000000L
NNtp2122
Rp2123
ag67
(L438739200000000000L
NNtp2124
Rp2125
ag67
(L438912000000000000L
NNtp2126
Rp2127
ag67
(L438998400000000000L
NNtp2128
Rp2129
ag67
(L439084800000000000L
NNtp2130
Rp2131
ag67
(L439171200000000000L
NNtp2132
Rp2133
ag67
(L439603200000000000L
NNtp2134
Rp2135
ag67
(L439689600000000000L
NNtp2136
Rp2137
ag67
(L439776000000000000L
NNtp2138
Rp2139
as(g1
g34
tp2140
(lp2141
g67
(L352252800000000000L
NNtp2142
Rp2143
ag67
(L352598400000000000L
NNtp2144
Rp2145
ag67
(L352684800000000000L
NNtp2146
Rp2147
ag67
(L352944000000000000L
NNtp2148
Rp2149
ag67
(L353116800000000000L
NNtp2150
Rp2151
ag67
(L353289600000000000L
NNtp2152
Rp2153
ag67
(L353376000000000000L
NNtp2154
Rp2155
ag67
(L353635200000000000L
NNtp2156
Rp2157
ag67
(L353894400000000000L
NNtp2158
Rp2159
ag67
(L354067200000000000L
NNtp2160
Rp2161
ag67
(L354153600000000000L
NNtp2162
Rp2163
ag67
(L354240000000000000L
NNtp2164
Rp2165
ag67
(L354672000000000000L
NNtp2166
Rp2167
ag67
(L355536000000000000L
NNtp2168
Rp2169
ag67
(L355795200000000000L
NNtp2170
Rp2171
ag67
(L355968000000000000L
NNtp2172
Rp2173
ag67
(L356054400000000000L
NNtp2174
Rp2175
ag67
(L356140800000000000L
NNtp2176
Rp2177
ag67
(L356400000000000000L
NNtp2178
Rp2179
ag67
(L356486400000000000L
NNtp2180
Rp2181
ag67
(L356659200000000000L
NNtp2182
Rp2183
ag67
(L356832000000000000L
NNtp2184
Rp2185
ag67
(L357004800000000000L
NNtp2186
Rp2187
ag67
(L357264000000000000L
NNtp2188
Rp2189
ag67
(L357350400000000000L
NNtp2190
Rp2191
ag67
(L357523200000000000L
NNtp2192
Rp2193
ag67
(L357609600000000000L
NNtp2194
Rp2195
ag67
(L358128000000000000L
NNtp2196
Rp2197
ag67
(L358214400000000000L
NNtp2198
Rp2199
ag67
(L358819200000000000L
NNtp2200
Rp2201
ag67
(L358905600000000000L
NNtp2202
Rp2203
ag67
(L358992000000000000L
NNtp2204
Rp2205
ag67
(L359078400000000000L
NNtp2206
Rp2207
ag67
(L359424000000000000L
NNtp2208
Rp2209
ag67
(L359596800000000000L
NNtp2210
Rp2211
ag67
(L359683200000000000L
NNtp2212
Rp2213
ag67
(L359942400000000000L
NNtp2214
Rp2215
ag67
(L360115200000000000L
NNtp2216
Rp2217
ag67
(L383788800000000000L
NNtp2218
Rp2219
ag67
(L384393600000000000L
NNtp2220
Rp2221
ag67
(L384566400000000000L
NNtp2222
Rp2223
ag67
(L384652800000000000L
NNtp2224
Rp2225
ag67
(L384739200000000000L
NNtp2226
Rp2227
ag67
(L384912000000000000L
NNtp2228
Rp2229
ag67
(L385084800000000000L
NNtp2230
Rp2231
ag67
(L385689600000000000L
NNtp2232
Rp2233
ag67
(L385948800000000000L
NNtp2234
Rp2235
ag67
(L386035200000000000L
NNtp2236
Rp2237
ag67
(L386208000000000000L
NNtp2238
Rp2239
ag67
(L386294400000000000L
NNtp2240
Rp2241
ag67
(L386380800000000000L
NNtp2242
Rp2243
ag67
(L386812800000000000L
NNtp2244
Rp2245
ag67
(L386899200000000000L
NNtp2246
Rp2247
ag67
(L386985600000000000L
NNtp2248
Rp2249
ag67
(L387158400000000000L
NNtp2250
Rp2251
ag67
(L387244800000000000L
NNtp2252
Rp2253
ag67
(L387331200000000000L
NNtp2254
Rp2255
ag67
(L387590400000000000L
NNtp2256
Rp2257
ag67
(L387849600000000000L
NNtp2258
Rp2259
ag67
(L387936000000000000L
NNtp2260
Rp2261
ag67
(L388022400000000000L
NNtp2262
Rp2263
ag67
(L388281600000000000L
NNtp2264
Rp2265
ag67
(L388540800000000000L
NNtp2266
Rp2267
ag67
(L388627200000000000L
NNtp2268
Rp2269
ag67
(L389059200000000000L
NNtp2270
Rp2271
ag67
(L389232000000000000L
NNtp2272
Rp2273
ag67
(L389577600000000000L
NNtp2274
Rp2275
ag67
(L389836800000000000L
NNtp2276
Rp2277
ag67
(L390009600000000000L
NNtp2278
Rp2279
ag67
(L390268800000000000L
NNtp2280
Rp2281
ag67
(L390355200000000000L
NNtp2282
Rp2283
ag67
(L390441600000000000L
NNtp2284
Rp2285
ag67
(L390700800000000000L
NNtp2286
Rp2287
ag67
(L390787200000000000L
NNtp2288
Rp2289
ag67
(L390873600000000000L
NNtp2290
Rp2291
ag67
(L391219200000000000L
NNtp2292
Rp2293
ag67
(L391305600000000000L
NNtp2294
Rp2295
ag67
(L391564800000000000L
NNtp2296
Rp2297
ag67
(L415324800000000000L
NNtp2298
Rp2299
ag67
(L415497600000000000L
NNtp2300
Rp2301
ag67
(L415670400000000000L
NNtp2302
Rp2303
ag67
(L415843200000000000L
NNtp2304
Rp2305
ag67
(L415929600000000000L
NNtp2306
Rp2307
ag67
(L416361600000000000L
NNtp2308
Rp2309
ag67
(L416448000000000000L
NNtp2310
Rp2311
ag67
(L416534400000000000L
NNtp2312
Rp2313
ag67
(L416707200000000000L
NNtp2314
Rp2315
ag67
(L416793600000000000L
NNtp2316
Rp2317
ag67
(L416966400000000000L
NNtp2318
Rp2319
ag67
(L417052800000000000L
NNtp2320
Rp2321
ag67
(L417398400000000000L
NNtp2322
Rp2323
ag67
(L417744000000000000L
NNtp2324
Rp2325
ag67
(L417830400000000000L
NNtp2326
Rp2327
ag67
(L418003200000000000L
NNtp2328
Rp2329
ag67
(L418089600000000000L
NNtp2330
Rp2331
ag67
(L418176000000000000L
NNtp2332
Rp2333
ag67
(L418348800000000000L
NNtp2334
Rp2335
ag67
(L418435200000000000L
NNtp2336
Rp2337
ag67
(L418521600000000000L
NNtp2338
Rp2339
ag67
(L418694400000000000L
NNtp2340
Rp2341
ag67
(L418867200000000000L
NNtp2342
Rp2343
ag67
(L418953600000000000L
NNtp2344
Rp2345
ag67
(L419126400000000000L
NNtp2346
Rp2347
ag67
(L419212800000000000L
NNtp2348
Rp2349
ag67
(L419299200000000000L
NNtp2350
Rp2351
ag67
(L419558400000000000L
NNtp2352
Rp2353
ag67
(L419731200000000000L
NNtp2354
Rp2355
ag67
(L419817600000000000L
NNtp2356
Rp2357
ag67
(L419904000000000000L
NNtp2358
Rp2359
ag67
(L420076800000000000L
NNtp2360
Rp2361
ag67
(L420163200000000000L
NNtp2362
Rp2363
ag67
(L420336000000000000L
NNtp2364
Rp2365
ag67
(L420508800000000000L
NNtp2366
Rp2367
ag67
(L420595200000000000L
NNtp2368
Rp2369
ag67
(L420681600000000000L
NNtp2370
Rp2371
ag67
(L420768000000000000L
NNtp2372
Rp2373
ag67
(L420854400000000000L
NNtp2374
Rp2375
ag67
(L420940800000000000L
NNtp2376
Rp2377
ag67
(L421027200000000000L
NNtp2378
Rp2379
ag67
(L421286400000000000L
NNtp2380
Rp2381
ag67
(L421459200000000000L
NNtp2382
Rp2383
ag67
(L421545600000000000L
NNtp2384
Rp2385
ag67
(L421718400000000000L
NNtp2386
Rp2387
ag67
(L421804800000000000L
NNtp2388
Rp2389
ag67
(L421977600000000000L
NNtp2390
Rp2391
ag67
(L422236800000000000L
NNtp2392
Rp2393
ag67
(L422496000000000000L
NNtp2394
Rp2395
ag67
(L422668800000000000L
NNtp2396
Rp2397
ag67
(L422841600000000000L
NNtp2398
Rp2399
ag67
(L423014400000000000L
NNtp2400
Rp2401
ag67
(L446947200000000000L
NNtp2402
Rp2403
ag67
(L447206400000000000L
NNtp2404
Rp2405
ag67
(L447292800000000000L
NNtp2406
Rp2407
ag67
(L447638400000000000L
NNtp2408
Rp2409
ag67
(L447724800000000000L
NNtp2410
Rp2411
ag67
(L447811200000000000L
NNtp2412
Rp2413
ag67
(L447984000000000000L
NNtp2414
Rp2415
ag67
(L448243200000000000L
NNtp2416
Rp2417
as(dp2418
(g1
g2
tp2419
g4
(g8
S'?\x07!\x85p\xba\xf6?'
p2420
tp2421
Rp2422
s(g1
g14
tp2423
g4
(g8
S'X\xcd\x0c\x05G\xc2\xfa?'
p2424
tp2425
Rp2426
s(g1
g19
tp2427
g4
(g8
S'f&\x01\x13H\x1c\xfb?'
p2428
tp2429
Rp2430
s(g1
g24
tp2431
g4
(g8
S'D\xfb\x81\xf8\xba\x9f\xf6?'
p2432
tp2433
Rp2434
s(g1
g29
tp2435
g4
(g8
S'\x9d\x08g\xe9\x10W\xf7?'
p2436
tp2437
Rp2438
s(g1
g34
tp2439
g4
(g8
S'N\xd4\x00\xa4%\xa3\xfb?'
p2440
tp2441
Rp2442
s(dp2443
(g1
g2
tp2444
g4
(g8
S'J\xa1\x9cR\xc6z\xf2?'
p2445
tp2446
Rp2447
s(g1
g14
tp2448
g4
(g8
S'1\x15\x13\xdeH.\xfc?'
p2449
tp2450
Rp2451
s(g1
g19
tp2452
g4
(g8
S'\xadv%\xe2\x89\x97\xf1?'
p2453
tp2454
Rp2455
s(g1
g24
tp2456
g4
(g8
S'\x15\xb5\xb1{_x\xf7?'
p2457
tp2458
Rp2459
s(g1
g29
tp2460
g4
(g8
S'AT\xec\xd4k\xb6\xf1?'
p2461
tp2462
Rp2463
s(g1
g34
tp2464
g4
(g8
S'\x9a-\xfe$\x08\xc9\xe9?'
p2465
tp2466
Rp2467
s(dp2468
(g1
g2
tp2469
F0.07730247976010983
s(g1
g14
tp2470
F0.06999590744239416
s(g1
g19
tp2471
F0.20602564267454868
s(g1
g24
tp2472
F0.14104882905880192
s(g1
g29
tp2473
F0.20328861537395554
s(g1
g34
tp2474
F0.21134533031019684
s(dp2475
(g1
g2
tp2476
g4
(g8
S'\x99\x8a\xe7\x9a\xd5a\x1e@'
p2477
tp2478
Rp2479
s(g1
g14
tp2480
g4
(g8
S'|\x1aa\xb9\xa7\x91,@'
p2481
tp2482
Rp2483
s(g1
g19
tp2484
g4
(g8
S'0j\xf97$\xcc\x1c@'
p2485
tp2486
Rp2487
s(g1
g24
tp2488
g4
(g8
S"\xff\xd1\xdc\xa8\x08p'@"
p2489
tp2490
Rp2491
s(g1
g29
tp2492
g4
(g8
S'u\x05<\x94^\x10 @'
p2493
tp2494
Rp2495
s(g1
g34
tp2496
g4
(g8
S's \xd1\n\x9b\x83"@'
p2497
tp2498
Rp2499
s(dp2500
(g1
g2
tp2501
g4
(g8
S'\x85\xb9@\x9b\x05\xbe\xdd?'
p2502
tp2503
Rp2504
s(g1
g14
tp2505
g4
(g8
S'\x1bl\x04\x99\xa9\x07\xe2?'
p2506
tp2507
Rp2508
s(g1
g19
tp2509
g4
(g8
S'\xdb\xbe\xf7\xce\xb5\xde\xf0?'
p2510
tp2511
Rp2512
s(g1
g24
tp2513
g4
(g8
S'\xffK\x13\x93\xab\xa5\xed?'
p2514
tp2515
Rp2516
s(g1
g29
tp2517
g4
(g8
S'\xd2\xd6\xe5\xb6\xe0\xfd\xf4?'
p2518
tp2519
Rp2520
s(g1
g34
tp2521
g4
(g8
S'\x16\x86\xfc\xb2\xa1p\xf7?'
p2522
tp2523
Rp2524
s(dp2525
(g1
g2
tp2526
g4
(g8
S'\xb96\xa7\xe2\xbf\xcf\xf3?'
p2527
tp2528
Rp2529
s(g1
g14
tp2530
g4
(g8
S'\xf1p\xa2m|\x01\xf8?'
p2531
tp2532
Rp2533
s(g1
g19
tp2534
g4
(g8
S'\x15\xce\x1a\x8d\xd8`\xef?'
p2535
tp2536
Rp2537
s(g1
g24
tp2538
g4
(g8
S'\x9cT8\x13\x1f\xa5\xf9?'
p2539
tp2540
Rp2541
s(g1
g29
tp2542
g4
(g8
S'6\x99\xdf\xc5\xe5O\xf2?'
p2543
tp2544
Rp2545
s(g1
g34
tp2546
g4
(g8
S'\xca=\x0fK\xbf\x14\xe7?'
p2547
tp2548
Rp2549
s(dp2550
(g1
g2
tp2551
g4
(g8
S'\x9d\xec\x8f^\xae\x92\x96?'
p2552
tp2553
Rp2554
s(g1
g14
tp2555
g4
(g8
S'\x99\x14B\x0e\x9a\x98\x96?'
p2556
tp2557
Rp2558
s(g1
g19
tp2559
g4
(g8
S'\x93\xba\xfe\xa4\x04n\x98?'
p2560
tp2561
Rp2562
s(g1
g24
tp2563
g4
(g8
S'ep\\~\xc9 \x86?'
p2564
tp2565
Rp2566
s(g1
g29
tp2567
g4
(g8
S'1\x12\x88\x92\x97/\x90?'
p2568
tp2569
Rp2570
s(g1
g34
tp2571
g4
(g8
S'\xf2\x84\xc30\xb5+\x98?'
p2572
tp2573
Rp2574
s(dp2575
(g1
g2
tp2576
F0.12436174672319042
s(g1
g14
tp2577
F0.08452175548763181
s(g1
g19
tp2578
F0.23022022554354551
s(g1
g24
tp2579
F0.16146223386959882
s(g1
g29
tp2580
F0.22598306206837676
s(g1
g34
tp2581
F0.2202555251604264
s(dp2582
(g1
g2
tp2583
F0.12140844273856369
s(g1
g14
tp2584
F0.08719455787161773
s(g1
g19
tp2585
F0.2322268828710024
s(g1
g24
tp2586
F0.15666541193130912
s(g1
g29
tp2587
F0.21961788057152867
s(g1
g34
tp2588
F0.2269748969364732
s(dp2589
(dp2590
(dp2591
(g1
g2
tp2592
(lp2593
g4
(g8
S'\xe4!mb\xe4\n\x15@'
p2594
tp2595
Rp2596
ag4
(g8
S'\xbb\xeeq\xe8\xd1ss@'
p2597
tp2598
Rp2599
ag4
(g8
S'M\xb0U\xd7*\xa5\x92@'
p2600
tp2601
Rp2602
ag4
(g8
S'\xa4)*UU\xa9\xe5@'
p2603
tp2604
Rp2605
ag4
(g8
S'.p\xb0\xfa3:\xec@'
p2606
tp2607
Rp2608
ag4
(g8
S'=\x8e\xdd\xbdD\x87B@'
p2609
tp2610
Rp2611
ag4
(g8
S'\x9d\xff=\xac\x10\xcb\xe2?'
p2612
tp2613
Rp2614
ag4
(g8
S'\xdcq\xcd9#IN@'
p2615
tp2616
Rp2617
ag4
(g8
S'\n\xc1\xa8-b\xba`@'
p2618
tp2619
Rp2620
ag4
(g8
S'D\xb7\xe1*\x0eq\xdc?'
p2621
tp2622
Rp2623
ag4
(g8
S'H\xb9\xfb\x00of\x06@'
p2624
tp2625
Rp2626
ag4
(g8
S't\xbbKR_\x90\x1b@'
p2627
tp2628
Rp2629
ag4
(g8
S'\xd7\x19x_\xce\x05\x01@'
p2630
tp2631
Rp2632
ag4
(g8
S'\x80\xc2\x01\xf5\xb0\xf1X@'
p2633
tp2634
Rp2635
ag4
(g8
S'\x11\xba_\xe9\xd3\xa7\xad@'
p2636
tp2637
Rp2638
ag4
(g8
S'v\x06\x84\x85_"v@'
p2639
tp2640
Rp2641
ag4
(g8
S'\xe8\xd6\x1cJ\x1b\xf9\x1a@'
p2642
tp2643
Rp2644
ag4
(g8
S'\x92\xf4+6\x9a\xd6\xe7?'
p2645
tp2646
Rp2647
ag4
(g8
S'\x0e\xb6\xba\x96\x98J\x17@'
p2648
tp2649
Rp2650
ag4
(g8
S'd\x06\xd0y\xfd\xf0\xc0?'
p2651
tp2652
Rp2653
ag4
(g8
S'\x1c+\x0fR\x8b\x86{@'
p2654
tp2655
Rp2656
ag4
(g8
S'$\x8eFn(WC@'
p2657
tp2658
Rp2659
ag4
(g8
S'\xf2B\x01\xcc\x94 \xde?'
p2660
tp2661
Rp2662
ag4
(g8
S'\x9cJu\xd9\xe5w\xdd?'
p2663
tp2664
Rp2665
ag4
(g8
S'\xbe\x92\xd4\xa6\x10\xc7\xf1?'
p2666
tp2667
Rp2668
ag4
(g8
S'\xce\xfe>\x9dj;"@'
p2669
tp2670
Rp2671
ag4
(g8
S'.\x12\xf9\xaa\xf5\xc9\xf3?'
p2672
tp2673
Rp2674
ag4
(g8
S'\xf7\r\xd2\xe7\xef~\xb5@'
p2675
tp2676
Rp2677
ag4
(g8
S'T[;\xc4\xac\xf7\xc7?'
p2678
tp2679
Rp2680
ag4
(g8
S'\xd65K\xaen#\x87@'
p2681
tp2682
Rp2683
ag4
(g8
S'\x92\xd1~\xc4j7M@'
p2684
tp2685
Rp2686
ag4
(g8
S'\x89\xfc\xdac\xa4\xab\x11@'
p2687
tp2688
Rp2689
ag4
(g8
S'\x16\xa4\t\xb7\xc52rA'
p2690
tp2691
Rp2692
ag4
(g8
S"\xd7V\x15'\xa6*E@"
p2693
tp2694
Rp2695
ag4
(g8
S'\xaa\x0e\x93\xd3\xf0\xb8\xe7?'
p2696
tp2697
Rp2698
ag4
(g8
S'\xb4`\x01\x9d\x03jk@'
p2699
tp2700
Rp2701
ag4
(g8
S'gL\r\xce\x03v\x93?'
p2702
tp2703
Rp2704
ag4
(g8
S'\x18caD\xc2o\x14@'
p2705
tp2706
Rp2707
ag4
(g8
S'2\xc0},\x93\r\x12@'
p2708
tp2709
Rp2710
ag4
(g8
S'\xc3]MYW\xd3\x19@'
p2711
tp2712
Rp2713
ag4
(g8
S'N\xdbSI\xbc\xd1Z@'
p2714
tp2715
Rp2716
ag4
(g8
S'\xc5\t\xe9\xe9\x1b{;@'
p2717
tp2718
Rp2719
ag4
(g8
S'\\\x82\xb7\xe8\xf5}\x9c@'
p2720
tp2721
Rp2722
ag4
(g8
S'\xc4\x16\xbe\xeex\x9f\x11@'
p2723
tp2724
Rp2725
ag4
(g8
S'\xb9\xd3F6H\xa7\xe4?'
p2726
tp2727
Rp2728
ag4
(g8
S'\x97\xf1\xf8\x1bc\xf4\x05@'
p2729
tp2730
Rp2731
ag4
(g8
S'jG\x8f$~\x87\xae?'
p2732
tp2733
Rp2734
ag4
(g8
S'\x9f\xf3\x1d\x89\x1c\x85\x8c?'
p2735
tp2736
Rp2737
ag4
(g8
S'\xab\xb0G\x16?\xab"@'
p2738
tp2739
Rp2740
ag4
(g8
S'\x8c\x96t&\xa1?\xbb@'
p2741
tp2742
Rp2743
ag4
(g8
S"\xec4\xa8'9{&@"
p2744
tp2745
Rp2746
ag4
(g8
S'\xc6>Y\xd6l\x94\xec?'
p2747
tp2748
Rp2749
ag4
(g8
S'\x17\xca\xfa&\x82]\xea?'
p2750
tp2751
Rp2752
ag4
(g8
S'0\x13I\ro\xbd\xfb?'
p2753
tp2754
Rp2755
ag4
(g8
S"'\x7f\x13\xc8\xf9K\xf3?"
p2756
tp2757
Rp2758
ag4
(g8
S"\xf3w\xad)\x0b'\xbc@"
p2759
tp2760
Rp2761
ag4
(g8
S'\x10~\xdcg\xa5\xe2$@'
p2762
tp2763
Rp2764
ag4
(g8
S'\xd5I\x16\xc8\x1fy\xf3?'
p2765
tp2766
Rp2767
ag4
(g8
S'A(\x9f\xa6\x89\xad\x00@'
p2768
tp2769
Rp2770
ag4
(g8
S'\x04m\xdc\xe1\x0e\x92\xe4?'
p2771
tp2772
Rp2773
ag4
(g8
S'~\xa9\x18\xbd.me@'
p2774
tp2775
Rp2776
ag4
(g8
S'\r\xab\x8f\xa7\xaa}\r@'
p2777
tp2778
Rp2779
ag4
(g8
S'\xb3\xb5\xeb\xab\x89\x80\xea?'
p2780
tp2781
Rp2782
ag4
(g8
S'Y9kB\xc6c@@'
p2783
tp2784
Rp2785
ag4
(g8
S'\xd0\xc2\xa6\xf2\x93\xb8\x1f@'
p2786
tp2787
Rp2788
ag4
(g8
S'\x93j\xfb+y\xb6V@'
p2789
tp2790
Rp2791
ag4
(g8
S'\x93\x07\n\xceZ4\xf9?'
p2792
tp2793
Rp2794
ag4
(g8
S'>\xffE\x0e%\xe0\xd9?'
p2795
tp2796
Rp2797
ag4
(g8
S'\x87\xa6\xabn|W=@'
p2798
tp2799
Rp2800
ag4
(g8
S'\xeb\xfa\x8a2A+\xd0?'
p2801
tp2802
Rp2803
ag4
(g8
S'>\xa4ip\xe5\xcd,@'
p2804
tp2805
Rp2806
ag4
(g8
S'\r\xe4\x882\xfe\x99\xcd?'
p2807
tp2808
Rp2809
ag4
(g8
S"\x0f\x14o\x9f\xb0\xdb'@"
p2810
tp2811
Rp2812
ag4
(g8
S'\xa1`\xbd\xd0"(\x1b@'
p2813
tp2814
Rp2815
ag4
(g8
S'\xee\xe6\x7f5\xc8\xdf\x13@'
p2816
tp2817
Rp2818
ag4
(g8
S'\x03\xb7<wi\xf4\x11@'
p2819
tp2820
Rp2821
ag4
(g8
S'`@\xd3rKF @'
p2822
tp2823
Rp2824
ag4
(g8
S'|OD\xf1\xc4\x99\x10@'
p2825
tp2826
Rp2827
ag4
(g8
S'\xec@\x90\x83j\x04\xea?'
p2828
tp2829
Rp2830
as(g1
g14
tp2831
(lp2832
g4
(g8
S'\x04\x84\xcc)\x19\xd5\x12@'
p2833
tp2834
Rp2835
ag4
(g8
S'?\xa9\xb8\xf8\xa3\xbb\x12@'
p2836
tp2837
Rp2838
ag4
(g8
S'p\xd6\xa4E\x176\xe8?'
p2839
tp2840
Rp2841
ag4
(g8
S'\xad\xf7\xcb\x92\xcfb"@'
p2842
tp2843
Rp2844
ag4
(g8
S'7_\xc4}\xe4\x9e\xe2?'
p2845
tp2846
Rp2847
ag4
(g8
S'\xab\xc2\xfd\xf3\x89[C@'
p2848
tp2849
Rp2850
ag4
(g8
S'\x88HY\xa6\xbc\x05\x0f@'
p2851
tp2852
Rp2853
ag4
(g8
S'L\x02\xb2\x83\x9fA\xf8?'
p2854
tp2855
Rp2856
ag4
(g8
S"\xab\x8c\x9b'+\xf6\xf2?"
p2857
tp2858
Rp2859
ag4
(g8
S'\xa96\xcdY\xfb"\xe0?'
p2860
tp2861
Rp2862
ag4
(g8
S'\x05bA\x93\xcdO8@'
p2863
tp2864
Rp2865
ag4
(g8
S'q\x14\x0b\xa1\xef%\xe0?'
p2866
tp2867
Rp2868
ag4
(g8
S'\xc2I\xf9\x03\x07t\xb1@'
p2869
tp2870
Rp2871
ag4
(g8
S'\xd1\xd4;6\xa3R\t@'
p2872
tp2873
Rp2874
ag4
(g8
S'\x05\xbeJ&\xef\xf9!@'
p2875
tp2876
Rp2877
ag4
(g8
S'\x82X\xa5\xa1^}\x0e@'
p2878
tp2879
Rp2880
ag4
(g8
S'\x00\x1aBt9\xbd\x0e@'
p2881
tp2882
Rp2883
ag4
(g8
S'\xc2\xb4\xb7p\xce9\x1c@'
p2884
tp2885
Rp2886
ag4
(g8
S'\xd9\xd7\x01S\xda1W@'
p2887
tp2888
Rp2889
ag4
(g8
S'\xbf0\xfb\xaaw\xf3\xe0?'
p2890
tp2891
Rp2892
ag4
(g8
S'#F\xae\x15u7$@'
p2893
tp2894
Rp2895
ag4
(g8
S'o\xa2{\xc1\x92\xcd\xd0?'
p2896
tp2897
Rp2898
ag4
(g8
S'\xd7\xe9K~\x08fG@'
p2899
tp2900
Rp2901
ag4
(g8
S'\xb5\xc5\x1f\x0b\xb4\xd4;@'
p2902
tp2903
Rp2904
ag4
(g8
S'\xad(\xb3\x95\x98\x7f\x00@'
p2905
tp2906
Rp2907
ag4
(g8
S'\xcd\r\xa6\x11\xb5\xc2j@'
p2908
tp2909
Rp2910
ag4
(g8
S'ph<\xa9\xd1\x1eT@'
p2911
tp2912
Rp2913
ag4
(g8
S'\xe9\\T\x88st\x07@'
p2914
tp2915
Rp2916
ag4
(g8
S'\x0e\x0f\xf1\xd0\xd1\xde\xf3?'
p2917
tp2918
Rp2919
ag4
(g8
S'\xe1\xe9<\xbc\xdf\x80\xe3?'
p2920
tp2921
Rp2922
ag4
(g8
S'\xa4b\x08\xe1\x82\xe3\xd6?'
p2923
tp2924
Rp2925
ag4
(g8
S'\x824\xcd\xbaW\x9c\xe3?'
p2926
tp2927
Rp2928
ag4
(g8
S'|\xf0\x08\x98\xda\xab\xc3?'
p2929
tp2930
Rp2931
ag4
(g8
S'\x0fK\xfb\x9d\xa1"#@'
p2932
tp2933
Rp2934
ag4
(g8
S'm\xce\x03P\xfe\x03\xe6?'
p2935
tp2936
Rp2937
ag4
(g8
S'\xb7\x98\xad\xf1\xadO1@'
p2938
tp2939
Rp2940
ag4
(g8
S'\x8a\x10\xb2\x8axA\xfd?'
p2941
tp2942
Rp2943
ag4
(g8
S'\x9c\xd8\x9a\x84\x8d\xdf\xb4?'
p2944
tp2945
Rp2946
ag4
(g8
S'\x1b\xe0w\x0b{K$@'
p2947
tp2948
Rp2949
ag4
(g8
S'\xc1X\xeeo\xad\x99\xde?'
p2950
tp2951
Rp2952
ag4
(g8
S'\xefjn:\xa2\x1c\xcc?'
p2953
tp2954
Rp2955
ag4
(g8
S'\x08\x1a\x88NA\x82\xd1?'
p2956
tp2957
Rp2958
ag4
(g8
S'\xc5+\xeb\x1aB8\x07@'
p2959
tp2960
Rp2961
ag4
(g8
S']0\xe5\xee\xe1\x18\xfd?'
p2962
tp2963
Rp2964
ag4
(g8
S'\xd3\x0b\xed\x01\x1f\x0b\x01@'
p2965
tp2966
Rp2967
ag4
(g8
S'\xdbW\x19\xae\xf8\x87\x05@'
p2968
tp2969
Rp2970
ag4
(g8
S'8q\x8f\x8b]\xcb\xec?'
p2971
tp2972
Rp2973
ag4
(g8
S'\xf3\x01\xaa\xcf\x7f\x05\xf9?'
p2974
tp2975
Rp2976
ag4
(g8
S'2\xba\xf7{\tR\xe5?'
p2977
tp2978
Rp2979
ag4
(g8
S'\xcbZy =\xde\xf8?'
p2980
tp2981
Rp2982
ag4
(g8
S'\xdd6\xbe\x8c\x8cp\x05@'
p2983
tp2984
Rp2985
ag4
(g8
S'\x0c\x81\xbd\xab\xd7\xa8\xe7?'
p2986
tp2987
Rp2988
ag4
(g8
S'j\xdfP\x96\x9b\x9f\xd6?'
p2989
tp2990
Rp2991
ag4
(g8
S';\xf9\x9a$\x85\x8e.@'
p2992
tp2993
Rp2994
ag4
(g8
S'A|W3\x8cq\xd8?'
p2995
tp2996
Rp2997
ag4
(g8
S'\xeb\r\xb7l\x12\xf1\xe7?'
p2998
tp2999
Rp3000
ag4
(g8
S'\xd1\xaekg\x91l\x0e@'
p3001
tp3002
Rp3003
ag4
(g8
S"<\xe8z'I\xc5\xf9?"
p3004
tp3005
Rp3006
ag4
(g8
S'.\x90Jm\xd7]O@'
p3007
tp3008
Rp3009
ag4
(g8
S'\xb3\xba%o\x86\xa1\xef?'
p3010
tp3011
Rp3012
ag4
(g8
S'\xa2BV\xa3\xe6\xc8\xec?'
p3013
tp3014
Rp3015
ag4
(g8
S'a\xbc\xc1.\xd9\xd0\xe1?'
p3016
tp3017
Rp3018
ag4
(g8
S'9e\xa4\xdaf\xc5)@'
p3019
tp3020
Rp3021
as(g1
g19
tp3022
(lp3023
g4
(g8
S'\x84\xc8\x7f\xfb\x9f\xaf$@'
p3024
tp3025
Rp3026
ag4
(g8
S'\xf3\x1c\x9a\x19\x86\n\xf9?'
p3027
tp3028
Rp3029
ag4
(g8
S'\x17\xec\x87\xf3\t!\xf6?'
p3030
tp3031
Rp3032
ag4
(g8
S'7{\xf5$\xbc\xb0\xd0?'
p3033
tp3034
Rp3035
ag4
(g8
S'\xfd"d\xda\x87G\x00@'
p3036
tp3037
Rp3038
ag4
(g8
S'\x1f\xdb\x917\xdeA\xea?'
p3039
tp3040
Rp3041
ag4
(g8
S'\xed\xfa\x17\xbb\x97~\xfc?'
p3042
tp3043
Rp3044
ag4
(g8
S'\xa7\x08<{\x92\x86\xd6?'
p3045
tp3046
Rp3047
ag4
(g8
S'^\xbb\x8e$\x05\x84\xfe?'
p3048
tp3049
Rp3050
ag4
(g8
S'e\x0b0\x10\x8aj\xda?'
p3051
tp3052
Rp3053
ag4
(g8
S'\x07\x07}\xef\x81\xd8\xfb?'
p3054
tp3055
Rp3056
ag4
(g8
S'5H\x8d\t,\xde\xf1?'
p3057
tp3058
Rp3059
ag4
(g8
S'\xfe\xaf\x89ic\xe0\xe5?'
p3060
tp3061
Rp3062
ag4
(g8
S'\xfc\xc7\x06\x86\x99\xf6*@'
p3063
tp3064
Rp3065
ag4
(g8
S'>\x81o\xe4;\x14{@'
p3066
tp3067
Rp3068
ag4
(g8
S'Is\xcd\xaeG\x92\x10@'
p3069
tp3070
Rp3071
ag4
(g8
S'&P\x0e\xa0f \xe7?'
p3072
tp3073
Rp3074
ag4
(g8
S'h\xb33% \x9d\xd8?'
p3075
tp3076
Rp3077
ag4
(g8
S'RI\xfa\n\xfc_\xd0?'
p3078
tp3079
Rp3080
ag4
(g8
S'L\xfa\xb5>\xc9<\x16@'
p3081
tp3082
Rp3083
ag4
(g8
S'\tN\xbe8\xd8\xa5\x94@'
p3084
tp3085
Rp3086
ag4
(g8
S'M\xa3\xed\xd7E\x98p@'
p3087
tp3088
Rp3089
ag4
(g8
S'W\xb1\xfd\x12\\\x0b\x06@'
p3090
tp3091
Rp3092
ag4
(g8
S']\x1f7\x1e\xd2)\xe0?'
p3093
tp3094
Rp3095
ag4
(g8
S'\x1a\x1dy4\x9b\xebQ@'
p3096
tp3097
Rp3098
ag4
(g8
S'\x88\xf44*\xd2\x86\xfb?'
p3099
tp3100
Rp3101
ag4
(g8
S'\xbb\x06\xa9\xa8\xaa4\x02@'
p3102
tp3103
Rp3104
ag4
(g8
S"\xa3'\xa2\xe1F-\xf3?"
p3105
tp3106
Rp3107
ag4
(g8
S'\x1b\x00A_\xb6f\xdb?'
p3108
tp3109
Rp3110
ag4
(g8
S'?`q+e#\xd3@'
p3111
tp3112
Rp3113
ag4
(g8
S'\xf4XY\x13\xc4\xdf\xf6?'
p3114
tp3115
Rp3116
ag4
(g8
S'q\xfc\x1c\x03w\x9e\xf4?'
p3117
tp3118
Rp3119
ag4
(g8
S'Ap\x7f\xe3\xf2\x07\xf7?'
p3120
tp3121
Rp3122
ag4
(g8
S':\x866\xa4\x86\x13U@'
p3123
tp3124
Rp3125
ag4
(g8
S'\xf7\x13\xe6\x04q\xc4\xd7?'
p3126
tp3127
Rp3128
ag4
(g8
S'\x00\xfd\xa6\x1d\xcb\xdb\xdc?'
p3129
tp3130
Rp3131
ag4
(g8
S'\x1e\xc3\x9b<\xad,\xe3?'
p3132
tp3133
Rp3134
ag4
(g8
S'GOlq\xa0}\xc1?'
p3135
tp3136
Rp3137
ag4
(g8
S'l\x18z$\x93$A@'
p3138
tp3139
Rp3140
ag4
(g8
S'\t 3\xb9\x8e0\xe0?'
p3141
tp3142
Rp3143
ag4
(g8
S'G\x85[\x8eR\xa1\xc8?'
p3144
tp3145
Rp3146
ag4
(g8
S'\xa4n\xa2\xba,Kr@'
p3147
tp3148
Rp3149
ag4
(g8
S'\xcc\x13\xf0W\x11\xb8\xc7?'
p3150
tp3151
Rp3152
ag4
(g8
S'\xcbYS:\x19\xa3`@'
p3153
tp3154
Rp3155
ag4
(g8
S'<5\r\x96\xe10\xed?'
p3156
tp3157
Rp3158
ag4
(g8
S'a\x126\xe7\x8d\x14\xf7?'
p3159
tp3160
Rp3161
ag4
(g8
S'5\xa9\x07o\xe4k\xf9?'
p3162
tp3163
Rp3164
ag4
(g8
S"'\xbb\xc2\xd8<'\xdc?"
p3165
tp3166
Rp3167
ag4
(g8
S'\xcb]\x971/J\xe8?'
p3168
tp3169
Rp3170
ag4
(g8
S'Xk\x0c\x80\xa7J9@'
p3171
tp3172
Rp3173
ag4
(g8
S'K\x0c\x9a\xa57i\xf6?'
p3174
tp3175
Rp3176
ag4
(g8
S'\x02\xec\xec\xe10\x81\xf3?'
p3177
tp3178
Rp3179
ag4
(g8
S'\xda\xa6\xd7p\xe8\xc1\x17@'
p3180
tp3181
Rp3182
ag4
(g8
S'\xbdql\xe8\x82/^@'
p3183
tp3184
Rp3185
ag4
(g8
S'!\xbb<7\x9c\xefd@'
p3186
tp3187
Rp3188
ag4
(g8
S'(\x15\xc4\x08\xb6=\xe7?'
p3189
tp3190
Rp3191
ag4
(g8
S'7p\xffG5N<@'
p3192
tp3193
Rp3194
ag4
(g8
S'\xa8rU\x9a\x06\xba\xee?'
p3195
tp3196
Rp3197
ag4
(g8
S'\xf55]\x19{\x17O@'
p3198
tp3199
Rp3200
ag4
(g8
S'\xc1\xfe9+8Y\xf2?'
p3201
tp3202
Rp3203
ag4
(g8
S'\xd6\xae\xc9S\xd4 <@'
p3204
tp3205
Rp3206
ag4
(g8
S'[\x9c\x11y\xe3\xb7\xf8?'
p3207
tp3208
Rp3209
ag4
(g8
S':\xa5\xe0{\x15\xbc\xd9?'
p3210
tp3211
Rp3212
ag4
(g8
S'\xd0*\xccU\x9d{\xe7?'
p3213
tp3214
Rp3215
ag4
(g8
S'%\xaa\xf7\xb1}\x9c\x10@'
p3216
tp3217
Rp3218
ag4
(g8
S'\xe2\x08\xb0]\xc0!\xcc?'
p3219
tp3220
Rp3221
ag4
(g8
S'\xcaK\xd43\xdc\xfe\xca?'
p3222
tp3223
Rp3224
ag4
(g8
S'\xeaf2\xd3\xb4Q\x11@'
p3225
tp3226
Rp3227
ag4
(g8
S'\x16\xf4\x88\xfe}z\xdf?'
p3228
tp3229
Rp3230
ag4
(g8
S'\xe6\xcf\xf4\xf5k\xed\xf8?'
p3231
tp3232
Rp3233
ag4
(g8
S'\xdd\xd3\xd8\x83K\xfa\xdd?'
p3234
tp3235
Rp3236
ag4
(g8
S'\xdb\xa4\x92\x17!\xf7\x02@'
p3237
tp3238
Rp3239
ag4
(g8
S'\x9el\xd2/\xeeE\xe6?'
p3240
tp3241
Rp3242
ag4
(g8
S'\xd4\xf6\x0f\xf1$:\xe7?'
p3243
tp3244
Rp3245
ag4
(g8
S'\xe4*9Wi\xaf\x02@'
p3246
tp3247
Rp3248
ag4
(g8
S'nl[C\x8e~2@'
p3249
tp3250
Rp3251
ag4
(g8
S'3\xa6x&\x9d0\x12@'
p3252
tp3253
Rp3254
ag4
(g8
S'-\x81\xd1v\x8eF\x02@'
p3255
tp3256
Rp3257
ag4
(g8
S'\xe05<\xe3\x1b+\xfa?'
p3258
tp3259
Rp3260
ag4
(g8
S'w:\xbb\xa6\xbdA\x04@'
p3261
tp3262
Rp3263
ag4
(g8
S'\x1a\xcf\xc6\xc2\xa7<9@'
p3264
tp3265
Rp3266
ag4
(g8
S"\xf3\xd0'\xa6\xd4\xb5\xf5?"
p3267
tp3268
Rp3269
ag4
(g8
S'\xd7\xf5\x82\xc4\xc6\xcb\x05@'
p3270
tp3271
Rp3272
ag4
(g8
S'C\xe1\x84\xf1\xf4:\xe0@'
p3273
tp3274
Rp3275
ag4
(g8
S'\xcd\xe7Zw\xfc\xb6\xe5?'
p3276
tp3277
Rp3278
ag4
(g8
S'\xa8\xa4(\xf1\xa6{\xe3?'
p3279
tp3280
Rp3281
ag4
(g8
S'#\xa4\xeb:A.\xc5?'
p3282
tp3283
Rp3284
ag4
(g8
S'\xff\xe8\x88\xc3F[\xdf?'
p3285
tp3286
Rp3287
ag4
(g8
S'8\xc7pR\xd88\xa3?'
p3288
tp3289
Rp3290
ag4
(g8
S'\xf3\xa9\xe3u\xe0A\x15@'
p3291
tp3292
Rp3293
ag4
(g8
S'y\x94\x0b\x07\xf7\x15\xe1?'
p3294
tp3295
Rp3296
ag4
(g8
S'\xca\xb9\xf3\xd8|\x93\x07@'
p3297
tp3298
Rp3299
ag4
(g8
S'\xbd{\xab\r\xa6\x802@'
p3300
tp3301
Rp3302
ag4
(g8
S'\xe9!\xee\xfb\xf6\xe9\xd1?'
p3303
tp3304
Rp3305
ag4
(g8
S'\x01a\xc7\xc5 \x1b\x0c@'
p3306
tp3307
Rp3308
ag4
(g8
S'\\1\xafY\xaf5\x10@'
p3309
tp3310
Rp3311
ag4
(g8
S'_\xdbo\xa3\x10\xee+@'
p3312
tp3313
Rp3314
ag4
(g8
S'\xf6\x9c9F[\xb6\xeb?'
p3315
tp3316
Rp3317
ag4
(g8
S'(\xd1g\x1f\x9c\xa1\xa8?'
p3318
tp3319
Rp3320
ag4
(g8
S'F")\xccq\xc8)@'
p3321
tp3322
Rp3323
ag4
(g8
S'!\xef\x0c\x17\x1d\x94g@'
p3324
tp3325
Rp3326
ag4
(g8
S"\xf4'\x98\xa4\xb0\xd7\xf1?"
p3327
tp3328
Rp3329
ag4
(g8
S'\x11\xba7\xc9{\xd0\x07@'
p3330
tp3331
Rp3332
ag4
(g8
S'\x97\x90\xce\x11}W\xe8?'
p3333
tp3334
Rp3335
ag4
(g8
S"'\x9f\xa5\x82\xa4\x06$@"
p3336
tp3337
Rp3338
ag4
(g8
S'\x18\xa5|\xe1\x89`\x9b@'
p3339
tp3340
Rp3341
ag4
(g8
S'\x90\xe2\xd1y\xfc\x82\x1e@'
p3342
tp3343
Rp3344
ag4
(g8
S's\xdd-\xe3\xdd\x1d\xe6?'
p3345
tp3346
Rp3347
ag4
(g8
S'\xa6\xa2\xe6\x824\x082@'
p3348
tp3349
Rp3350
ag4
(g8
S'-\xe8S\xaa\xdaa\xeb?'
p3351
tp3352
Rp3353
ag4
(g8
S'$\x1e\xa4\x9a\xae\xdb\xf6?'
p3354
tp3355
Rp3356
ag4
(g8
S'\xb4]1Da\xa6\x19A'
p3357
tp3358
Rp3359
ag4
(g8
S'i5\xd9\xe0"\xae\x1d@'
p3360
tp3361
Rp3362
ag4
(g8
S'+f@\xb1\xba<\xe2?'
p3363
tp3364
Rp3365
ag4
(g8
S"5'\xcbY\x81\xde\xdd?"
p3366
tp3367
Rp3368
ag4
(g8
S'\xa1mk\xd7\x04I\xf4?'
p3369
tp3370
Rp3371
ag4
(g8
S'\xaaAa8\xfc\x9ft@'
p3372
tp3373
Rp3374
ag4
(g8
S'\xe2[\xe0\xa9[\x05\xe1?'
p3375
tp3376
Rp3377
ag4
(g8
S'\xdd\x02\xb7_\xaa\xc9)@'
p3378
tp3379
Rp3380
ag4
(g8
S'*%\xb7\x1b\x1fy\x15@'
p3381
tp3382
Rp3383
ag4
(g8
S'O9\xfb\xf9R\xa1)@'
p3384
tp3385
Rp3386
ag4
(g8
S'\xbcC\x91\x0fC\x98\x05@'
p3387
tp3388
Rp3389
ag4
(g8
S'\xcbT\xb4H\x187,@'
p3390
tp3391
Rp3392
ag4
(g8
S'cc\x8a\xffy\xd8\xcb?'
p3393
tp3394
Rp3395
ag4
(g8
S'g\xa7$A\xef\x8a\xc7?'
p3396
tp3397
Rp3398
ag4
(g8
S'\xdc{\xae5U\xe4\xf5?'
p3399
tp3400
Rp3401
ag4
(g8
S'\x1a\xfe\x86\x18pA\xfd?'
p3402
tp3403
Rp3404
ag4
(g8
S'H\x8fh@\xf1\xc7\xff?'
p3405
tp3406
Rp3407
ag4
(g8
S'\xc8\xde[Q[\xd4\x05@'
p3408
tp3409
Rp3410
ag4
(g8
S'\xea\xf7F~jj @'
p3411
tp3412
Rp3413
ag4
(g8
S'\xcb{u\xc7\xa4\x1c\xfe?'
p3414
tp3415
Rp3416
ag4
(g8
S'\x0ezm34\xad\xe3?'
p3417
tp3418
Rp3419
ag4
(g8
S'9>\xa4D\x10z\xb2?'
p3420
tp3421
Rp3422
ag4
(g8
S'\xfen\x17Ey\xde\xdd?'
p3423
tp3424
Rp3425
as(g1
g24
tp3426
(lp3427
g4
(g8
S'\x04\x84\xcc)\x19\xd5\x12@'
p3428
tp3429
Rp3430
ag4
(g8
S'\xb3\xca+\xbb}!\xa7@'
p3431
tp3432
Rp3433
ag4
(g8
S'\x84\xc8\x7f\xfb\x9f\xaf$@'
p3434
tp3435
Rp3436
ag4
(g8
S'\xf3\x1c\x9a\x19\x86\n\xf9?'
p3437
tp3438
Rp3439
ag4
(g8
S'\x17\xec\x87\xf3\t!\xf6?'
p3440
tp3441
Rp3442
ag4
(g8
S'\x01\x89\xc4\xba\xe0\xd3\xf3?'
p3443
tp3444
Rp3445
ag4
(g8
S'9\xd8{i]\x13\xe5?'
p3446
tp3447
Rp3448
ag4
(g8
S'\xcc\x10\xf6+\xf2_?@'
p3449
tp3450
Rp3451
ag4
(g8
S'\xf47\xec\x96\xd65+@'
p3452
tp3453
Rp3454
ag4
(g8
S'7{\xf5$\xbc\xb0\xd0?'
p3455
tp3456
Rp3457
ag4
(g8
S'\xfd"d\xda\x87G\x00@'
p3458
tp3459
Rp3460
ag4
(g8
S'\x1f\xdb\x917\xdeA\xea?'
p3461
tp3462
Rp3463
ag4
(g8
S'\xed\xfa\x17\xbb\x97~\xfc?'
p3464
tp3465
Rp3466
ag4
(g8
S'FD\x03`\x89\x8d\x04@'
p3467
tp3468
Rp3469
ag4
(g8
S'%%@,\xe5^\xdc?'
p3470
tp3471
Rp3472
ag4
(g8
S'\xae\xae\xf3\xe6cqK@'
p3473
tp3474
Rp3475
ag4
(g8
S'\xe9\x15"\xbc\xbd\x19\xf2?'
p3476
tp3477
Rp3478
ag4
(g8
S'\xe5\x0b\xe6\xd8\xe7T?@'
p3479
tp3480
Rp3481
ag4
(g8
S'\xe4!mb\xe4\n\x15@'
p3482
tp3483
Rp3484
ag4
(g8
S'?\xa9\xb8\xf8\xa3\xbb\x12@'
p3485
tp3486
Rp3487
ag4
(g8
S'\xa7\x08<{\x92\x86\xd6?'
p3488
tp3489
Rp3490
ag4
(g8
S'^\xbb\x8e$\x05\x84\xfe?'
p3491
tp3492
Rp3493
ag4
(g8
S'e\x0b0\x10\x8aj\xda?'
p3494
tp3495
Rp3496
ag4
(g8
S'\x07\x07}\xef\x81\xd8\xfb?'
p3497
tp3498
Rp3499
ag4
(g8
S'/\xcd\xc9\x16?:\xf3?'
p3500
tp3501
Rp3502
ag4
(g8
S'\xdcj\xa4\xc8)\x1d\xf0?'
p3503
tp3504
Rp3505
ag4
(g8
S'\xef\xa4/\xc4}\xd6\xe2?'
p3506
tp3507
Rp3508
ag4
(g8
S'\xa7QA\xde\xd4I\xd2?'
p3509
tp3510
Rp3511
ag4
(g8
S'-7<\xf9\xf6m\xe5?'
p3512
tp3513
Rp3514
ag4
(g8
S'M\xb0U\xd7*\xa5\x92@'
p3515
tp3516
Rp3517
ag4
(g8
S'p\xd6\xa4E\x176\xe8?'
p3518
tp3519
Rp3520
ag4
(g8
S'\xad\xf7\xcb\x92\xcfb"@'
p3521
tp3522
Rp3523
ag4
(g8
S'5H\x8d\t,\xde\xf1?'
p3524
tp3525
Rp3526
ag4
(g8
S'\xfe\xaf\x89ic\xe0\xe5?'
p3527
tp3528
Rp3529
ag4
(g8
S'\xfc\xc7\x06\x86\x99\xf6*@'
p3530
tp3531
Rp3532
ag4
(g8
S'>\x81o\xe4;\x14{@'
p3533
tp3534
Rp3535
ag4
(g8
S'Is\xcd\xaeG\x92\x10@'
p3536
tp3537
Rp3538
ag4
(g8
S'\x95\xc4\xa1\xfb\x91\x88\xec?'
p3539
tp3540
Rp3541
ag4
(g8
S'\xbd\xaf!\xbb\x1d\x96\n@'
p3542
tp3543
Rp3544
ag4
(g8
S'Sb/\x82\xd0`\xef?'
p3545
tp3546
Rp3547
ag4
(g8
S'\xb5x\xf1\xd3hA4@'
p3548
tp3549
Rp3550
ag4
(g8
S'=\x8e\xdd\xbdD\x87B@'
p3551
tp3552
Rp3553
ag4
(g8
S'\x9d\xff=\xac\x10\xcb\xe2?'
p3554
tp3555
Rp3556
ag4
(g8
S'&P\x0e\xa0f \xe7?'
p3557
tp3558
Rp3559
ag4
(g8
S'h\xb33% \x9d\xd8?'
p3560
tp3561
Rp3562
ag4
(g8
S'RI\xfa\n\xfc_\xd0?'
p3563
tp3564
Rp3565
ag4
(g8
S'\xc21A\xa5\xe7\xa9\t@'
p3566
tp3567
Rp3568
ag4
(g8
S'\xcce\x86\xb4J\xada@'
p3569
tp3570
Rp3571
ag4
(g8
S'\xc4\xa2\xec\xfa\xb2~\xf9?'
p3572
tp3573
Rp3574
ag4
(g8
S'x\xc8]\xf0\xd3\x81\xee?'
p3575
tp3576
Rp3577
ag4
(g8
S'H\xb9\xfb\x00of\x06@'
p3578
tp3579
Rp3580
ag4
(g8
S't\xbbKR_\x90\x1b@'
p3581
tp3582
Rp3583
ag4
(g8
S'\xd7\x19x_\xce\x05\x01@'
p3584
tp3585
Rp3586
ag4
(g8
S'\x88HY\xa6\xbc\x05\x0f@'
p3587
tp3588
Rp3589
ag4
(g8
S'L\xfa\xb5>\xc9<\x16@'
p3590
tp3591
Rp3592
ag4
(g8
S'\tN\xbe8\xd8\xa5\x94@'
p3593
tp3594
Rp3595
ag4
(g8
S'\xa5\xc1\xc5[\xe7Xi@'
p3596
tp3597
Rp3598
ag4
(g8
S's\xdau\x9e\xae\x8c\x0b@'
p3599
tp3600
Rp3601
ag4
(g8
S'\xce#\x02u1\xee\xf3?'
p3602
tp3603
Rp3604
ag4
(g8
S']\x1f7\x1e\xd2)\xe0?'
p3605
tp3606
Rp3607
ag4
(g8
S'\x1a\x1dy4\x9b\xebQ@'
p3608
tp3609
Rp3610
ag4
(g8
S'\x88\xf44*\xd2\x86\xfb?'
p3611
tp3612
Rp3613
ag4
(g8
S'\xbb\x06\xa9\xa8\xaa4\x02@'
p3614
tp3615
Rp3616
ag4
(g8
S"\xa3'\xa2\xe1F-\xf3?"
p3617
tp3618
Rp3619
ag4
(g8
S'A\xca\xd9c\x84\xe4\xd4?'
p3620
tp3621
Rp3622
ag4
(g8
S'%\xb1o^\xaa\xf2\xf2?'
p3623
tp3624
Rp3625
ag4
(g8
S'\xadw\xee\x88)w\x07@'
p3626
tp3627
Rp3628
ag4
(g8
S'\x9ey\xf2*\xed\xef\xe8?'
p3629
tp3630
Rp3631
ag4
(g8
S'%\xe6\xd8\xa3\x8d|j@'
p3632
tp3633
Rp3634
ag4
(g8
S'\xe8\xd6\x1cJ\x1b\xf9\x1a@'
p3635
tp3636
Rp3637
ag4
(g8
S'L\x02\xb2\x83\x9fA\xf8?'
p3638
tp3639
Rp3640
ag4
(g8
S'?`q+e#\xd3@'
p3641
tp3642
Rp3643
ag4
(g8
S'\xf4XY\x13\xc4\xdf\xf6?'
p3644
tp3645
Rp3646
ag4
(g8
S'q\xfc\x1c\x03w\x9e\xf4?'
p3647
tp3648
Rp3649
ag4
(g8
S'\xc7R\x03\x82Z\xa7\x90@'
p3650
tp3651
Rp3652
ag4
(g8
S'*\xd4\xbf\xb6\xdb\xc0\xb3?'
p3653
tp3654
Rp3655
ag4
(g8
S"\xab\x8c\x9b'+\xf6\xf2?"
p3656
tp3657
Rp3658
ag4
(g8
S'\xa96\xcdY\xfb"\xe0?'
p3659
tp3660
Rp3661
ag4
(g8
S'\x05bA\x93\xcdO8@'
p3662
tp3663
Rp3664
ag4
(g8
S'\xa1\xce\x08\xba\x9f\x97"@'
p3665
tp3666
Rp3667
ag4
(g8
S'Ap\x7f\xe3\xf2\x07\xf7?'
p3668
tp3669
Rp3670
ag4
(g8
S':\x866\xa4\x86\x13U@'
p3671
tp3672
Rp3673
ag4
(g8
S'\xf7\x13\xe6\x04q\xc4\xd7?'
p3674
tp3675
Rp3676
ag4
(g8
S'6Ir\x0c\xd3\xda\xf7?'
p3677
tp3678
Rp3679
ag4
(g8
S'_\xa4\xae\xb4_\x17\xd9?'
p3680
tp3681
Rp3682
ag4
(g8
S'\x92\xf4+6\x9a\xd6\xe7?'
p3683
tp3684
Rp3685
ag4
(g8
S'\x0e\xb6\xba\x96\x98J\x17@'
p3686
tp3687
Rp3688
ag4
(g8
S'q\x14\x0b\xa1\xef%\xe0?'
p3689
tp3690
Rp3691
ag4
(g8
S'\xc2I\xf9\x03\x07t\xb1@'
p3692
tp3693
Rp3694
ag4
(g8
S'\xd1\xd4;6\xa3R\t@'
p3695
tp3696
Rp3697
ag4
(g8
S'\xc2\xcd^\x7f3\x14&@'
p3698
tp3699
Rp3700
ag4
(g8
S'\x00\xfd\xa6\x1d\xcb\xdb\xdc?'
p3701
tp3702
Rp3703
ag4
(g8
S'\x1e\xc3\x9b<\xad,\xe3?'
p3704
tp3705
Rp3706
ag4
(g8
S"n`\x8f\x923'\xcd?"
p3707
tp3708
Rp3709
ag4
(g8
S'aq^rY\xe5\x1a@'
p3710
tp3711
Rp3712
ag4
(g8
S'\x93n`J\xd4mA@'
p3713
tp3714
Rp3715
ag4
(g8
S'5\xea)k^N\xe2?'
p3716
tp3717
Rp3718
ag4
(g8
S'\xba\xe8C\x1a\xba\xe3\x93@'
p3719
tp3720
Rp3721
ag4
(g8
S'\x89\xb68\x02\xe6|(@'
p3722
tp3723
Rp3724
ag4
(g8
S'\xd8ri\xa9\xd5\x8b\xb7@'
p3725
tp3726
Rp3727
ag4
(g8
S'l\x18z$\x93$A@'
p3728
tp3729
Rp3730
ag4
(g8
S'\t 3\xb9\x8e0\xe0?'
p3731
tp3732
Rp3733
ag4
(g8
S'\x9aS\xba\xfa\xd4%\xf4?'
p3734
tp3735
Rp3736
ag4
(g8
S'\xe4\xe6\x82e\xf4O\x0b@'
p3737
tp3738
Rp3739
ag4
(g8
S'\xc5\xde\x01\xb7p\xf6 @'
p3740
tp3741
Rp3742
ag4
(g8
S'\xca\xef\x03\x06\x18\x8a\xba?'
p3743
tp3744
Rp3745
ag4
(g8
S'$\x8eFn(WC@'
p3746
tp3747
Rp3748
ag4
(g8
S'\xf2B\x01\xcc\x94 \xde?'
p3749
tp3750
Rp3751
ag4
(g8
S'\x9cJu\xd9\xe5w\xdd?'
p3752
tp3753
Rp3754
ag4
(g8
S'\x82X\xa5\xa1^}\x0e@'
p3755
tp3756
Rp3757
ag4
(g8
S'\x00\x1aBt9\xbd\x0e@'
p3758
tp3759
Rp3760
ag4
(g8
S'G\x85[\x8eR\xa1\xc8?'
p3761
tp3762
Rp3763
ag4
(g8
S'\xa4n\xa2\xba,Kr@'
p3764
tp3765
Rp3766
ag4
(g8
S'\xcc\x13\xf0W\x11\xb8\xc7?'
p3767
tp3768
Rp3769
ag4
(g8
S'\xcbYS:\x19\xa3`@'
p3770
tp3771
Rp3772
ag4
(g8
S'\xa4\xf3\xda\xe4k\x1c\xf1?'
p3773
tp3774
Rp3775
ag4
(g8
S'v\x13\xb6\xfa\xb9\xef\xf7?'
p3776
tp3777
Rp3778
ag4
(g8
S"\x92\xef\xd6%\xaf\x12'@"
p3779
tp3780
Rp3781
ag4
(g8
S'\x97\xa3\xbeh\xb2,\xc4?'
p3782
tp3783
Rp3784
ag4
(g8
S'\x1fW\xb7\x91\x80R\xef?'
p3785
tp3786
Rp3787
ag4
(g8
S'\xbe\x92\xd4\xa6\x10\xc7\xf1?'
p3788
tp3789
Rp3790
ag4
(g8
S'.\x12\xf9\xaa\xf5\xc9\xf3?'
p3791
tp3792
Rp3793
ag4
(g8
S'\xc2\xb4\xb7p\xce9\x1c@'
p3794
tp3795
Rp3796
ag4
(g8
S'\xd9\xd7\x01S\xda1W@'
p3797
tp3798
Rp3799
ag4
(g8
S'\xbf0\xfb\xaaw\xf3\xe0?'
p3800
tp3801
Rp3802
ag4
(g8
S'#F\xae\x15u7$@'
p3803
tp3804
Rp3805
ag4
(g8
S':\x80\xb5Q\xe6\xd0\xd4?'
p3806
tp3807
Rp3808
ag4
(g8
S'a\x126\xe7\x8d\x14\xf7?'
p3809
tp3810
Rp3811
ag4
(g8
S'5\xa9\x07o\xe4k\xf9?'
p3812
tp3813
Rp3814
ag4
(g8
S"'\xbb\xc2\xd8<'\xdc?"
p3815
tp3816
Rp3817
ag4
(g8
S'\x1d\xccv\xeeB\xc1\xdc?'
p3818
tp3819
Rp3820
ag4
(g8
S'\xc9\xfb\xa3\xc5\xa5c\xec?'
p3821
tp3822
Rp3823
ag4
(g8
S'\xe4\x95\xfc\xbd\x81#\x02@'
p3824
tp3825
Rp3826
ag4
(g8
S'\xd65K\xaen#\x87@'
p3827
tp3828
Rp3829
ag4
(g8
S'\xd7\xe9K~\x08fG@'
p3830
tp3831
Rp3832
ag4
(g8
S'\xb5\xc5\x1f\x0b\xb4\xd4;@'
p3833
tp3834
Rp3835
ag4
(g8
S'\xcb]\x971/J\xe8?'
p3836
tp3837
Rp3838
ag4
(g8
S'Xk\x0c\x80\xa7J9@'
p3839
tp3840
Rp3841
ag4
(g8
S'K\x0c\x9a\xa57i\xf6?'
p3842
tp3843
Rp3844
ag4
(g8
S'\x02\xec\xec\xe10\x81\xf3?'
p3845
tp3846
Rp3847
ag4
(g8
S'\x0cy\x9aF\xec|\xf3?'
p3848
tp3849
Rp3850
ag4
(g8
S'\x1d\xaaS%d]\x13@'
p3851
tp3852
Rp3853
ag4
(g8
S'Z\xed\xdc\xda\x1a\x119@'
p3854
tp3855
Rp3856
ag4
(g8
S'! \x16Vh\x84\xf1?'
p3857
tp3858
Rp3859
ag4
(g8
S'\xd6\x9cC\xa2\xedz\xe2?'
p3860
tp3861
Rp3862
ag4
(g8
S'\x92\xd1~\xc4j7M@'
p3863
tp3864
Rp3865
ag4
(g8
S'\x89\xfc\xdac\xa4\xab\x11@'
p3866
tp3867
Rp3868
ag4
(g8
S'\xaa\x0e\x93\xd3\xf0\xb8\xe7?'
p3869
tp3870
Rp3871
ag4
(g8
S'\xad(\xb3\x95\x98\x7f\x00@'
p3872
tp3873
Rp3874
ag4
(g8
S'\xcd\r\xa6\x11\xb5\xc2j@'
p3875
tp3876
Rp3877
ag4
(g8
S'ph<\xa9\xd1\x1eT@'
p3878
tp3879
Rp3880
ag4
(g8
S'\xddH\xabm\xdd\xf8\xd1?'
p3881
tp3882
Rp3883
ag4
(g8
S'\xda\xa6\xd7p\xe8\xc1\x17@'
p3884
tp3885
Rp3886
ag4
(g8
S'\xbdql\xe8\x82/^@'
p3887
tp3888
Rp3889
ag4
(g8
S'!\xbb<7\x9c\xefd@'
p3890
tp3891
Rp3892
ag4
(g8
S'(\x15\xc4\x08\xb6=\xe7?'
p3893
tp3894
Rp3895
ag4
(g8
S'\xd6e\xbc\xc0\xac \xe6?'
p3896
tp3897
Rp3898
ag4
(g8
S'\xeb\xc9\xdf+$\x8a\xeb@'
p3899
tp3900
Rp3901
ag4
(g8
S'\x1a\x1e\xbb\xf1ld\xe3?'
p3902
tp3903
Rp3904
ag4
(g8
S'gL\r\xce\x03v\x93?'
p3905
tp3906
Rp3907
ag4
(g8
S'\xe9\\T\x88st\x07@'
p3908
tp3909
Rp3910
ag4
(g8
S'\x0e\x0f\xf1\xd0\xd1\xde\xf3?'
p3911
tp3912
Rp3913
ag4
(g8
S'\xe1\xe9<\xbc\xdf\x80\xe3?'
p3914
tp3915
Rp3916
ag4
(g8
S'7p\xffG5N<@'
p3917
tp3918
Rp3919
ag4
(g8
S'\xa8rU\x9a\x06\xba\xee?'
p3920
tp3921
Rp3922
ag4
(g8
S'\xf55]\x19{\x17O@'
p3923
tp3924
Rp3925
ag4
(g8
S'\xc1\xfe9+8Y\xf2?'
p3926
tp3927
Rp3928
ag4
(g8
S'\xd6\xae\xc9S\xd4 <@'
p3929
tp3930
Rp3931
ag4
(g8
S'\xc4\xc7\xcfPW\x03\xe4?'
p3932
tp3933
Rp3934
ag4
(g8
S'\xda\xf7\xef\xc4d\x8f\xf2?'
p3935
tp3936
Rp3937
ag4
(g8
S'"\xe8J\xcb\xc8\xdf\xe9?'
p3938
tp3939
Rp3940
ag4
(g8
S'\x18#\xbc\xe5"\xa0F@'
p3941
tp3942
Rp3943
ag4
(g8
S'\xa4b\x08\xe1\x82\xe3\xd6?'
p3944
tp3945
Rp3946
ag4
(g8
S'\x824\xcd\xbaW\x9c\xe3?'
p3947
tp3948
Rp3949
ag4
(g8
S'[\x9c\x11y\xe3\xb7\xf8?'
p3950
tp3951
Rp3952
ag4
(g8
S':\xa5\xe0{\x15\xbc\xd9?'
p3953
tp3954
Rp3955
ag4
(g8
S'\xd0*\xccU\x9d{\xe7?'
p3956
tp3957
Rp3958
ag4
(g8
S'%\xaa\xf7\xb1}\x9c\x10@'
p3959
tp3960
Rp3961
ag4
(g8
S'\xe2\x08\xb0]\xc0!\xcc?'
p3962
tp3963
Rp3964
ag4
(g8
S'\xcaK\xd43\xdc\xfe\xca?'
p3965
tp3966
Rp3967
ag4
(g8
S"\xdb\xe9sG'\x10\xe4?"
p3968
tp3969
Rp3970
ag4
(g8
S'\x90/u\xc6\xf7\xae0@'
p3971
tp3972
Rp3973
ag4
(g8
S'\xe1\x15\xa5_O\xb9\xcb?'
p3974
tp3975
Rp3976
ag4
(g8
S'\xeb\xe5\xcd\xf1Z\x89\xfa?'
p3977
tp3978
Rp3979
ag4
(g8
S'M\xc6\x1b\x12*\x01\n@'
p3980
tp3981
Rp3982
ag4
(g8
S'2\xc0},\x93\r\x12@'
p3983
tp3984
Rp3985
ag4
(g8
S'\xc3]MYW\xd3\x19@'
p3986
tp3987
Rp3988
ag4
(g8
S'N\xdbSI\xbc\xd1Z@'
p3989
tp3990
Rp3991
ag4
(g8
S'|\xf0\x08\x98\xda\xab\xc3?'
p3992
tp3993
Rp3994
ag4
(g8
S'\x0fK\xfb\x9d\xa1"#@'
p3995
tp3996
Rp3997
ag4
(g8
S'm\xce\x03P\xfe\x03\xe6?'
p3998
tp3999
Rp4000
ag4
(g8
S'\xeaf2\xd3\xb4Q\x11@'
p4001
tp4002
Rp4003
ag4
(g8
S'\x16\xf4\x88\xfe}z\xdf?'
p4004
tp4005
Rp4006
ag4
(g8
S'\xe6\xcf\xf4\xf5k\xed\xf8?'
p4007
tp4008
Rp4009
ag4
(g8
S'\xdd\xd3\xd8\x83K\xfa\xdd?'
p4010
tp4011
Rp4012
ag4
(g8
S'\xa6\xfat\xe3F<\xf4?'
p4013
tp4014
Rp4015
ag4
(g8
S'\xc7\x83\x89\xf8\xdf\xff\xde?'
p4016
tp4017
Rp4018
ag4
(g8
S'\xd4\xc2.\x8fa(U@'
p4019
tp4020
Rp4021
ag4
(g8
S'?\x80^:0\xe3\xe4?'
p4022
tp4023
Rp4024
ag4
(g8
S'\x00\x1ez\x8e\x9az4@'
p4025
tp4026
Rp4027
ag4
(g8
S'\xc5\t\xe9\xe9\x1b{;@'
p4028
tp4029
Rp4030
ag4
(g8
S'\xc4\x16\xbe\xeex\x9f\x11@'
p4031
tp4032
Rp4033
ag4
(g8
S'\x8a\x10\xb2\x8axA\xfd?'
p4034
tp4035
Rp4036
ag4
(g8
S'\xdb\xa4\x92\x17!\xf7\x02@'
p4037
tp4038
Rp4039
ag4
(g8
S'\x9el\xd2/\xeeE\xe6?'
p4040
tp4041
Rp4042
ag4
(g8
S'\xd4\xf6\x0f\xf1$:\xe7?'
p4043
tp4044
Rp4045
ag4
(g8
S'\x87\xcb%\xeb\x13A\xf9?'
p4046
tp4047
Rp4048
ag4
(g8
S'\xae\xaf\x0eQ \x8e\x10@'
p4049
tp4050
Rp4051
ag4
(g8
S'&\xe4{\x8e<:\xe0?'
p4052
tp4053
Rp4054
ag4
(g8
S'\x97\xf1\xf8\x1bc\xf4\x05@'
p4055
tp4056
Rp4057
ag4
(g8
S'\xdb\x02\xf8D\xdd\xdb\xfb?'
p4058
tp4059
Rp4060
ag4
(g8
S'\x9c\xd8\x9a\x84\x8d\xdf\xb4?'
p4061
tp4062
Rp4063
ag4
(g8
S'\x1b\xe0w\x0b{K$@'
p4064
tp4065
Rp4066
ag4
(g8
S'\xe4*9Wi\xaf\x02@'
p4067
tp4068
Rp4069
ag4
(g8
S'nl[C\x8e~2@'
p4070
tp4071
Rp4072
ag4
(g8
S'\xa2c_\x84x\x9a\x00@'
p4073
tp4074
Rp4075
ag4
(g8
S'\xd1\xbe\xa5o\xbe\x15\xf4?'
p4076
tp4077
Rp4078
ag4
(g8
S'\xc1X\xeeo\xad\x99\xde?'
p4079
tp4080
Rp4081
ag4
(g8
S'\xefjn:\xa2\x1c\xcc?'
p4082
tp4083
Rp4084
ag4
(g8
S'\xb0\xeb\xfb\xb7\xed\xc6\xf7?'
p4085
tp4086
Rp4087
ag4
(g8
S'3\xa6x&\x9d0\x12@'
p4088
tp4089
Rp4090
ag4
(g8
S'-\x81\xd1v\x8eF\x02@'
p4091
tp4092
Rp4093
ag4
(g8
S'\xe05<\xe3\x1b+\xfa?'
p4094
tp4095
Rp4096
ag4
(g8
S'w:\xbb\xa6\xbdA\x04@'
p4097
tp4098
Rp4099
ag4
(g8
S')\xdb=\xd1\xac&\xde?'
p4100
tp4101
Rp4102
ag4
(g8
S'\xcb\x95h>\xb3\xed\xf4?'
p4103
tp4104
Rp4105
ag4
(g8
S'\xba\xe3\xc6\x8e\xb6\xf7\xde?'
p4106
tp4107
Rp4108
ag4
(g8
S'\x90\x8feVb\xf5\xe8?'
p4109
tp4110
Rp4111
ag4
(g8
S'\xdc:e\x98\x8e\xbf\x87@'
p4112
tp4113
Rp4114
ag4
(g8
S'\x18\xc3\xb0\x0cNO#@'
p4115
tp4116
Rp4117
ag4
(g8
S"\xf3\xd0'\xa6\xd4\xb5\xf5?"
p4118
tp4119
Rp4120
ag4
(g8
S'\xd7\xf5\x82\xc4\xc6\xcb\x05@'
p4121
tp4122
Rp4123
ag4
(g8
S'C\xe1\x84\xf1\xf4:\xe0@'
p4124
tp4125
Rp4126
ag4
(g8
S'EHIi-vP@'
p4127
tp4128
Rp4129
ag4
(g8
S'\x8e$oxh\x94\x15@'
p4130
tp4131
Rp4132
ag4
(g8
S'\xb8\x83\\\xa9\\0P@'
p4133
tp4134
Rp4135
ag4
(g8
S'\x8c\x96t&\xa1?\xbb@'
p4136
tp4137
Rp4138
ag4
(g8
S'\xc6>Y\xd6l\x94\xec?'
p4139
tp4140
Rp4141
ag4
(g8
S'\x17\xca\xfa&\x82]\xea?'
p4142
tp4143
Rp4144
ag4
(g8
S'\xc5+\xeb\x1aB8\x07@'
p4145
tp4146
Rp4147
ag4
(g8
S'(t\xeb\xc1\xda\xd3\xfe?'
p4148
tp4149
Rp4150
ag4
(g8
S'\xcd\xe7Zw\xfc\xb6\xe5?'
p4151
tp4152
Rp4153
ag4
(g8
S'\xa8\xa4(\xf1\xa6{\xe3?'
p4154
tp4155
Rp4156
ag4
(g8
S'#\xa4\xeb:A.\xc5?'
p4157
tp4158
Rp4159
ag4
(g8
S'\xf6\xec\x07KR^\x18@'
p4160
tp4161
Rp4162
ag4
(g8
S'\x1f\xf4\xb3O\xfd\x99\xe1?'
p4163
tp4164
Rp4165
ag4
(g8
S'\x06\t\xf4u\xc5\x91\xf0?'
p4166
tp4167
Rp4168
ag4
(g8
S"\xe0\xaf\xd8'\xc4\x94\xfa?"
p4169
tp4170
Rp4171
ag4
(g8
S'\xdbz|\xc8_\x0b\xf2?'
p4172
tp4173
Rp4174
ag4
(g8
S'<\x97!\xa1<\x81\xe4?'
p4175
tp4176
Rp4177
ag4
(g8
S'0\x13I\ro\xbd\xfb?'
p4178
tp4179
Rp4180
ag4
(g8
S"'\x7f\x13\xc8\xf9K\xf3?"
p4181
tp4182
Rp4183
ag4
(g8
S"\xf3w\xad)\x0b'\xbc@"
p4184
tp4185
Rp4186
ag4
(g8
S'0\x9a\xea\xb6\xf9vU@'
p4187
tp4188
Rp4189
ag4
(g8
S'\xa4+\xb7\xcb\xa7\xb4\x10@'
p4190
tp4191
Rp4192
ag4
(g8
S'8\xc7pR\xd88\xa3?'
p4193
tp4194
Rp4195
ag4
(g8
S'\xf3\xa9\xe3u\xe0A\x15@'
p4196
tp4197
Rp4198
ag4
(g8
S'y\x94\x0b\x07\xf7\x15\xe1?'
p4199
tp4200
Rp4201
ag4
(g8
S'\xca\xb9\xf3\xd8|\x93\x07@'
p4202
tp4203
Rp4204
ag4
(g8
S'\xbd{\xab\r\xa6\x802@'
p4205
tp4206
Rp4207
ag4
(g8
S'\xe9!\xee\xfb\xf6\xe9\xd1?'
p4208
tp4209
Rp4210
ag4
(g8
S'+\xddG\x94I\xc6\x16@'
p4211
tp4212
Rp4213
ag4
(g8
S'\x9a+?\x9et\x96\xbb@'
p4214
tp4215
Rp4216
ag4
(g8
S'\xce\xe1\x90(\xa3\x86&@'
p4217
tp4218
Rp4219
ag4
(g8
S'6\xdeE#\x80&\x1d@'
p4220
tp4221
Rp4222
ag4
(g8
S'\xa0&z\xf2i\r\xf8?'
p4223
tp4224
Rp4225
ag4
(g8
S'\xd5I\x16\xc8\x1fy\xf3?'
p4226
tp4227
Rp4228
ag4
(g8
S'A(\x9f\xa6\x89\xad\x00@'
p4229
tp4230
Rp4231
ag4
(g8
S'\x04m\xdc\xe1\x0e\x92\xe4?'
p4232
tp4233
Rp4234
ag4
(g8
S'\xd3\x0b\xed\x01\x1f\x0b\x01@'
p4235
tp4236
Rp4237
ag4
(g8
S'\xdbW\x19\xae\xf8\x87\x05@'
p4238
tp4239
Rp4240
ag4
(g8
S'8q\x8f\x8b]\xcb\xec?'
p4241
tp4242
Rp4243
ag4
(g8
S'\xf3\x01\xaa\xcf\x7f\x05\xf9?'
p4244
tp4245
Rp4246
ag4
(g8
S'\x01a\xc7\xc5 \x1b\x0c@'
p4247
tp4248
Rp4249
ag4
(g8
S'\\1\xafY\xaf5\x10@'
p4250
tp4251
Rp4252
ag4
(g8
S'_\xdbo\xa3\x10\xee+@'
p4253
tp4254
Rp4255
ag4
(g8
S'\xf6\x9c9F[\xb6\xeb?'
p4256
tp4257
Rp4258
ag4
(g8
S'(\xd1g\x1f\x9c\xa1\xa8?'
p4259
tp4260
Rp4261
ag4
(g8
S'\xaeZ_\xb1\xa8\x0f\x11@'
p4262
tp4263
Rp4264
ag4
(g8
S'\x83\xa6\xee\x83(E\x0e@'
p4265
tp4266
Rp4267
ag4
(g8
S'R\xdf\xa3D\xd0\xa4\xdf?'
p4268
tp4269
Rp4270
ag4
(g8
S'\x08u\xb5\x8c\xb6\xeb\xf5?'
p4271
tp4272
Rp4273
ag4
(g8
S'\x1a\x95\xfa\x9d\xeds\x92@'
p4274
tp4275
Rp4276
ag4
(g8
S'\r\xab\x8f\xa7\xaa}\r@'
p4277
tp4278
Rp4279
ag4
(g8
S'\xce\n[\x1c\x9d\x8d0@'
p4280
tp4281
Rp4282
ag4
(g8
S'\xb0w)\xfb\xd2O\x0f@'
p4283
tp4284
Rp4285
ag4
(g8
S'F")\xccq\xc8)@'
p4286
tp4287
Rp4288
ag4
(g8
S'!\xef\x0c\x17\x1d\x94g@'
p4289
tp4290
Rp4291
ag4
(g8
S"\xf4'\x98\xa4\xb0\xd7\xf1?"
p4292
tp4293
Rp4294
ag4
(g8
S'\xc7\x87w\xb4\x12*\x04@'
p4295
tp4296
Rp4297
ag4
(g8
S'\x00\xe0\x95\xee\xc0\xfa>@'
p4298
tp4299
Rp4300
ag4
(g8
S'\xb3\xfb4\x8e\xec\xdc\x00@'
p4301
tp4302
Rp4303
ag4
(g8
S'\xb7!r\xfa\x8e\xb7\x82@'
p4304
tp4305
Rp4306
ag4
(g8
S'\x1a\x19I\xb5!)D@'
p4307
tp4308
Rp4309
ag4
(g8
S'\xb9\x1d:`S#\x15@'
p4310
tp4311
Rp4312
ag4
(g8
S'\xcbZy =\xde\xf8?'
p4313
tp4314
Rp4315
ag4
(g8
S'\xdd6\xbe\x8c\x8cp\x05@'
p4316
tp4317
Rp4318
ag4
(g8
S'\x0c\x81\xbd\xab\xd7\xa8\xe7?'
p4319
tp4320
Rp4321
ag4
(g8
S'\x11\xba7\xc9{\xd0\x07@'
p4322
tp4323
Rp4324
ag4
(g8
S'\x97\x90\xce\x11}W\xe8?'
p4325
tp4326
Rp4327
ag4
(g8
S"'\x9f\xa5\x82\xa4\x06$@"
p4328
tp4329
Rp4330
ag4
(g8
S'\x18\xa5|\xe1\x89`\x9b@'
p4331
tp4332
Rp4333
ag4
(g8
S'\xf5\xc2\xdf\xeav\x1e3@'
p4334
tp4335
Rp4336
ag4
(g8
S'\x8bB\xea)\xd0=)@'
p4337
tp4338
Rp4339
ag4
(g8
S'\x90\xe2\xd1y\xfc\x82\x1e@'
p4340
tp4341
Rp4342
ag4
(g8
S's\xdd-\xe3\xdd\x1d\xe6?'
p4343
tp4344
Rp4345
ag4
(g8
S'\xa6\xa2\xe6\x824\x082@'
p4346
tp4347
Rp4348
ag4
(g8
S's\x84c\xc9\xecE\x1b@'
p4349
tp4350
Rp4351
ag4
(g8
S'\r;\x98\xa6\xf10\xcf?'
p4352
tp4353
Rp4354
ag4
(g8
S'q\xdc\x91\n"\xe00@'
p4355
tp4356
Rp4357
ag4
(g8
S'/\x97\xc5\xe2\x838\x07@'
p4358
tp4359
Rp4360
ag4
(g8
S'\xe6\xc2tY_\xf1\xf4?'
p4361
tp4362
Rp4363
ag4
(g8
S'\xf0\xb3\xf7\xff^\xed\x10@'
p4364
tp4365
Rp4366
ag4
(g8
S'Y9kB\xc6c@@'
p4367
tp4368
Rp4369
ag4
(g8
S'\xd0\xc2\xa6\xf2\x93\xb8\x1f@'
p4370
tp4371
Rp4372
ag4
(g8
S'\x93j\xfb+y\xb6V@'
p4373
tp4374
Rp4375
ag4
(g8
S'\xa0\xd4\xe9\xbb\xcd\x8b\xf9?'
p4376
tp4377
Rp4378
ag4
(g8
S'j\xdfP\x96\x9b\x9f\xd6?'
p4379
tp4380
Rp4381
ag4
(g8
S';\xf9\x9a$\x85\x8e.@'
p4382
tp4383
Rp4384
ag4
(g8
S'-\xe8S\xaa\xdaa\xeb?'
p4385
tp4386
Rp4387
ag4
(g8
S'$\x1e\xa4\x9a\xae\xdb\xf6?'
p4388
tp4389
Rp4390
ag4
(g8
S'\xb4]1Da\xa6\x19A'
p4391
tp4392
Rp4393
ag4
(g8
S'i5\xd9\xe0"\xae\x1d@'
p4394
tp4395
Rp4396
ag4
(g8
S'Zc\t\x00\x9cn\xeb?'
p4397
tp4398
Rp4399
ag4
(g8
S'd#\xab:\xe5!\xe0?'
p4400
tp4401
Rp4402
ag4
(g8
S'\xc8\xbe\xaf0e1\xdc?'
p4403
tp4404
Rp4405
ag4
(g8
S'\xb0;@\x04\xb1_\xef?'
p4406
tp4407
Rp4408
ag4
(g8
S'\xae\x0c\x9c+H\xb67@'
p4409
tp4410
Rp4411
ag4
(g8
S'\x82"\xa6\x80\xe2~\x02@'
p4412
tp4413
Rp4414
ag4
(g8
S'\x82\x81B{\xa1\xcd"@'
p4415
tp4416
Rp4417
ag4
(g8
S'>\xffE\x0e%\xe0\xd9?'
p4418
tp4419
Rp4420
ag4
(g8
S'\x87\xa6\xabn|W=@'
p4421
tp4422
Rp4423
ag4
(g8
S'\xceb\xb8Z\x1d>\x15@'
p4424
tp4425
Rp4426
ag4
(g8
S'\xeb\r\xb7l\x12\xf1\xe7?'
p4427
tp4428
Rp4429
ag4
(g8
S'\xd1\xaekg\x91l\x0e@'
p4430
tp4431
Rp4432
ag4
(g8
S"<\xe8z'I\xc5\xf9?"
p4433
tp4434
Rp4435
ag4
(g8
S'.\x90Jm\xd7]O@'
p4436
tp4437
Rp4438
ag4
(g8
S'\xb3\xba%o\x86\xa1\xef?'
p4439
tp4440
Rp4441
ag4
(g8
S'\xa2BV\xa3\xe6\xc8\xec?'
p4442
tp4443
Rp4444
ag4
(g8
S'+f@\xb1\xba<\xe2?'
p4445
tp4446
Rp4447
ag4
(g8
S"5'\xcbY\x81\xde\xdd?"
p4448
tp4449
Rp4450
ag4
(g8
S'\xa1mk\xd7\x04I\xf4?'
p4451
tp4452
Rp4453
ag4
(g8
S'\xaaAa8\xfc\x9ft@'
p4454
tp4455
Rp4456
ag4
(g8
S'\xe2[\xe0\xa9[\x05\xe1?'
p4457
tp4458
Rp4459
ag4
(g8
S'\xa7,\xd9\xcc\x01:6@'
p4460
tp4461
Rp4462
ag4
(g8
S'O\xafA\x98\x1eo\xf4?'
p4463
tp4464
Rp4465
ag4
(g8
S'lgj(\xca\x11\xe5?'
p4466
tp4467
Rp4468
ag4
(g8
S'\xce^\xdc\x1bDa\xa8@'
p4469
tp4470
Rp4471
ag4
(g8
S'-\x9d\x84})w\x88@'
p4472
tp4473
Rp4474
ag4
(g8
S'\xa0\x89\xf6|j\x07\xfa?'
p4475
tp4476
Rp4477
ag4
(g8
S'uv\x8c\xb6\xad$\xfb?'
p4478
tp4479
Rp4480
ag4
(g8
S'>\xa4ip\xe5\xcd,@'
p4481
tp4482
Rp4483
ag4
(g8
S'*%\xb7\x1b\x1fy\x15@'
p4484
tp4485
Rp4486
ag4
(g8
S'O9\xfb\xf9R\xa1)@'
p4487
tp4488
Rp4489
ag4
(g8
S'\xbcC\x91\x0fC\x98\x05@'
p4490
tp4491
Rp4492
ag4
(g8
S'\xbfI\xfe\x99\xec\xaf\xe6?'
p4493
tp4494
Rp4495
ag4
(g8
S'\xdb\xfb?\xf6\xf4\xaf\xcd?'
p4496
tp4497
Rp4498
ag4
(g8
S"\xff\x96\xae)\x91'\x07@"
p4499
tp4500
Rp4501
ag4
(g8
S'\xb9\xea\xf4u\x83\x1dO@'
p4502
tp4503
Rp4504
ag4
(g8
S'r;#\x87\x131\xf5?'
p4505
tp4506
Rp4507
ag4
(g8
S'\xcbT\xb4H\x187,@'
p4508
tp4509
Rp4510
ag4
(g8
S'cc\x8a\xffy\xd8\xcb?'
p4511
tp4512
Rp4513
ag4
(g8
S'g\xa7$A\xef\x8a\xc7?'
p4514
tp4515
Rp4516
ag4
(g8
S'\xdc{\xae5U\xe4\xf5?'
p4517
tp4518
Rp4519
ag4
(g8
S'\x1a\xfe\x86\x18pA\xfd?'
p4520
tp4521
Rp4522
ag4
(g8
S'\xbe\x8e\x89G\x00h\xe6?'
p4523
tp4524
Rp4525
ag4
(g8
S'\x84\xad\xd9\xd3Q\xcf6@'
p4526
tp4527
Rp4528
ag4
(g8
S'\x1f\x9c\x021l\xbc\xf6?'
p4529
tp4530
Rp4531
ag4
(g8
S'x\x07\x8c]\xae\t\x06@'
p4532
tp4533
Rp4534
ag4
(g8
S"\x0f\x14o\x9f\xb0\xdb'@"
p4535
tp4536
Rp4537
ag4
(g8
S'a\xbc\xc1.\xd9\xd0\xe1?'
p4538
tp4539
Rp4540
ag4
(g8
S'H\x8fh@\xf1\xc7\xff?'
p4541
tp4542
Rp4543
ag4
(g8
S'\xc8\xde[Q[\xd4\x05@'
p4544
tp4545
Rp4546
ag4
(g8
S'\xb1I\xdd\xd1\xc6)\xef?'
p4547
tp4548
Rp4549
ag4
(g8
S'\xd6\xdb\x03\xec\x0b\xdfX@'
p4550
tp4551
Rp4552
ag4
(g8
S'G4v\xea\xf0\xbd\xf6?'
p4553
tp4554
Rp4555
ag4
(g8
S'\x17\xb4\x14Vi&\x11@'
p4556
tp4557
Rp4558
ag4
(g8
S'\xcb\x8f\x92\xed\xee\\J@'
p4559
tp4560
Rp4561
ag4
(g8
S'\x9a\xf0\xf9\xfaCZ\x01@'
p4562
tp4563
Rp4564
ag4
(g8
S'%\xc3\xc1B\x01\xf7*@'
p4565
tp4566
Rp4567
ag4
(g8
S'\xa1`\xbd\xd0"(\x1b@'
p4568
tp4569
Rp4570
ag4
(g8
S'\xee\xe6\x7f5\xc8\xdf\x13@'
p4571
tp4572
Rp4573
ag4
(g8
S'\x03\xb7<wi\xf4\x11@'
p4574
tp4575
Rp4576
ag4
(g8
S'9e\xa4\xdaf\xc5)@'
p4577
tp4578
Rp4579
ag4
(g8
S'\xea\xf7F~jj @'
p4580
tp4581
Rp4582
ag4
(g8
S'\xcb{u\xc7\xa4\x1c\xfe?'
p4583
tp4584
Rp4585
ag4
(g8
S'\x0ezm34\xad\xe3?'
p4586
tp4587
Rp4588
ag4
(g8
S'9>\xa4D\x10z\xb2?'
p4589
tp4590
Rp4591
ag4
(g8
S'\xfen\x17Ey\xde\xdd?'
p4592
tp4593
Rp4594
ag4
(g8
S'\xf4,+\xcf6\xd6\xdf?'
p4595
tp4596
Rp4597
ag4
(g8
S'\xf4\xa3\xee\x91w\xa7\xd4?'
p4598
tp4599
Rp4600
ag4
(g8
S'Gws\xe1\xa1\t\xe3?'
p4601
tp4602
Rp4603
ag4
(g8
S'\xfcX\xa9\xba\xd0\xad\xf8?'
p4604
tp4605
Rp4606
ag4
(g8
S'\xf8(\x17\xc3\x07\x1f\x1e@'
p4607
tp4608
Rp4609
ag4
(g8
S'`@\xd3rKF @'
p4610
tp4611
Rp4612
as(g1
g29
tp4613
(lp4614
g4
(g8
S'\xb3\xca+\xbb}!\xa7@'
p4615
tp4616
Rp4617
ag4
(g8
S'\x84\xc8\x7f\xfb\x9f\xaf$@'
p4618
tp4619
Rp4620
ag4
(g8
S'\xf3\x1c\x9a\x19\x86\n\xf9?'
p4621
tp4622
Rp4623
ag4
(g8
S'\x17\xec\x87\xf3\t!\xf6?'
p4624
tp4625
Rp4626
ag4
(g8
S'\x01\x89\xc4\xba\xe0\xd3\xf3?'
p4627
tp4628
Rp4629
ag4
(g8
S'9\xd8{i]\x13\xe5?'
p4630
tp4631
Rp4632
ag4
(g8
S'7{\xf5$\xbc\xb0\xd0?'
p4633
tp4634
Rp4635
ag4
(g8
S'\xfd"d\xda\x87G\x00@'
p4636
tp4637
Rp4638
ag4
(g8
S'\x1f\xdb\x917\xdeA\xea?'
p4639
tp4640
Rp4641
ag4
(g8
S'\xed\xfa\x17\xbb\x97~\xfc?'
p4642
tp4643
Rp4644
ag4
(g8
S'FD\x03`\x89\x8d\x04@'
p4645
tp4646
Rp4647
ag4
(g8
S'%%@,\xe5^\xdc?'
p4648
tp4649
Rp4650
ag4
(g8
S'\xae\xae\xf3\xe6cqK@'
p4651
tp4652
Rp4653
ag4
(g8
S'\xa7\x08<{\x92\x86\xd6?'
p4654
tp4655
Rp4656
ag4
(g8
S'^\xbb\x8e$\x05\x84\xfe?'
p4657
tp4658
Rp4659
ag4
(g8
S'e\x0b0\x10\x8aj\xda?'
p4660
tp4661
Rp4662
ag4
(g8
S'\x07\x07}\xef\x81\xd8\xfb?'
p4663
tp4664
Rp4665
ag4
(g8
S'/\xcd\xc9\x16?:\xf3?'
p4666
tp4667
Rp4668
ag4
(g8
S'\xdcj\xa4\xc8)\x1d\xf0?'
p4669
tp4670
Rp4671
ag4
(g8
S'\xef\xa4/\xc4}\xd6\xe2?'
p4672
tp4673
Rp4674
ag4
(g8
S'\xa7QA\xde\xd4I\xd2?'
p4675
tp4676
Rp4677
ag4
(g8
S'\xc5:\xa6{\xb0\x07\xe5?'
p4678
tp4679
Rp4680
ag4
(g8
S'5H\x8d\t,\xde\xf1?'
p4681
tp4682
Rp4683
ag4
(g8
S'\xfe\xaf\x89ic\xe0\xe5?'
p4684
tp4685
Rp4686
ag4
(g8
S'\xfc\xc7\x06\x86\x99\xf6*@'
p4687
tp4688
Rp4689
ag4
(g8
S'>\x81o\xe4;\x14{@'
p4690
tp4691
Rp4692
ag4
(g8
S'Is\xcd\xaeG\x92\x10@'
p4693
tp4694
Rp4695
ag4
(g8
S'\x95\xc4\xa1\xfb\x91\x88\xec?'
p4696
tp4697
Rp4698
ag4
(g8
S'\xbd\xaf!\xbb\x1d\x96\n@'
p4699
tp4700
Rp4701
ag4
(g8
S'&P\x0e\xa0f \xe7?'
p4702
tp4703
Rp4704
ag4
(g8
S'h\xb33% \x9d\xd8?'
p4705
tp4706
Rp4707
ag4
(g8
S'RI\xfa\n\xfc_\xd0?'
p4708
tp4709
Rp4710
ag4
(g8
S'\xc21A\xa5\xe7\xa9\t@'
p4711
tp4712
Rp4713
ag4
(g8
S'\xcce\x86\xb4J\xada@'
p4714
tp4715
Rp4716
ag4
(g8
S'\xc4\xa2\xec\xfa\xb2~\xf9?'
p4717
tp4718
Rp4719
ag4
(g8
S'L\xfa\xb5>\xc9<\x16@'
p4720
tp4721
Rp4722
ag4
(g8
S'\tN\xbe8\xd8\xa5\x94@'
p4723
tp4724
Rp4725
ag4
(g8
S'\xa5\xc1\xc5[\xe7Xi@'
p4726
tp4727
Rp4728
ag4
(g8
S's\xdau\x9e\xae\x8c\x0b@'
p4729
tp4730
Rp4731
ag4
(g8
S'\xce#\x02u1\xee\xf3?'
p4732
tp4733
Rp4734
ag4
(g8
S']\x1f7\x1e\xd2)\xe0?'
p4735
tp4736
Rp4737
ag4
(g8
S'\x1a\x1dy4\x9b\xebQ@'
p4738
tp4739
Rp4740
ag4
(g8
S'\x88\xf44*\xd2\x86\xfb?'
p4741
tp4742
Rp4743
ag4
(g8
S'\xbb\x06\xa9\xa8\xaa4\x02@'
p4744
tp4745
Rp4746
ag4
(g8
S"\xa3'\xa2\xe1F-\xf3?"
p4747
tp4748
Rp4749
ag4
(g8
S'A\xca\xd9c\x84\xe4\xd4?'
p4750
tp4751
Rp4752
ag4
(g8
S'%\xb1o^\xaa\xf2\xf2?'
p4753
tp4754
Rp4755
ag4
(g8
S'\xadw\xee\x88)w\x07@'
p4756
tp4757
Rp4758
ag4
(g8
S'L\x02\xb2\x83\x9fA\xf8?'
p4759
tp4760
Rp4761
ag4
(g8
S'?`q+e#\xd3@'
p4762
tp4763
Rp4764
ag4
(g8
S'\xf4XY\x13\xc4\xdf\xf6?'
p4765
tp4766
Rp4767
ag4
(g8
S'q\xfc\x1c\x03w\x9e\xf4?'
p4768
tp4769
Rp4770
ag4
(g8
S'\xc7R\x03\x82Z\xa7\x90@'
p4771
tp4772
Rp4773
ag4
(g8
S'*\xd4\xbf\xb6\xdb\xc0\xb3?'
p4774
tp4775
Rp4776
ag4
(g8
S'\x05bA\x93\xcdO8@'
p4777
tp4778
Rp4779
ag4
(g8
S'\xa1\xce\x08\xba\x9f\x97"@'
p4780
tp4781
Rp4782
ag4
(g8
S'Ap\x7f\xe3\xf2\x07\xf7?'
p4783
tp4784
Rp4785
ag4
(g8
S':\x866\xa4\x86\x13U@'
p4786
tp4787
Rp4788
ag4
(g8
S'\xf7\x13\xe6\x04q\xc4\xd7?'
p4789
tp4790
Rp4791
ag4
(g8
S'6Ir\x0c\xd3\xda\xf7?'
p4792
tp4793
Rp4794
ag4
(g8
S'_\xa4\xae\xb4_\x17\xd9?'
p4795
tp4796
Rp4797
ag4
(g8
S'\xd1\xd4;6\xa3R\t@'
p4798
tp4799
Rp4800
ag4
(g8
S'\xc2\xcd^\x7f3\x14&@'
p4801
tp4802
Rp4803
ag4
(g8
S'\x00\xfd\xa6\x1d\xcb\xdb\xdc?'
p4804
tp4805
Rp4806
ag4
(g8
S'\x1e\xc3\x9b<\xad,\xe3?'
p4807
tp4808
Rp4809
ag4
(g8
S"n`\x8f\x923'\xcd?"
p4810
tp4811
Rp4812
ag4
(g8
S'aq^rY\xe5\x1a@'
p4813
tp4814
Rp4815
ag4
(g8
S'\x93n`J\xd4mA@'
p4816
tp4817
Rp4818
ag4
(g8
S'5\xea)k^N\xe2?'
p4819
tp4820
Rp4821
ag4
(g8
S'\xba\xe8C\x1a\xba\xe3\x93@'
p4822
tp4823
Rp4824
ag4
(g8
S'l\x18z$\x93$A@'
p4825
tp4826
Rp4827
ag4
(g8
S'\t 3\xb9\x8e0\xe0?'
p4828
tp4829
Rp4830
ag4
(g8
S'\x9aS\xba\xfa\xd4%\xf4?'
p4831
tp4832
Rp4833
ag4
(g8
S'\xe4\xe6\x82e\xf4O\x0b@'
p4834
tp4835
Rp4836
ag4
(g8
S'\xc5\xde\x01\xb7p\xf6 @'
p4837
tp4838
Rp4839
ag4
(g8
S'\x00\x1aBt9\xbd\x0e@'
p4840
tp4841
Rp4842
ag4
(g8
S'G\x85[\x8eR\xa1\xc8?'
p4843
tp4844
Rp4845
ag4
(g8
S'\xa4n\xa2\xba,Kr@'
p4846
tp4847
Rp4848
ag4
(g8
S'\xcc\x13\xf0W\x11\xb8\xc7?'
p4849
tp4850
Rp4851
ag4
(g8
S'\xcbYS:\x19\xa3`@'
p4852
tp4853
Rp4854
ag4
(g8
S'\xa4\xf3\xda\xe4k\x1c\xf1?'
p4855
tp4856
Rp4857
ag4
(g8
S'v\x13\xb6\xfa\xb9\xef\xf7?'
p4858
tp4859
Rp4860
ag4
(g8
S"\x92\xef\xd6%\xaf\x12'@"
p4861
tp4862
Rp4863
ag4
(g8
S'\x97\xa3\xbeh\xb2,\xc4?'
p4864
tp4865
Rp4866
ag4
(g8
S'\x1fW\xb7\x91\x80R\xef?'
p4867
tp4868
Rp4869
ag4
(g8
S'\xbf0\xfb\xaaw\xf3\xe0?'
p4870
tp4871
Rp4872
ag4
(g8
S'#F\xae\x15u7$@'
p4873
tp4874
Rp4875
ag4
(g8
S':\x80\xb5Q\xe6\xd0\xd4?'
p4876
tp4877
Rp4878
ag4
(g8
S'a\x126\xe7\x8d\x14\xf7?'
p4879
tp4880
Rp4881
ag4
(g8
S'5\xa9\x07o\xe4k\xf9?'
p4882
tp4883
Rp4884
ag4
(g8
S"'\xbb\xc2\xd8<'\xdc?"
p4885
tp4886
Rp4887
ag4
(g8
S'\x1d\xccv\xeeB\xc1\xdc?'
p4888
tp4889
Rp4890
ag4
(g8
S'\xc9\xfb\xa3\xc5\xa5c\xec?'
p4891
tp4892
Rp4893
ag4
(g8
S'\xd7\xe9K~\x08fG@'
p4894
tp4895
Rp4896
ag4
(g8
S'\xb5\xc5\x1f\x0b\xb4\xd4;@'
p4897
tp4898
Rp4899
ag4
(g8
S'\xcb]\x971/J\xe8?'
p4900
tp4901
Rp4902
ag4
(g8
S'Xk\x0c\x80\xa7J9@'
p4903
tp4904
Rp4905
ag4
(g8
S'K\x0c\x9a\xa57i\xf6?'
p4906
tp4907
Rp4908
ag4
(g8
S'\x02\xec\xec\xe10\x81\xf3?'
p4909
tp4910
Rp4911
ag4
(g8
S'\x0cy\x9aF\xec|\xf3?'
p4912
tp4913
Rp4914
ag4
(g8
S'\x1d\xaaS%d]\x13@'
p4915
tp4916
Rp4917
ag4
(g8
S'Z\xed\xdc\xda\x1a\x119@'
p4918
tp4919
Rp4920
ag4
(g8
S'! \x16Vh\x84\xf1?'
p4921
tp4922
Rp4923
ag4
(g8
S'\x19\xaeV\xa5)\xfb\xdc?'
p4924
tp4925
Rp4926
ag4
(g8
S'ph<\xa9\xd1\x1eT@'
p4927
tp4928
Rp4929
ag4
(g8
S'\xddH\xabm\xdd\xf8\xd1?'
p4930
tp4931
Rp4932
ag4
(g8
S'\xda\xa6\xd7p\xe8\xc1\x17@'
p4933
tp4934
Rp4935
ag4
(g8
S'\xbdql\xe8\x82/^@'
p4936
tp4937
Rp4938
ag4
(g8
S'!\xbb<7\x9c\xefd@'
p4939
tp4940
Rp4941
ag4
(g8
S'(\x15\xc4\x08\xb6=\xe7?'
p4942
tp4943
Rp4944
ag4
(g8
S'\xd6e\xbc\xc0\xac \xe6?'
p4945
tp4946
Rp4947
ag4
(g8
S'\xeb\xc9\xdf+$\x8a\xeb@'
p4948
tp4949
Rp4950
ag4
(g8
S'\x1a\x1e\xbb\xf1ld\xe3?'
p4951
tp4952
Rp4953
ag4
(g8
S'\xe1\xe9<\xbc\xdf\x80\xe3?'
p4954
tp4955
Rp4956
ag4
(g8
S'7p\xffG5N<@'
p4957
tp4958
Rp4959
ag4
(g8
S'\xa8rU\x9a\x06\xba\xee?'
p4960
tp4961
Rp4962
ag4
(g8
S'\xf55]\x19{\x17O@'
p4963
tp4964
Rp4965
ag4
(g8
S'\xc1\xfe9+8Y\xf2?'
p4966
tp4967
Rp4968
ag4
(g8
S'\xd6\xae\xc9S\xd4 <@'
p4969
tp4970
Rp4971
ag4
(g8
S'\xc4\xc7\xcfPW\x03\xe4?'
p4972
tp4973
Rp4974
ag4
(g8
S'\xda\xf7\xef\xc4d\x8f\xf2?'
p4975
tp4976
Rp4977
ag4
(g8
S'"\xe8J\xcb\xc8\xdf\xe9?'
p4978
tp4979
Rp4980
ag4
(g8
S'\x824\xcd\xbaW\x9c\xe3?'
p4981
tp4982
Rp4983
ag4
(g8
S'[\x9c\x11y\xe3\xb7\xf8?'
p4984
tp4985
Rp4986
ag4
(g8
S':\xa5\xe0{\x15\xbc\xd9?'
p4987
tp4988
Rp4989
ag4
(g8
S'\xd0*\xccU\x9d{\xe7?'
p4990
tp4991
Rp4992
ag4
(g8
S'%\xaa\xf7\xb1}\x9c\x10@'
p4993
tp4994
Rp4995
ag4
(g8
S'\xe2\x08\xb0]\xc0!\xcc?'
p4996
tp4997
Rp4998
ag4
(g8
S'\xcaK\xd43\xdc\xfe\xca?'
p4999
tp5000
Rp5001
ag4
(g8
S"\xdb\xe9sG'\x10\xe4?"
p5002
tp5003
Rp5004
ag4
(g8
S'\x90/u\xc6\xf7\xae0@'
p5005
tp5006
Rp5007
ag4
(g8
S'\xe1\x15\xa5_O\xb9\xcb?'
p5008
tp5009
Rp5010
ag4
(g8
S'\xeb\xe5\xcd\xf1Z\x89\xfa?'
p5011
tp5012
Rp5013
ag4
(g8
S'\x0fK\xfb\x9d\xa1"#@'
p5014
tp5015
Rp5016
ag4
(g8
S'm\xce\x03P\xfe\x03\xe6?'
p5017
tp5018
Rp5019
ag4
(g8
S'\xeaf2\xd3\xb4Q\x11@'
p5020
tp5021
Rp5022
ag4
(g8
S'\x16\xf4\x88\xfe}z\xdf?'
p5023
tp5024
Rp5025
ag4
(g8
S'\xe6\xcf\xf4\xf5k\xed\xf8?'
p5026
tp5027
Rp5028
ag4
(g8
S'\xdd\xd3\xd8\x83K\xfa\xdd?'
p5029
tp5030
Rp5031
ag4
(g8
S'\xa6\xfat\xe3F<\xf4?'
p5032
tp5033
Rp5034
ag4
(g8
S'\xc7\x83\x89\xf8\xdf\xff\xde?'
p5035
tp5036
Rp5037
ag4
(g8
S'\xd4\xc2.\x8fa(U@'
p5038
tp5039
Rp5040
ag4
(g8
S'?\x80^:0\xe3\xe4?'
p5041
tp5042
Rp5043
ag4
(g8
S'\x8a\x10\xb2\x8axA\xfd?'
p5044
tp5045
Rp5046
ag4
(g8
S'\xdb\xa4\x92\x17!\xf7\x02@'
p5047
tp5048
Rp5049
ag4
(g8
S'\x9el\xd2/\xeeE\xe6?'
p5050
tp5051
Rp5052
ag4
(g8
S'\xd4\xf6\x0f\xf1$:\xe7?'
p5053
tp5054
Rp5055
ag4
(g8
S'\x87\xcb%\xeb\x13A\xf9?'
p5056
tp5057
Rp5058
ag4
(g8
S'\xae\xaf\x0eQ \x8e\x10@'
p5059
tp5060
Rp5061
ag4
(g8
S'\x1b\xe0w\x0b{K$@'
p5062
tp5063
Rp5064
ag4
(g8
S'\xe4*9Wi\xaf\x02@'
p5065
tp5066
Rp5067
ag4
(g8
S'nl[C\x8e~2@'
p5068
tp5069
Rp5070
ag4
(g8
S'\xa2c_\x84x\x9a\x00@'
p5071
tp5072
Rp5073
ag4
(g8
S'\xd1\xbe\xa5o\xbe\x15\xf4?'
p5074
tp5075
Rp5076
ag4
(g8
S'\xc1X\xeeo\xad\x99\xde?'
p5077
tp5078
Rp5079
ag4
(g8
S'\xefjn:\xa2\x1c\xcc?'
p5080
tp5081
Rp5082
ag4
(g8
S'\xb0\xeb\xfb\xb7\xed\xc6\xf7?'
p5083
tp5084
Rp5085
ag4
(g8
S'3\xa6x&\x9d0\x12@'
p5086
tp5087
Rp5088
ag4
(g8
S'-\x81\xd1v\x8eF\x02@'
p5089
tp5090
Rp5091
ag4
(g8
S'\xe05<\xe3\x1b+\xfa?'
p5092
tp5093
Rp5094
ag4
(g8
S'w:\xbb\xa6\xbdA\x04@'
p5095
tp5096
Rp5097
ag4
(g8
S')\xdb=\xd1\xac&\xde?'
p5098
tp5099
Rp5100
ag4
(g8
S'\xcb\x95h>\xb3\xed\xf4?'
p5101
tp5102
Rp5103
ag4
(g8
S'\xba\xe3\xc6\x8e\xb6\xf7\xde?'
p5104
tp5105
Rp5106
ag4
(g8
S'\x90\x8feVb\xf5\xe8?'
p5107
tp5108
Rp5109
ag4
(g8
S'\xdc:e\x98\x8e\xbf\x87@'
p5110
tp5111
Rp5112
ag4
(g8
S'\x18\xc3\xb0\x0cNO#@'
p5113
tp5114
Rp5115
ag4
(g8
S'\x1a\xcf\xc6\xc2\xa7<9@'
p5116
tp5117
Rp5118
ag4
(g8
S"\xf3\xd0'\xa6\xd4\xb5\xf5?"
p5119
tp5120
Rp5121
ag4
(g8
S'\xd7\xf5\x82\xc4\xc6\xcb\x05@'
p5122
tp5123
Rp5124
ag4
(g8
S'C\xe1\x84\xf1\xf4:\xe0@'
p5125
tp5126
Rp5127
ag4
(g8
S'EHIi-vP@'
p5128
tp5129
Rp5130
ag4
(g8
S'\x8e$oxh\x94\x15@'
p5131
tp5132
Rp5133
ag4
(g8
S'\xb8\x83\\\xa9\\0P@'
p5134
tp5135
Rp5136
ag4
(g8
S'(t\xeb\xc1\xda\xd3\xfe?'
p5137
tp5138
Rp5139
ag4
(g8
S'\xcd\xe7Zw\xfc\xb6\xe5?'
p5140
tp5141
Rp5142
ag4
(g8
S'\xa8\xa4(\xf1\xa6{\xe3?'
p5143
tp5144
Rp5145
ag4
(g8
S'#\xa4\xeb:A.\xc5?'
p5146
tp5147
Rp5148
ag4
(g8
S'\xf6\xec\x07KR^\x18@'
p5149
tp5150
Rp5151
ag4
(g8
S'\x1f\xf4\xb3O\xfd\x99\xe1?'
p5152
tp5153
Rp5154
ag4
(g8
S'\x06\t\xf4u\xc5\x91\xf0?'
p5155
tp5156
Rp5157
ag4
(g8
S"\xe0\xaf\xd8'\xc4\x94\xfa?"
p5158
tp5159
Rp5160
ag4
(g8
S'\xa4+\xb7\xcb\xa7\xb4\x10@'
p5161
tp5162
Rp5163
ag4
(g8
S'8\xc7pR\xd88\xa3?'
p5164
tp5165
Rp5166
ag4
(g8
S'\xf3\xa9\xe3u\xe0A\x15@'
p5167
tp5168
Rp5169
ag4
(g8
S'y\x94\x0b\x07\xf7\x15\xe1?'
p5170
tp5171
Rp5172
ag4
(g8
S'\xca\xb9\xf3\xd8|\x93\x07@'
p5173
tp5174
Rp5175
ag4
(g8
S'\xbd{\xab\r\xa6\x802@'
p5176
tp5177
Rp5178
ag4
(g8
S'\xe9!\xee\xfb\xf6\xe9\xd1?'
p5179
tp5180
Rp5181
ag4
(g8
S'+\xddG\x94I\xc6\x16@'
p5182
tp5183
Rp5184
ag4
(g8
S'\x9a+?\x9et\x96\xbb@'
p5185
tp5186
Rp5187
ag4
(g8
S'\xce\xe1\x90(\xa3\x86&@'
p5188
tp5189
Rp5190
ag4
(g8
S'6\xdeE#\x80&\x1d@'
p5191
tp5192
Rp5193
ag4
(g8
S'8q\x8f\x8b]\xcb\xec?'
p5194
tp5195
Rp5196
ag4
(g8
S'\xf3\x01\xaa\xcf\x7f\x05\xf9?'
p5197
tp5198
Rp5199
ag4
(g8
S'\x01a\xc7\xc5 \x1b\x0c@'
p5200
tp5201
Rp5202
ag4
(g8
S'\\1\xafY\xaf5\x10@'
p5203
tp5204
Rp5205
ag4
(g8
S'_\xdbo\xa3\x10\xee+@'
p5206
tp5207
Rp5208
ag4
(g8
S'\xf6\x9c9F[\xb6\xeb?'
p5209
tp5210
Rp5211
ag4
(g8
S'(\xd1g\x1f\x9c\xa1\xa8?'
p5212
tp5213
Rp5214
ag4
(g8
S'\xaeZ_\xb1\xa8\x0f\x11@'
p5215
tp5216
Rp5217
ag4
(g8
S'\x83\xa6\xee\x83(E\x0e@'
p5218
tp5219
Rp5220
ag4
(g8
S'R\xdf\xa3D\xd0\xa4\xdf?'
p5221
tp5222
Rp5223
ag4
(g8
S'\xb0w)\xfb\xd2O\x0f@'
p5224
tp5225
Rp5226
ag4
(g8
S'F")\xccq\xc8)@'
p5227
tp5228
Rp5229
ag4
(g8
S'!\xef\x0c\x17\x1d\x94g@'
p5230
tp5231
Rp5232
ag4
(g8
S"\xf4'\x98\xa4\xb0\xd7\xf1?"
p5233
tp5234
Rp5235
ag4
(g8
S'\xc7\x87w\xb4\x12*\x04@'
p5236
tp5237
Rp5238
ag4
(g8
S'\x00\xe0\x95\xee\xc0\xfa>@'
p5239
tp5240
Rp5241
ag4
(g8
S'\xb3\xfb4\x8e\xec\xdc\x00@'
p5242
tp5243
Rp5244
ag4
(g8
S'\xb7!r\xfa\x8e\xb7\x82@'
p5245
tp5246
Rp5247
ag4
(g8
S'\xdd6\xbe\x8c\x8cp\x05@'
p5248
tp5249
Rp5250
ag4
(g8
S'\x0c\x81\xbd\xab\xd7\xa8\xe7?'
p5251
tp5252
Rp5253
ag4
(g8
S'\x11\xba7\xc9{\xd0\x07@'
p5254
tp5255
Rp5256
ag4
(g8
S'\x97\x90\xce\x11}W\xe8?'
p5257
tp5258
Rp5259
ag4
(g8
S"'\x9f\xa5\x82\xa4\x06$@"
p5260
tp5261
Rp5262
ag4
(g8
S'\x18\xa5|\xe1\x89`\x9b@'
p5263
tp5264
Rp5265
ag4
(g8
S'\xf5\xc2\xdf\xeav\x1e3@'
p5266
tp5267
Rp5268
ag4
(g8
S'\x8bB\xea)\xd0=)@'
p5269
tp5270
Rp5271
ag4
(g8
S'\x90\xe2\xd1y\xfc\x82\x1e@'
p5272
tp5273
Rp5274
ag4
(g8
S's\xdd-\xe3\xdd\x1d\xe6?'
p5275
tp5276
Rp5277
ag4
(g8
S'\xa6\xa2\xe6\x824\x082@'
p5278
tp5279
Rp5280
ag4
(g8
S's\x84c\xc9\xecE\x1b@'
p5281
tp5282
Rp5283
ag4
(g8
S'\r;\x98\xa6\xf10\xcf?'
p5284
tp5285
Rp5286
ag4
(g8
S'q\xdc\x91\n"\xe00@'
p5287
tp5288
Rp5289
ag4
(g8
S'/\x97\xc5\xe2\x838\x07@'
p5290
tp5291
Rp5292
ag4
(g8
S'\xe6\xc2tY_\xf1\xf4?'
p5293
tp5294
Rp5295
ag4
(g8
S'5\x19\x1d\xb6\x18\x98|@'
p5296
tp5297
Rp5298
ag4
(g8
S'-\xe8S\xaa\xdaa\xeb?'
p5299
tp5300
Rp5301
ag4
(g8
S'$\x1e\xa4\x9a\xae\xdb\xf6?'
p5302
tp5303
Rp5304
ag4
(g8
S'\xb4]1Da\xa6\x19A'
p5305
tp5306
Rp5307
ag4
(g8
S'i5\xd9\xe0"\xae\x1d@'
p5308
tp5309
Rp5310
ag4
(g8
S'Zc\t\x00\x9cn\xeb?'
p5311
tp5312
Rp5313
ag4
(g8
S'd#\xab:\xe5!\xe0?'
p5314
tp5315
Rp5316
ag4
(g8
S'\xc8\xbe\xaf0e1\xdc?'
p5317
tp5318
Rp5319
ag4
(g8
S'\xb0;@\x04\xb1_\xef?'
p5320
tp5321
Rp5322
ag4
(g8
S'\xe5u`C\xe2\xfe>@'
p5323
tp5324
Rp5325
ag4
(g8
S'.\x90Jm\xd7]O@'
p5326
tp5327
Rp5328
ag4
(g8
S'\xb3\xba%o\x86\xa1\xef?'
p5329
tp5330
Rp5331
ag4
(g8
S'\xa2BV\xa3\xe6\xc8\xec?'
p5332
tp5333
Rp5334
ag4
(g8
S'+f@\xb1\xba<\xe2?'
p5335
tp5336
Rp5337
ag4
(g8
S"5'\xcbY\x81\xde\xdd?"
p5338
tp5339
Rp5340
ag4
(g8
S'\xa1mk\xd7\x04I\xf4?'
p5341
tp5342
Rp5343
ag4
(g8
S'\xaaAa8\xfc\x9ft@'
p5344
tp5345
Rp5346
ag4
(g8
S'\xe2[\xe0\xa9[\x05\xe1?'
p5347
tp5348
Rp5349
ag4
(g8
S'\xa7,\xd9\xcc\x01:6@'
p5350
tp5351
Rp5352
ag4
(g8
S'O\xafA\x98\x1eo\xf4?'
p5353
tp5354
Rp5355
ag4
(g8
S'lgj(\xca\x11\xe5?'
p5356
tp5357
Rp5358
ag4
(g8
S'\xce^\xdc\x1bDa\xa8@'
p5359
tp5360
Rp5361
ag4
(g8
S'*%\xb7\x1b\x1fy\x15@'
p5362
tp5363
Rp5364
ag4
(g8
S'O9\xfb\xf9R\xa1)@'
p5365
tp5366
Rp5367
ag4
(g8
S'\xbcC\x91\x0fC\x98\x05@'
p5368
tp5369
Rp5370
ag4
(g8
S'\xbfI\xfe\x99\xec\xaf\xe6?'
p5371
tp5372
Rp5373
ag4
(g8
S'\xdb\xfb?\xf6\xf4\xaf\xcd?'
p5374
tp5375
Rp5376
ag4
(g8
S"\xff\x96\xae)\x91'\x07@"
p5377
tp5378
Rp5379
ag4
(g8
S'r;#\x87\x131\xf5?'
p5380
tp5381
Rp5382
ag4
(g8
S'\xcbT\xb4H\x187,@'
p5383
tp5384
Rp5385
ag4
(g8
S'cc\x8a\xffy\xd8\xcb?'
p5386
tp5387
Rp5388
ag4
(g8
S'g\xa7$A\xef\x8a\xc7?'
p5389
tp5390
Rp5391
ag4
(g8
S'\xdc{\xae5U\xe4\xf5?'
p5392
tp5393
Rp5394
ag4
(g8
S'\x1a\xfe\x86\x18pA\xfd?'
p5395
tp5396
Rp5397
ag4
(g8
S'\xbe\x8e\x89G\x00h\xe6?'
p5398
tp5399
Rp5400
ag4
(g8
S'\x84\xad\xd9\xd3Q\xcf6@'
p5401
tp5402
Rp5403
ag4
(g8
S'\x1f\x9c\x021l\xbc\xf6?'
p5404
tp5405
Rp5406
ag4
(g8
S'H\x8fh@\xf1\xc7\xff?'
p5407
tp5408
Rp5409
ag4
(g8
S'\xc8\xde[Q[\xd4\x05@'
p5410
tp5411
Rp5412
ag4
(g8
S'\xb1I\xdd\xd1\xc6)\xef?'
p5413
tp5414
Rp5415
ag4
(g8
S'\xd6\xdb\x03\xec\x0b\xdfX@'
p5416
tp5417
Rp5418
ag4
(g8
S'G4v\xea\xf0\xbd\xf6?'
p5419
tp5420
Rp5421
ag4
(g8
S'\x17\xb4\x14Vi&\x11@'
p5422
tp5423
Rp5424
ag4
(g8
S'\xcb\x8f\x92\xed\xee\\J@'
p5425
tp5426
Rp5427
ag4
(g8
S'\xea\xf7F~jj @'
p5428
tp5429
Rp5430
ag4
(g8
S'\xcb{u\xc7\xa4\x1c\xfe?'
p5431
tp5432
Rp5433
ag4
(g8
S'\x0ezm34\xad\xe3?'
p5434
tp5435
Rp5436
ag4
(g8
S'9>\xa4D\x10z\xb2?'
p5437
tp5438
Rp5439
ag4
(g8
S'\xfen\x17Ey\xde\xdd?'
p5440
tp5441
Rp5442
ag4
(g8
S'\xf4,+\xcf6\xd6\xdf?'
p5443
tp5444
Rp5445
ag4
(g8
S'\xf4\xa3\xee\x91w\xa7\xd4?'
p5446
tp5447
Rp5448
ag4
(g8
S'Gws\xe1\xa1\t\xe3?'
p5449
tp5450
Rp5451
as(g1
g34
tp5452
(lp5453
g4
(g8
S'\x01\x89\xc4\xba\xe0\xd3\xf3?'
p5454
tp5455
Rp5456
ag4
(g8
S'9\xd8{i]\x13\xe5?'
p5457
tp5458
Rp5459
ag4
(g8
S'\xcc\x10\xf6+\xf2_?@'
p5460
tp5461
Rp5462
ag4
(g8
S'%%@,\xe5^\xdc?'
p5463
tp5464
Rp5465
ag4
(g8
S'\xae\xae\xf3\xe6cqK@'
p5466
tp5467
Rp5468
ag4
(g8
S'\xe9\x15"\xbc\xbd\x19\xf2?'
p5469
tp5470
Rp5471
ag4
(g8
S'\xe5\x0b\xe6\xd8\xe7T?@'
p5472
tp5473
Rp5474
ag4
(g8
S'/\xcd\xc9\x16?:\xf3?'
p5475
tp5476
Rp5477
ag4
(g8
S'\xdcj\xa4\xc8)\x1d\xf0?'
p5478
tp5479
Rp5480
ag4
(g8
S'\xef\xa4/\xc4}\xd6\xe2?'
p5481
tp5482
Rp5483
ag4
(g8
S'\xa7QA\xde\xd4I\xd2?'
p5484
tp5485
Rp5486
ag4
(g8
S'-7<\xf9\xf6m\xe5?'
p5487
tp5488
Rp5489
ag4
(g8
S'\xbd\xaf!\xbb\x1d\x96\n@'
p5490
tp5491
Rp5492
ag4
(g8
S'Sb/\x82\xd0`\xef?'
p5493
tp5494
Rp5495
ag4
(g8
S'V\x855v\x86R\xfd?'
p5496
tp5497
Rp5498
ag4
(g8
S'\xcce\x86\xb4J\xada@'
p5499
tp5500
Rp5501
ag4
(g8
S'\xc4\xa2\xec\xfa\xb2~\xf9?'
p5502
tp5503
Rp5504
ag4
(g8
S'x\xc8]\xf0\xd3\x81\xee?'
p5505
tp5506
Rp5507
ag4
(g8
S's\xdau\x9e\xae\x8c\x0b@'
p5508
tp5509
Rp5510
ag4
(g8
S'\xfb\x82h\xbd\x16h\xf3?'
p5511
tp5512
Rp5513
ag4
(g8
S'%\xb1o^\xaa\xf2\xf2?'
p5514
tp5515
Rp5516
ag4
(g8
S'\xadw\xee\x88)w\x07@'
p5517
tp5518
Rp5519
ag4
(g8
S'\x9ey\xf2*\xed\xef\xe8?'
p5520
tp5521
Rp5522
ag4
(g8
S'%\xe6\xd8\xa3\x8d|j@'
p5523
tp5524
Rp5525
ag4
(g8
S'\xc7R\x03\x82Z\xa7\x90@'
p5526
tp5527
Rp5528
ag4
(g8
S'*\xd4\xbf\xb6\xdb\xc0\xb3?'
p5529
tp5530
Rp5531
ag4
(g8
S'6Ir\x0c\xd3\xda\xf7?'
p5532
tp5533
Rp5534
ag4
(g8
S'_\xa4\xae\xb4_\x17\xd9?'
p5535
tp5536
Rp5537
ag4
(g8
S'/\xe0\xd0?\xb6~\xb5@'
p5538
tp5539
Rp5540
ag4
(g8
S'aq^rY\xe5\x1a@'
p5541
tp5542
Rp5543
ag4
(g8
S'\x93n`J\xd4mA@'
p5544
tp5545
Rp5546
ag4
(g8
S'5\xea)k^N\xe2?'
p5547
tp5548
Rp5549
ag4
(g8
S'\xba\xe8C\x1a\xba\xe3\x93@'
p5550
tp5551
Rp5552
ag4
(g8
S'\x89\xb68\x02\xe6|(@'
p5553
tp5554
Rp5555
ag4
(g8
S'\xd8ri\xa9\xd5\x8b\xb7@'
p5556
tp5557
Rp5558
ag4
(g8
S'\xe4\xe6\x82e\xf4O\x0b@'
p5559
tp5560
Rp5561
ag4
(g8
S'\xc5\xde\x01\xb7p\xf6 @'
p5562
tp5563
Rp5564
ag4
(g8
S'\xca\xef\x03\x06\x18\x8a\xba?'
p5565
tp5566
Rp5567
ag4
(g8
S'v\x13\xb6\xfa\xb9\xef\xf7?'
p5568
tp5569
Rp5570
ag4
(g8
S"\x92\xef\xd6%\xaf\x12'@"
p5571
tp5572
Rp5573
ag4
(g8
S'\x97\xa3\xbeh\xb2,\xc4?'
p5574
tp5575
Rp5576
ag4
(g8
S'\x1fW\xb7\x91\x80R\xef?'
p5577
tp5578
Rp5579
ag4
(g8
S'\x1d\xccv\xeeB\xc1\xdc?'
p5580
tp5581
Rp5582
ag4
(g8
S'\xc9\xfb\xa3\xc5\xa5c\xec?'
p5583
tp5584
Rp5585
ag4
(g8
S'\xe4\x95\xfc\xbd\x81#\x02@'
p5586
tp5587
Rp5588
ag4
(g8
S'\x0cy\x9aF\xec|\xf3?'
p5589
tp5590
Rp5591
ag4
(g8
S'\x1d\xaaS%d]\x13@'
p5592
tp5593
Rp5594
ag4
(g8
S'Z\xed\xdc\xda\x1a\x119@'
p5595
tp5596
Rp5597
ag4
(g8
S'! \x16Vh\x84\xf1?'
p5598
tp5599
Rp5600
ag4
(g8
S'\xd6\x9cC\xa2\xedz\xe2?'
p5601
tp5602
Rp5603
ag4
(g8
S'\xd6e\xbc\xc0\xac \xe6?'
p5604
tp5605
Rp5606
ag4
(g8
S'\xeb\xc9\xdf+$\x8a\xeb@'
p5607
tp5608
Rp5609
ag4
(g8
S'\x1a\x1e\xbb\xf1ld\xe3?'
p5610
tp5611
Rp5612
ag4
(g8
S'\xc4\xc7\xcfPW\x03\xe4?'
p5613
tp5614
Rp5615
ag4
(g8
S'\xda\xf7\xef\xc4d\x8f\xf2?'
p5616
tp5617
Rp5618
ag4
(g8
S'"\xe8J\xcb\xc8\xdf\xe9?'
p5619
tp5620
Rp5621
ag4
(g8
S'\x18#\xbc\xe5"\xa0F@'
p5622
tp5623
Rp5624
ag4
(g8
S'\x90/u\xc6\xf7\xae0@'
p5625
tp5626
Rp5627
ag4
(g8
S'\xe1\x15\xa5_O\xb9\xcb?'
p5628
tp5629
Rp5630
ag4
(g8
S'\xeb\xe5\xcd\xf1Z\x89\xfa?'
p5631
tp5632
Rp5633
ag4
(g8
S'M\xc6\x1b\x12*\x01\n@'
p5634
tp5635
Rp5636
ag4
(g8
S'\xc7\x83\x89\xf8\xdf\xff\xde?'
p5637
tp5638
Rp5639
ag4
(g8
S'\xd4\xc2.\x8fa(U@'
p5640
tp5641
Rp5642
ag4
(g8
S'?\x80^:0\xe3\xe4?'
p5643
tp5644
Rp5645
ag4
(g8
S'\x00\x1ez\x8e\x9az4@'
p5646
tp5647
Rp5648
ag4
(g8
S'\x87\xcb%\xeb\x13A\xf9?'
p5649
tp5650
Rp5651
ag4
(g8
S'\xae\xaf\x0eQ \x8e\x10@'
p5652
tp5653
Rp5654
ag4
(g8
S'&\xe4{\x8e<:\xe0?'
p5655
tp5656
Rp5657
ag4
(g8
S'\xa2c_\x84x\x9a\x00@'
p5658
tp5659
Rp5660
ag4
(g8
S'\xd1\xbe\xa5o\xbe\x15\xf4?'
p5661
tp5662
Rp5663
ag4
(g8
S'\xcb\x95h>\xb3\xed\xf4?'
p5664
tp5665
Rp5666
ag4
(g8
S'\xba\xe3\xc6\x8e\xb6\xf7\xde?'
p5667
tp5668
Rp5669
ag4
(g8
S'\x90\x8feVb\xf5\xe8?'
p5670
tp5671
Rp5672
ag4
(g8
S'\xdc:e\x98\x8e\xbf\x87@'
p5673
tp5674
Rp5675
ag4
(g8
S'EHIi-vP@'
p5676
tp5677
Rp5678
ag4
(g8
S'\x8e$oxh\x94\x15@'
p5679
tp5680
Rp5681
ag4
(g8
S'\xb8\x83\\\xa9\\0P@'
p5682
tp5683
Rp5684
ag4
(g8
S'\x06\x8a\xd9\xe3r\x10w@'
p5685
tp5686
Rp5687
ag4
(g8
S'\x1f\xf4\xb3O\xfd\x99\xe1?'
p5688
tp5689
Rp5690
ag4
(g8
S'\x06\t\xf4u\xc5\x91\xf0?'
p5691
tp5692
Rp5693
ag4
(g8
S"\xe0\xaf\xd8'\xc4\x94\xfa?"
p5694
tp5695
Rp5696
ag4
(g8
S'\xdbz|\xc8_\x0b\xf2?'
p5697
tp5698
Rp5699
ag4
(g8
S'\r\x1a\x96\x14\xe3L\xe3?'
p5700
tp5701
Rp5702
ag4
(g8
S'\x9a+?\x9et\x96\xbb@'
p5703
tp5704
Rp5705
ag4
(g8
S'\xce\xe1\x90(\xa3\x86&@'
p5706
tp5707
Rp5708
ag4
(g8
S'6\xdeE#\x80&\x1d@'
p5709
tp5710
Rp5711
ag4
(g8
S'\xa0&z\xf2i\r\xf8?'
p5712
tp5713
Rp5714
ag4
(g8
S'/-\xb4M\x1b\xd7!@'
p5715
tp5716
Rp5717
ag4
(g8
S'\x83\xa6\xee\x83(E\x0e@'
p5718
tp5719
Rp5720
ag4
(g8
S'R\xdf\xa3D\xd0\xa4\xdf?'
p5721
tp5722
Rp5723
ag4
(g8
S'\x08u\xb5\x8c\xb6\xeb\xf5?'
p5724
tp5725
Rp5726
ag4
(g8
S'\x1a\x95\xfa\x9d\xeds\x92@'
p5727
tp5728
Rp5729
ag4
(g8
S'\x00\xe0\x95\xee\xc0\xfa>@'
p5730
tp5731
Rp5732
ag4
(g8
S'\xb3\xfb4\x8e\xec\xdc\x00@'
p5733
tp5734
Rp5735
ag4
(g8
S'\xb7!r\xfa\x8e\xb7\x82@'
p5736
tp5737
Rp5738
ag4
(g8
S'\x1a\x19I\xb5!)D@'
p5739
tp5740
Rp5741
ag4
(g8
S'\xb9\x1d:`S#\x15@'
p5742
tp5743
Rp5744
ag4
(g8
S'\xf5\xc2\xdf\xeav\x1e3@'
p5745
tp5746
Rp5747
ag4
(g8
S'\x8bB\xea)\xd0=)@'
p5748
tp5749
Rp5750
ag4
(g8
S'\r;\x98\xa6\xf10\xcf?'
p5751
tp5752
Rp5753
ag4
(g8
S'q\xdc\x91\n"\xe00@'
p5754
tp5755
Rp5756
ag4
(g8
S'/\x97\xc5\xe2\x838\x07@'
p5757
tp5758
Rp5759
ag4
(g8
S'\xe6\xc2tY_\xf1\xf4?'
p5760
tp5761
Rp5762
ag4
(g8
S'5\x19\x1d\xb6\x18\x98|@'
p5763
tp5764
Rp5765
ag4
(g8
S'\xf0\xb3\xf7\xff^\xed\x10@'
p5766
tp5767
Rp5768
ag4
(g8
S'\x8d\xa2\xe7\x94\xf3\xa1\xf6?'
p5769
tp5770
Rp5771
ag4
(g8
S'd#\xab:\xe5!\xe0?'
p5772
tp5773
Rp5774
ag4
(g8
S'\xc8\xbe\xaf0e1\xdc?'
p5775
tp5776
Rp5777
ag4
(g8
S'\xb0;@\x04\xb1_\xef?'
p5778
tp5779
Rp5780
ag4
(g8
S'\xae\x0c\x9c+H\xb67@'
p5781
tp5782
Rp5783
ag4
(g8
S'\x82"\xa6\x80\xe2~\x02@'
p5784
tp5785
Rp5786
ag4
(g8
S'O\xafA\x98\x1eo\xf4?'
p5787
tp5788
Rp5789
ag4
(g8
S'lgj(\xca\x11\xe5?'
p5790
tp5791
Rp5792
ag4
(g8
S'\xce^\xdc\x1bDa\xa8@'
p5793
tp5794
Rp5795
ag4
(g8
S'-\x9d\x84})w\x88@'
p5796
tp5797
Rp5798
ag4
(g8
S'\xa0\x89\xf6|j\x07\xfa?'
p5799
tp5800
Rp5801
ag4
(g8
S'uv\x8c\xb6\xad$\xfb?'
p5802
tp5803
Rp5804
ag4
(g8
S'\xbfI\xfe\x99\xec\xaf\xe6?'
p5805
tp5806
Rp5807
ag4
(g8
S'\xdb\xfb?\xf6\xf4\xaf\xcd?'
p5808
tp5809
Rp5810
ag4
(g8
S"\xff\x96\xae)\x91'\x07@"
p5811
tp5812
Rp5813
ag4
(g8
S'\xb9\xea\xf4u\x83\x1dO@'
p5814
tp5815
Rp5816
ag4
(g8
S'\xbe\x8e\x89G\x00h\xe6?'
p5817
tp5818
Rp5819
ag4
(g8
S'\x84\xad\xd9\xd3Q\xcf6@'
p5820
tp5821
Rp5822
ag4
(g8
S'\x1f\x9c\x021l\xbc\xf6?'
p5823
tp5824
Rp5825
ag4
(g8
S'x\x07\x8c]\xae\t\x06@'
p5826
tp5827
Rp5828
ag4
(g8
S'\xd6\xdb\x03\xec\x0b\xdfX@'
p5829
tp5830
Rp5831
ag4
(g8
S'G4v\xea\xf0\xbd\xf6?'
p5832
tp5833
Rp5834
ag4
(g8
S'\x17\xb4\x14Vi&\x11@'
p5835
tp5836
Rp5837
ag4
(g8
S'\xcb\x8f\x92\xed\xee\\J@'
p5838
tp5839
Rp5840
ag4
(g8
S'\x9a\xf0\xf9\xfaCZ\x01@'
p5841
tp5842
Rp5843
ag4
(g8
S'%\xc3\xc1B\x01\xf7*@'
p5844
tp5845
Rp5846
ag4
(g8
S'\xf4,+\xcf6\xd6\xdf?'
p5847
tp5848
Rp5849
ag4
(g8
S'\xf4\xa3\xee\x91w\xa7\xd4?'
p5850
tp5851
Rp5852
ag4
(g8
S'Gws\xe1\xa1\t\xe3?'
p5853
tp5854
Rp5855
ag4
(g8
S'\xfcX\xa9\xba\xd0\xad\xf8?'
p5856
tp5857
Rp5858
ag4
(g8
S'\xf8(\x17\xc3\x07\x1f\x1e@'
p5859
tp5860
Rp5861
as(dp5862
(g1
g2
tp5863
(lp5864
g4
(g8
S'\xa0rz\xaej\xe7\x03@'
p5865
tp5866
Rp5867
ag4
(g8
S'2\xc3\xe2\x90\x1c\x9c\x0f@'
p5868
tp5869
Rp5870
ag4
(g8
S'^Ks\x96\x07&\x15@'
p5871
tp5872
Rp5873
ag4
(g8
S'\xa4\x8a\xc4\xdf\xba*\x18@'
p5874
tp5875
Rp5876
ag4
(g8
S'\x0c=\xdb\xdd#\xfb\x1a@'
p5877
tp5878
Rp5879
ag4
(g8
S'\xc8D\x0c)x\x1a\n@'
p5880
tp5881
Rp5882
ag4
(g8
S'\x00\xa0\xb90\xc4Q\xeb?'
p5883
tp5884
Rp5885
ag4
(g8
S'\xa4\x1d\xe4\xa7\n\x00\x0e@'
p5886
tp5887
Rp5888
ag4
(g8
S'*\xa8\xa9q`\x1c\x0b@'
p5889
tp5890
Rp5891
ag4
(g8
S'Q\xaa3\xcc\xc1\x92\xf7?'
p5892
tp5893
Rp5894
ag4
(g8
S'\xf5\x81\xe37\x85\xb4\xfc?'
p5895
tp5896
Rp5897
ag4
(g8
S'p\x18na\x08\xb0\x01@'
p5898
tp5899
Rp5900
ag4
(g8
S'\xfcI@\x80-\xde\xff?'
p5901
tp5902
Rp5903
ag4
(g8
S'\x87>\x8b\xaf\r\xb4\x07@'
p5904
tp5905
Rp5906
ag4
(g8
S'\xc4\x19\xc7=\\\xea\n@'
p5907
tp5908
Rp5909
ag4
(g8
S'\x00GU\xa607\x0f@'
p5910
tp5911
Rp5912
ag4
(g8
S'\xd87\x91{\xfe\x10\x03@'
p5913
tp5914
Rp5915
ag4
(g8
S' \x81\xee\x85\xcd\x01\xfc?'
p5916
tp5917
Rp5918
ag4
(g8
S'pDD\xec\xc1O\x05@'
p5919
tp5920
Rp5921
ag4
(g8
S'[h\x116\xdaP\xf0?'
p5922
tp5923
Rp5924
ag4
(g8
S'\x84\x07X\x96\x16+\x0e@'
p5925
tp5926
Rp5927
ag4
(g8
S'\xd6uAEOW\r@'
p5928
tp5929
Rp5930
ag4
(g8
S'P\x7f\xaa\x0f\x91Y\xf0?'
p5931
tp5932
Rp5933
ag4
(g8
S'\x07\x1e\xd0\x98\xba\x1e\xf7?'
p5934
tp5935
Rp5936
ag4
(g8
S'\x81\xa7jX\x81\x1f\xf9?'
p5937
tp5938
Rp5939
ag4
(g8
S'\xce\x8e\x0e\xfa\xfd\x92#@'
p5940
tp5941
Rp5942
ag4
(g8
S'R\xb6|\xda\xc7\x8f\xf6?'
p5943
tp5944
Rp5945
ag4
(g8
S'\xd2\xfc\xa4gQ\xa0\x15@'
p5946
tp5947
Rp5948
ag4
(g8
S'@\x01\xad\x1f2\x10\xf1?'
p5949
tp5950
Rp5951
ag4
(g8
S'\xddV`\x1a\xae\xca\x0f@'
p5952
tp5953
Rp5954
ag4
(g8
S'\x9e\xa5\xd4\xc1\x8d^\n@'
p5955
tp5956
Rp5957
ag4
(g8
S'>\\\xc1\xa0oo\x03@'
p5958
tp5959
Rp5960
ag4
(g8
S'x\xcf\x83\xe5\xfa\x01!@'
p5961
tp5962
Rp5963
ag4
(g8
S't\x9a\xd7N\xb1\xe1\x0b@'
p5964
tp5965
Rp5966
ag4
(g8
S'\xf4\x9c\xa6\x1b(p\xf5?'
p5967
tp5968
Rp5969
ag4
(g8
S'\x07\x00a\\l\xec\n@'
p5970
tp5971
Rp5972
ag4
(g8
S'\xa1\xb1\xf7\x0c\xac0\xd0?'
p5973
tp5974
Rp5975
ag4
(g8
S'\x83\xedt\x95\xb91\xff?'
p5976
tp5977
Rp5978
ag4
(g8
S'\xe9\xaf\xc8\x88\xe2\n\x04@'
p5979
tp5980
Rp5981
ag4
(g8
S'Y;;H\x80\t\x05@'
p5982
tp5983
Rp5984
ag4
(g8
S')\xdcj\xf2\x17\x11\x0e@'
p5985
tp5986
Rp5987
ag4
(g8
S'\x08\x10uu\xd2%\t@'
p5988
tp5989
Rp5990
ag4
(g8
S'J\xd1\xc1l\xae\x14\x10@'
p5991
tp5992
Rp5993
ag4
(g8
S'Ed\xc8\x86;w\x00@'
p5994
tp5995
Rp5996
ag4
(g8
S'\xd6\xdbGW\xa1u\xf7?'
p5997
tp5998
Rp5999
ag4
(g8
S'\x12\x9d\x18\xf2i\xdc\xfe?'
p6000
tp6001
Rp6002
ag4
(g8
S'M\x1c\xbf\\\xa6\x85\xe2?'
p6003
tp6004
Rp6005
ag4
(g8
S'H:\x85\xfa\x11`\xc3?'
p6006
tp6007
Rp6008
ag4
(g8
S'\xf4\x91\x17\xd1\xb6O\x04@'
p6009
tp6010
Rp6011
ag4
(g8
S'_\xf4\xe2\x87Zj\x11@'
p6012
tp6013
Rp6014
ag4
(g8
S'\xf7\x0e\x8e!z)\x02@'
p6015
tp6016
Rp6017
ag4
(g8
S'\xb2\x9f\xd5C\r6\xf5?'
p6018
tp6019
Rp6020
ag4
(g8
S'e"\xa0\xcb\x1e\x8b\xf3?'
p6021
tp6022
Rp6023
ag4
(g8
S'\xe1\x84g*9\xc4\x04@'
p6024
tp6025
Rp6026
ag4
(g8
S'WK\x9e$\x0f*\xfe?'
p6027
tp6028
Rp6029
ag4
(g8
S'\xec\xf9\xa1\x87\x9ad\x17@'
p6030
tp6031
Rp6032
ag4
(g8
S'?\xa6\x80\xf9-7\x05@'
p6033
tp6034
Rp6035
ag4
(g8
S'N\xd7W\xe7)m\xfb?'
p6036
tp6037
Rp6038
ag4
(g8
S'\xf86\x1e\xbd\xa9\xdc\xfa?'
p6039
tp6040
Rp6041
ag4
(g8
S'\xa6\xac\xa6t\xc0/\xf3?'
p6042
tp6043
Rp6044
ag4
(g8
S'\xe1O\xf6\xd0\xed`\t@'
p6045
tp6046
Rp6047
ag4
(g8
S'\xfd\x01\x93\x13E\xc3\x04@'
p6048
tp6049
Rp6050
ag4
(g8
S'\xef\x90\xc2ph\xe1\xf8?'
p6051
tp6052
Rp6053
ag4
(g8
S'\xcd\xfdb\x11KG\x04@'
p6054
tp6055
Rp6056
ag4
(g8
S'*7>\tq\x16\x02@'
p6057
tp6058
Rp6059
ag4
(g8
S'}z\xb5\xb8\xb8\x11\x06@'
p6060
tp6061
Rp6062
ag4
(g8
S'q\x80\xc57\xcdm\xfb?'
p6063
tp6064
Rp6065
ag4
(g8
S'\xbd\xad\xac\xf8k\x02\xf8?'
p6066
tp6067
Rp6068
ag4
(g8
S'\xbd8a3\xdc\x7f\x07@'
p6069
tp6070
Rp6071
ag4
(g8
S'\x1f\x0c3\x7f\xe3#\xf2?'
p6072
tp6073
Rp6074
ag4
(g8
S'T\x10B^\xb6\xba @'
p6075
tp6076
Rp6077
ag4
(g8
S'X6\xe8\xf53\x8e\xf4?'
p6078
tp6079
Rp6080
ag4
(g8
S's5\xca|\xa6\xa5\x02@'
p6081
tp6082
Rp6083
ag4
(g8
S'\xf2"@\xc7\xc2\x1d\x01@'
p6084
tp6085
Rp6086
ag4
(g8
S'\xd1\xc5~\x9f\xdf\x16\x03@'
p6087
tp6088
Rp6089
ag4
(g8
S'\x1c\xadV\xaf\x01\x17\x03@'
p6090
tp6091
Rp6092
ag4
(g8
S'XH\xcf.\x11p\x07@'
p6093
tp6094
Rp6095
ag4
(g8
S'\x1a\xd9\x90\xd0\xe1\xa1\x02@'
p6096
tp6097
Rp6098
ag4
(g8
S'\x00\x93\xc3\x98\x8d\x95\xf8?'
p6099
tp6100
Rp6101
as(g1
g14
tp6102
(lp6103
g4
(g8
S'\x7f\x08\xe5b\xc1\xf8\x00@'
p6104
tp6105
Rp6106
ag4
(g8
S'|(\xb3\xe5_\x07\x00@'
p6107
tp6108
Rp6109
ag4
(g8
S'\xbc\x8b\xf6\xbf\xe7\xe4\xf0?'
p6110
tp6111
Rp6112
ag4
(g8
S'\xc5\x8c\x87\xf9}V\x02@'
p6113
tp6114
Rp6115
ag4
(g8
S'6\x0c^]\xf1I\xeb?'
p6116
tp6117
Rp6118
ag4
(g8
S'\x85\x08\xee\x91c\xdd\x06@'
p6119
tp6120
Rp6121
ag4
(g8
S'\x0f\xa7W\x83}\x15\xff?'
p6122
tp6123
Rp6124
ag4
(g8
S'l\x13\xe5=\xe3\xe1\xf7?'
p6125
tp6126
Rp6127
ag4
(g8
S'o\x90\x01m\xb2\xe1\xfa?'
p6128
tp6129
Rp6130
ag4
(g8
S'\x0e2TQ\xde\xb9\xf2?'
p6131
tp6132
Rp6133
ag4
(g8
S'C\xf5\x004\x0c7\t@'
p6134
tp6135
Rp6136
ag4
(g8
S'\xd2e\x84]\x10\x95\xf3?'
p6137
tp6138
Rp6139
ag4
(g8
S'\x95D^\xba\xbaM\x15@'
p6140
tp6141
Rp6142
ag4
(g8
S'\xf1;\x8e\x18\xbd\x9c\x01@'
p6143
tp6144
Rp6145
ag4
(g8
S'w\xce\xe7B\x13\x03\x08@'
p6146
tp6147
Rp6148
ag4
(g8
S'\xb8$\x87\xc7Ej\xfd?'
p6149
tp6150
Rp6151
ag4
(g8
S'\x8e2\xad\x1e**\x00@'
p6152
tp6153
Rp6154
ag4
(g8
S'p\xf1H\x937\xe5\x03@'
p6155
tp6156
Rp6157
ag4
(g8
S'\x13L\n\xb3\x1eA\t@'
p6158
tp6159
Rp6160
ag4
(g8
S'\x7f\xfa\xe7\xf8\x88\x16\xe3?'
p6161
tp6162
Rp6163
ag4
(g8
S'\x92\xbc"K\xad\t\x06@'
p6164
tp6165
Rp6166
ag4
(g8
S'!\xcc\xcf\xd1\\S\xc4?'
p6167
tp6168
Rp6169
ag4
(g8
S'\xff\x18S\xe5G\x1b\x06@'
p6170
tp6171
Rp6172
ag4
(g8
S'}\x1d[M\x9cw\x06@'
p6173
tp6174
Rp6175
ag4
(g8
S'\x1d\xb1\x1a\xf6d\xbe\xfd?'
p6176
tp6177
Rp6178
ag4
(g8
S'\xf9\xd6\xe3\xaf/\x04\r@'
p6179
tp6180
Rp6181
ag4
(g8
S'\x06(\x19\x9e\xf2\xb8\x0b@'
p6182
tp6183
Rp6184
ag4
(g8
S'2\xcc\xa8\xe0\xdb\xdf\xfa?'
p6185
tp6186
Rp6187
ag4
(g8
S'\xfd[\xf0\xb8u-\xf5?'
p6188
tp6189
Rp6190
ag4
(g8
S'f\xad\xf2\xed\x9e\x14\xf8?'
p6191
tp6192
Rp6193
ag4
(g8
S'\t \xd9\x1b)\xac\xf4?'
p6194
tp6195
Rp6196
ag4
(g8
S'\xa5>\x91z\xb9\xd5\xf7?'
p6197
tp6198
Rp6199
ag4
(g8
S'\xb4\xf5i\xc1\x92\x95\xe8?'
p6200
tp6201
Rp6202
ag4
(g8
S'\x878\x017\xd9T\x04@'
p6203
tp6204
Rp6205
ag4
(g8
S'\x9cF\x17On\xc3\xf6?'
p6206
tp6207
Rp6208
ag4
(g8
S'"La4\xbc\x8e\x02@'
p6209
tp6210
Rp6211
ag4
(g8
S'\xc8&\x92\xad\xd6\xb5\xfc?'
p6212
tp6213
Rp6214
ag4
(g8
S'\xd2\xe2\x8c\xb0x\x8e\xe2?'
p6215
tp6216
Rp6217
ag4
(g8
S'\xf5L\x0bs+v\x01@'
p6218
tp6219
Rp6220
ag4
(g8
S'm\xb7Hw\xdb\xf9\xe5?'
p6221
tp6222
Rp6223
ag4
(g8
S'qn-li\x99\xe2?'
p6224
tp6225
Rp6226
ag4
(g8
S'\xa5\xff\xc2C.\x98\xf0?'
p6227
tp6228
Rp6229
ag4
(g8
S'r\x02s\x03\xcbd\xff?'
p6230
tp6231
Rp6232
ag4
(g8
S'U\xbd\xce\xa9\xcf.\x02@'
p6233
tp6234
Rp6235
ag4
(g8
S'\xc2G\xf2\xb9d\x95\xfb?'
p6236
tp6237
Rp6238
ag4
(g8
S'<\x982sj}\x00@'
p6239
tp6240
Rp6241
ag4
(g8
S'%\xfaJ\xdfh\xde\xf6?'
p6242
tp6243
Rp6244
ag4
(g8
S'\x87\x88\xd1\xd8\xf4\xb3\xfd?'
p6245
tp6246
Rp6247
ag4
(g8
S'\xc4\x8cp\x97\xd1\xbd\xe8?'
p6248
tp6249
Rp6250
ag4
(g8
S'kfC\xdc3\xb3\xf4?'
p6251
tp6252
Rp6253
ag4
(g8
S'\x1f\xcc\x7f\xdd\xdd\xdd\xfc?'
p6254
tp6255
Rp6256
ag4
(g8
S'\xd1\xcd\xffPE\xf7\xeb?'
p6257
tp6258
Rp6259
ag4
(g8
S'\xc2\x8b\xda\x86\xf93\xf3?'
p6260
tp6261
Rp6262
ag4
(g8
S'\xca2\xe7eN\xdb\x02@'
p6263
tp6264
Rp6265
ag4
(g8
S'wI6U\x80\x9c\xf2?'
p6266
tp6267
Rp6268
ag4
(g8
S'\x06\xfcn\xc3\xb7k\xf3?'
p6269
tp6270
Rp6271
ag4
(g8
S'\xff\xe8\x1850\xcc\x04@'
p6272
tp6273
Rp6274
ag4
(g8
S'\xe2r\xfb2\xb3\xa4\x04@'
p6275
tp6276
Rp6277
ag4
(g8
S'\xa9j\xb9)\xdd}\x12@'
p6278
tp6279
Rp6280
ag4
(g8
S'N\xd4\xd1q\xe7\x85\x03@'
p6281
tp6282
Rp6283
ag4
(g8
S'd\x83Q~\x7f\xc7\x02@'
p6284
tp6285
Rp6286
ag4
(g8
S'\xbf\xfcp\xc5_\x86\xf0?'
p6287
tp6288
Rp6289
ag4
(g8
S'|!hy\xa1\xd8\x02@'
p6290
tp6291
Rp6292
as(g1
g19
tp6293
(lp6294
g4
(g8
S'\xa6DM\xb3\x1d\x11\x04@'
p6295
tp6296
Rp6297
ag4
(g8
S'\xafO\xc9\xbf :\xfc?'
p6298
tp6299
Rp6300
ag4
(g8
S'0\xc8\x86\x86\xd6\xaf\x00@'
p6301
tp6302
Rp6303
ag4
(g8
S'2\xc2M6\xc7U\xe9?'
p6304
tp6305
Rp6306
ag4
(g8
S'\xef\xca\xfe\x15\xcc<\x01@'
p6307
tp6308
Rp6309
ag4
(g8
S'\x94\xdb_Gz%\xfe?'
p6310
tp6311
Rp6312
ag4
(g8
S'\x94\xa4\xc3\xefx\x93\x05@'
p6313
tp6314
Rp6315
ag4
(g8
S'\xc9)t\x86\x1c\x10\xe9?'
p6316
tp6317
Rp6318
ag4
(g8
S'o{\x02\x1b\x18\xf5\x02@'
p6319
tp6320
Rp6321
ag4
(g8
S'\xe7\x1c\x80\xc7 \x9f\xf4?'
p6322
tp6323
Rp6324
ag4
(g8
S'\x9a&&n\xc05\t@'
p6325
tp6326
Rp6327
ag4
(g8
S'\x80\x19+9G\x9c\x02@'
p6328
tp6329
Rp6330
ag4
(g8
S'\x9e\t\x03\xa6\xf7>\xfd?'
p6331
tp6332
Rp6333
ag4
(g8
S'P\xf6\x02\x15c\xca\x0f@'
p6334
tp6335
Rp6336
ag4
(g8
S'\xb1\xa4R?\xb2\x94\x16@'
p6337
tp6338
Rp6339
ag4
(g8
S'\xc2\xf9\x17V\xbb\xc6\t@'
p6340
tp6341
Rp6342
ag4
(g8
S'J|h\r2\xd8\xf8?'
p6343
tp6344
Rp6345
ag4
(g8
S'\xac?\xa6\xaf\x94\x99\xf6?'
p6346
tp6347
Rp6348
ag4
(g8
S'x\xcd"Ea\xc4\xd4?'
p6349
tp6350
Rp6351
ag4
(g8
S'\x07\xc4]\xe7\x85\x15\x02@'
p6352
tp6353
Rp6354
ag4
(g8
S'\nT\xcd\xfc5t\x11@'
p6355
tp6356
Rp6357
ag4
(g8
S'\xac\xe2\xb9\xcd\x8e^\x10@'
p6358
tp6359
Rp6360
ag4
(g8
S'%\xb5\xc5\xf0\xf7q\x02@'
p6361
tp6362
Rp6363
ag4
(g8
S'\xbaUR\xf1F\x9a\xf4?'
p6364
tp6365
Rp6366
ag4
(g8
S'/\xe0\xf6\xea%\x02\x10@'
p6367
tp6368
Rp6369
ag4
(g8
S':\xac\xe4Y\xf9\r\x03@'
p6370
tp6371
Rp6372
ag4
(g8
S']\x7f17\xfd\xcf\x03@'
p6373
tp6374
Rp6375
ag4
(g8
S'\xdc\x90"\x13#\xdc\x01@'
p6376
tp6377
Rp6378
ag4
(g8
S'F<^\x03U>\xe1?'
p6379
tp6380
Rp6381
ag4
(g8
S'\xc9Yl\x97q[\x17@'
p6382
tp6383
Rp6384
ag4
(g8
S'S\xe1\xf6\xdcM\x13\xfe?'
p6385
tp6386
Rp6387
ag4
(g8
S'V\xdb\x84fg\x91\xfe?'
p6388
tp6389
Rp6390
ag4
(g8
S'\n\xbek\x0c3z\x02@'
p6391
tp6392
Rp6393
ag4
(g8
S'\xa2H\xe2\xfc\x81\x81\x10@'
p6394
tp6395
Rp6396
ag4
(g8
S'fy\xf0\x89eW\xf4?'
p6397
tp6398
Rp6399
ag4
(g8
S'j\xe8\xd4\x01D\xbd\xf9?'
p6400
tp6401
Rp6402
ag4
(g8
S'\xae\x85i\xcb\xcc,\x00@'
p6403
tp6404
Rp6405
ag4
(g8
S'\x06h\x18\xb6\xe5\x86\xe2?'
p6406
tp6407
Rp6408
ag4
(g8
S'7n\xae\xd0\xd1n\x04@'
p6409
tp6410
Rp6411
ag4
(g8
S'\xf7\xbf\xb8>\x1bL\xf5?'
p6412
tp6413
Rp6414
ag4
(g8
S'Z{2\xf5\xc41\xe2?'
p6415
tp6416
Rp6417
ag4
(g8
S'c\x10\xeb\xd7n\t\x10@'
p6418
tp6419
Rp6420
ag4
(g8
S'\x91\\\xe4\xa0\x01\x16\xed?'
p6421
tp6422
Rp6423
ag4
(g8
S'\x94\xad\xd6M\xb3\xaf\x10@'
p6424
tp6425
Rp6426
ag4
(g8
S'\x1e\xca\xb5$\xe8\xc2\xfb?'
p6427
tp6428
Rp6429
ag4
(g8
S',;\xeb\xc3\xd0\x1c\x02@'
p6430
tp6431
Rp6432
ag4
(g8
S'2\xf0,\xf9\xa5\xf4\x07@'
p6433
tp6434
Rp6435
ag4
(g8
S'N\xdb?R\xdf\xa4\x01@'
p6436
tp6437
Rp6438
ag4
(g8
S"\xc3\x81\x93z\xd1'\xfc?"
p6439
tp6440
Rp6441
ag4
(g8
S'\xb0\xb6Wfo \x08@'
p6442
tp6443
Rp6444
ag4
(g8
S'\xe9%\xd5\x15\xba\x9d\xfd?'
p6445
tp6446
Rp6447
ag4
(g8
S'\xc7\x8a\x12\xe2\xd7r\xfe?'
p6448
tp6449
Rp6450
ag4
(g8
S'L\x02\x1b\x85\xf3Y\x08@'
p6451
tp6452
Rp6453
ag4
(g8
S'h2\xa2\x01{\xd1\x10@'
p6454
tp6455
Rp6456
ag4
(g8
S'\xf7\xad\x93\nz\x82\x12@'
p6457
tp6458
Rp6459
ag4
(g8
S'3\xbd8\xe7}E\x01@'
p6460
tp6461
Rp6462
ag4
(g8
S'\xf9\xdbZ\x00\xfbe\x0e@'
p6463
tp6464
Rp6465
ag4
(g8
S'\x95\xb4V]\x10\xce\xff?'
p6466
tp6467
Rp6468
ag4
(g8
S'\xc0g\xc3;\x9e\xc6\x10@'
p6469
tp6470
Rp6471
ag4
(g8
S'\xd3\xcdH)\x07>\x08@'
p6472
tp6473
Rp6474
ag4
(g8
S'\xafL \x12*\xb2\x12@'
p6475
tp6476
Rp6477
ag4
(g8
S'Fs@^\n\xd7\xfe?'
p6478
tp6479
Rp6480
ag4
(g8
S'\x05\xf2\x1bkc\x91\xf8?'
p6481
tp6482
Rp6483
ag4
(g8
S'#l\xd8\x9bE*\xf9?'
p6484
tp6485
Rp6486
ag4
(g8
S'NG\xf7\x18\xb6?\x08@'
p6487
tp6488
Rp6489
ag4
(g8
S'\x8e\xd0\xc8\xaes\xa3\xf5?'
p6490
tp6491
Rp6492
ag4
(g8
S'\xcb\x07\xaf\xf4O\x88\xef?'
p6493
tp6494
Rp6495
ag4
(g8
S'!\xa1>\xaa\xb8,\x04@'
p6496
tp6497
Rp6498
ag4
(g8
S'l8z\xd6\x91\xdf\xfb?'
p6499
tp6500
Rp6501
ag4
(g8
S'dXu\xc1Q\x97\x02@'
p6502
tp6503
Rp6504
ag4
(g8
S'A\xac\xcfrL\xc8\xec?'
p6505
tp6506
Rp6507
ag4
(g8
S'\x10\xf3\xbdH\x1b\xbb\x00@'
p6508
tp6509
Rp6510
ag4
(g8
S'\xdf\x0bNA\x06"\xf5?'
p6511
tp6512
Rp6513
ag4
(g8
S'\x15u%)\x88\xae\xfb?'
p6514
tp6515
Rp6516
ag4
(g8
S's\x1d\x0cD\xfc\xf5\xfc?'
p6517
tp6518
Rp6519
ag4
(g8
S't\xf5\xde\x97%!\x07@'
p6520
tp6521
Rp6522
ag4
(g8
S')\x90.\xce\xc7\xf2\x01@'
p6523
tp6524
Rp6525
ag4
(g8
S'J\xb9\xeb\\+\xc7\x01@'
p6526
tp6527
Rp6528
ag4
(g8
S'&\x1e\xe9\xc2%\x9d\x00@'
p6529
tp6530
Rp6531
ag4
(g8
S'\x03Q\x9b\x07c\xf6\x03@'
p6532
tp6533
Rp6534
ag4
(g8
S'\xf0~\xd71\xfa\t\x08@'
p6535
tp6536
Rp6537
ag4
(g8
S'\x9f(\x92\xb9\xcf\x06\xff?'
p6538
tp6539
Rp6540
ag4
(g8
S'f\xe8lG\xa7\xca\x04@'
p6541
tp6542
Rp6543
ag4
(g8
S'\x16\x97\xfd\xdf)\xd3\x19@'
p6544
tp6545
Rp6546
ag4
(g8
S'\xf01\xa5\x12\n\xe6\xf8?'
p6547
tp6548
Rp6549
ag4
(g8
S'w\xb8${.f\xff?'
p6550
tp6551
Rp6552
ag4
(g8
S'\x86\x83}\xcd5\xf7\xe0?'
p6553
tp6554
Rp6555
ag4
(g8
S'\x19\xff\xd5\xd4\xc4\x89\xf2?'
p6556
tp6557
Rp6558
ag4
(g8
S'\xe1\x9bS\xe0\x92A\xd8?'
p6559
tp6560
Rp6561
ag4
(g8
S'W,\xc9i\x1d\x91\x04@'
p6562
tp6563
Rp6564
ag4
(g8
S'l\xd9nN\x0e\x14\xfb?'
p6565
tp6566
Rp6567
ag4
(g8
S':hb\x13\r$\x03@'
p6568
tp6569
Rp6570
ag4
(g8
S'\x84x~\x105\xd4\n@'
p6571
tp6572
Rp6573
ag4
(g8
S'\xf0\xb6-\xc6\xc4\x1b\xe4?'
p6574
tp6575
Rp6576
ag4
(g8
S'("\xe7\x07\x05K\x06@'
p6577
tp6578
Rp6579
ag4
(g8
S'\x9c\x8a\x80[l\x83\x07@'
p6580
tp6581
Rp6582
ag4
(g8
S'\xf274KJ\xd3\x0b@'
p6583
tp6584
Rp6585
ag4
(g8
S'\x08i\x85\x07\xd6g\xff?'
p6586
tp6587
Rp6588
ag4
(g8
S'Ku\xa4\xafq\x1e\xda?'
p6589
tp6590
Rp6591
ag4
(g8
S"'\x14\xc6S\xe0\xbd\x04@"
p6592
tp6593
Rp6594
ag4
(g8
S'\xbe\x9c{\x0e\xa4\x1a\r@'
p6595
tp6596
Rp6597
ag4
(g8
S']\x00(\xa7\xc1i\x00@'
p6598
tp6599
Rp6600
ag4
(g8
S'\x9b\xab\x10\xef \\\x03@'
p6601
tp6602
Rp6603
ag4
(g8
S'M\x84Z8a\x7f\xfa?'
p6604
tp6605
Rp6606
ag4
(g8
S'\x16V\xc4\xb3\xa3\xe0\x08@'
p6607
tp6608
Rp6609
ag4
(g8
S'\xe9\xbe\x88 &\xa1\x14@'
p6610
tp6611
Rp6612
ag4
(g8
S'\x9b\xe8]`\xea\x12\x01@'
p6613
tp6614
Rp6615
ag4
(g8
S'\x96\x19\xd0\xab\x87\xe7\xf6?'
p6616
tp6617
Rp6618
ag4
(g8
S'$\x1b\x91_\xad\xb1\x06@'
p6619
tp6620
Rp6621
ag4
(g8
S'|\xc6"\xa8\xe4,\xf8?'
p6622
tp6623
Rp6624
ag4
(g8
S'>\xce\x1dB\xcb\xec\x01@'
p6625
tp6626
Rp6627
ag4
(g8
S'\xea\x06\x1f\x9e\xa5\xb6\x1d@'
p6628
tp6629
Rp6630
ag4
(g8
S'\xc6\xa3\xcc\x9a\xc3\xc6\x05@'
p6631
tp6632
Rp6633
ag4
(g8
S'\xc7\xd3h\x8fow\xf7?'
p6634
tp6635
Rp6636
ag4
(g8
S'\xd6\xfcU2\xdam\xf0?'
p6637
tp6638
Rp6639
ag4
(g8
S'\xc9O\x13$\xf7\x9d\x08@'
p6640
tp6641
Rp6642
ag4
(g8
S'\x8f7|P\xa78\x1f@'
p6643
tp6644
Rp6645
ag4
(g8
S'\x8e\x8fW\xab\xf52\x03@'
p6646
tp6647
Rp6648
ag4
(g8
S'h\xd5\xdb\xc5\xb5\xdf\x13@'
p6649
tp6650
Rp6651
ag4
(g8
S'\xf9\x19HF\xe4*\x01@'
p6652
tp6653
Rp6654
ag4
(g8
S'`\x1f\xb62\x80u\x06@'
p6655
tp6656
Rp6657
ag4
(g8
S'|\xee\xcfUWK\x03@'
p6658
tp6659
Rp6660
ag4
(g8
S'\xe5-P\x85\x0e\xf2\x03@'
p6661
tp6662
Rp6663
ag4
(g8
S']\xc8\x95\xef\xc8\xa9\xeb?'
p6664
tp6665
Rp6666
ag4
(g8
S'<\xab\x0eK\x99\xb3\xe5?'
p6667
tp6668
Rp6669
ag4
(g8
S'\xc7\xa7\xd5&\xb5\xbc\xfd?'
p6670
tp6671
Rp6672
ag4
(g8
S'2\xf0\xb7\xd5j\x80\x00@'
p6673
tp6674
Rp6675
ag4
(g8
S'*Xa\xa3\xf7W\x01@'
p6676
tp6677
Rp6678
ag4
(g8
S"\x99'FfFp\x04@"
p6679
tp6680
Rp6681
ag4
(g8
S'4Tg\x9e\t\t\x06@'
p6682
tp6683
Rp6684
ag4
(g8
S'h-\x15n\x91\x96\x04@'
p6685
tp6686
Rp6687
ag4
(g8
S'\xdcY\xb9\xe2\xe4\xf5\xfd?'
p6688
tp6689
Rp6690
ag4
(g8
S'4\xf1\xba\x80`I\xe3?'
p6691
tp6692
Rp6693
ag4
(g8
S'\xde\xc1>\x0b\xe4\xba\xf8?'
p6694
tp6695
Rp6696
as(g1
g24
tp6697
(lp6698
g4
(g8
S'\x7f\x08\xe5b\xc1\xf8\x00@'
p6699
tp6700
Rp6701
ag4
(g8
S'\xfb_\xa7\x0e\xa4"\x12@'
p6702
tp6703
Rp6704
ag4
(g8
S'\xa6DM\xb3\x1d\x11\x04@'
p6705
tp6706
Rp6707
ag4
(g8
S'\xafO\xc9\xbf :\xfc?'
p6708
tp6709
Rp6710
ag4
(g8
S'0\xc8\x86\x86\xd6\xaf\x00@'
p6711
tp6712
Rp6713
ag4
(g8
S'\xf2C\xc7\x825\x0f\xfe?'
p6714
tp6715
Rp6716
ag4
(g8
S'\x7f\xce\\t\xecx\xff?'
p6717
tp6718
Rp6719
ag4
(g8
S'\x1b\xc2\xf3?\xb5 \x07@'
p6720
tp6721
Rp6722
ag4
(g8
S'\xf4\x03\xa8\xf1\xbe\x15\x04@'
p6723
tp6724
Rp6725
ag4
(g8
S'2\xc2M6\xc7U\xe9?'
p6726
tp6727
Rp6728
ag4
(g8
S'\xef\xca\xfe\x15\xcc<\x01@'
p6729
tp6730
Rp6731
ag4
(g8
S'\x94\xdb_Gz%\xfe?'
p6732
tp6733
Rp6734
ag4
(g8
S'\x94\xa4\xc3\xefx\x93\x05@'
p6735
tp6736
Rp6737
ag4
(g8
S'\\\x9a\xd9\xb4\x15\x03\x05@'
p6738
tp6739
Rp6740
ag4
(g8
S'\xa0\xe7x$\xecI\xfd?'
p6741
tp6742
Rp6743
ag4
(g8
S'\xa8\x8c\x06\xc1\xefH\x11@'
p6744
tp6745
Rp6746
ag4
(g8
S'\xe0\x18\xc7y\xec\x03\x04@'
p6747
tp6748
Rp6749
ag4
(g8
S'\x18\xece\xf9G\n\x0f@'
p6750
tp6751
Rp6752
ag4
(g8
S'\xa0rz\xaej\xe7\x03@'
p6753
tp6754
Rp6755
ag4
(g8
S'|(\xb3\xe5_\x07\x00@'
p6756
tp6757
Rp6758
ag4
(g8
S'\xc9)t\x86\x1c\x10\xe9?'
p6759
tp6760
Rp6761
ag4
(g8
S'o{\x02\x1b\x18\xf5\x02@'
p6762
tp6763
Rp6764
ag4
(g8
S'\xe7\x1c\x80\xc7 \x9f\xf4?'
p6765
tp6766
Rp6767
ag4
(g8
S'\x9a&&n\xc05\t@'
p6768
tp6769
Rp6770
ag4
(g8
S'K,\xd9\xfc\x1d{\x06@'
p6771
tp6772
Rp6773
ag4
(g8
S'u\xa7\x1e\xb0\x96A\x07@'
p6774
tp6775
Rp6776
ag4
(g8
S'my\x14\x95\x1a:\xe9?'
p6777
tp6778
Rp6779
ag4
(g8
S'\x1bg\x83&\x17B\x01@'
p6780
tp6781
Rp6782
ag4
(g8
S'8W\xd4I\x7f\x99\x05@'
p6783
tp6784
Rp6785
ag4
(g8
S'^Ks\x96\x07&\x15@'
p6786
tp6787
Rp6788
ag4
(g8
S'\xbc\x8b\xf6\xbf\xe7\xe4\xf0?'
p6789
tp6790
Rp6791
ag4
(g8
S'\xc5\x8c\x87\xf9}V\x02@'
p6792
tp6793
Rp6794
ag4
(g8
S'\x80\x19+9G\x9c\x02@'
p6795
tp6796
Rp6797
ag4
(g8
S'\x9e\t\x03\xa6\xf7>\xfd?'
p6798
tp6799
Rp6800
ag4
(g8
S'P\xf6\x02\x15c\xca\x0f@'
p6801
tp6802
Rp6803
ag4
(g8
S'\xb1\xa4R?\xb2\x94\x16@'
p6804
tp6805
Rp6806
ag4
(g8
S'\xc2\xf9\x17V\xbb\xc6\t@'
p6807
tp6808
Rp6809
ag4
(g8
S'\x84\xe8\x02\xb5<5\x00@'
p6810
tp6811
Rp6812
ag4
(g8
S'0\x18\xb7F\xc4O\n@'
p6813
tp6814
Rp6815
ag4
(g8
S'#\x96\x00\xfc\x0e\xd4\x01@'
p6816
tp6817
Rp6818
ag4
(g8
S'\xd1\x84\xa6]\x1eL\n@'
p6819
tp6820
Rp6821
ag4
(g8
S'\xc8D\x0c)x\x1a\n@'
p6822
tp6823
Rp6824
ag4
(g8
S'\x00\xa0\xb90\xc4Q\xeb?'
p6825
tp6826
Rp6827
ag4
(g8
S'J|h\r2\xd8\xf8?'
p6828
tp6829
Rp6830
ag4
(g8
S'\xac?\xa6\xaf\x94\x99\xf6?'
p6831
tp6832
Rp6833
ag4
(g8
S'x\xcd"Ea\xc4\xd4?'
p6834
tp6835
Rp6836
ag4
(g8
S'\xb7\xa9\xae\n!\xcd\x06@'
p6837
tp6838
Rp6839
ag4
(g8
S'\xd7\xa2\xa4B\x89\x7f\x10@'
p6840
tp6841
Rp6842
ag4
(g8
S't\xeb\xa9\x1fb\xc3\x00@'
p6843
tp6844
Rp6845
ag4
(g8
S'\x88O%\xa3I\xc0\xf6?'
p6846
tp6847
Rp6848
ag4
(g8
S'\xf5\x81\xe37\x85\xb4\xfc?'
p6849
tp6850
Rp6851
ag4
(g8
S'p\x18na\x08\xb0\x01@'
p6852
tp6853
Rp6854
ag4
(g8
S'\xfcI@\x80-\xde\xff?'
p6855
tp6856
Rp6857
ag4
(g8
S'\x0f\xa7W\x83}\x15\xff?'
p6858
tp6859
Rp6860
ag4
(g8
S'\x07\xc4]\xe7\x85\x15\x02@'
p6861
tp6862
Rp6863
ag4
(g8
S'\nT\xcd\xfc5t\x11@'
p6864
tp6865
Rp6866
ag4
(g8
S'6\xfc\x06\xbe-\xd6\x0f@'
p6867
tp6868
Rp6869
ag4
(g8
S'k\xb1S\x85Sg\x03@'
p6870
tp6871
Rp6872
ag4
(g8
S'\x19KE/\xd9\xb3\xfd?'
p6873
tp6874
Rp6875
ag4
(g8
S'\xbaUR\xf1F\x9a\xf4?'
p6876
tp6877
Rp6878
ag4
(g8
S'/\xe0\xf6\xea%\x02\x10@'
p6879
tp6880
Rp6881
ag4
(g8
S':\xac\xe4Y\xf9\r\x03@'
p6882
tp6883
Rp6884
ag4
(g8
S']\x7f17\xfd\xcf\x03@'
p6885
tp6886
Rp6887
ag4
(g8
S'\xdc\x90"\x13#\xdc\x01@'
p6888
tp6889
Rp6890
ag4
(g8
S'n\x11\x84\x8c\x04[\xee?'
p6891
tp6892
Rp6893
ag4
(g8
S'\r\xa3\xbf\xa8_\x8e\x05@'
p6894
tp6895
Rp6896
ag4
(g8
S'\xa4\x10\x03\xa0v\x90\n@'
p6897
tp6898
Rp6899
ag4
(g8
S'\xd7}\x13#\xec\xb7\xf9?'
p6900
tp6901
Rp6902
ag4
(g8
S'L_ \x9b\x0bK\x10@'
p6903
tp6904
Rp6905
ag4
(g8
S'\xd87\x91{\xfe\x10\x03@'
p6906
tp6907
Rp6908
ag4
(g8
S'l\x13\xe5=\xe3\xe1\xf7?'
p6909
tp6910
Rp6911
ag4
(g8
S'\xc9Yl\x97q[\x17@'
p6912
tp6913
Rp6914
ag4
(g8
S'S\xe1\xf6\xdcM\x13\xfe?'
p6915
tp6916
Rp6917
ag4
(g8
S'V\xdb\x84fg\x91\xfe?'
p6918
tp6919
Rp6920
ag4
(g8
S'\x04\xd9aae\xc7\x12@'
p6921
tp6922
Rp6923
ag4
(g8
S'-\xb8\xe2\xea=\x8d\xe2?'
p6924
tp6925
Rp6926
ag4
(g8
S'o\x90\x01m\xb2\xe1\xfa?'
p6927
tp6928
Rp6929
ag4
(g8
S'\x0e2TQ\xde\xb9\xf2?'
p6930
tp6931
Rp6932
ag4
(g8
S'C\xf5\x004\x0c7\t@'
p6933
tp6934
Rp6935
ag4
(g8
S'7cyz\x14!\x07@'
p6936
tp6937
Rp6938
ag4
(g8
S'\n\xbek\x0c3z\x02@'
p6939
tp6940
Rp6941
ag4
(g8
S'\xa2H\xe2\xfc\x81\x81\x10@'
p6942
tp6943
Rp6944
ag4
(g8
S'fy\xf0\x89eW\xf4?'
p6945
tp6946
Rp6947
ag4
(g8
S'\xce\xe7D\x1ak\xf4\x05@'
p6948
tp6949
Rp6950
ag4
(g8
S'\xd4\x03\x03,w?\xf9?'
p6951
tp6952
Rp6953
ag4
(g8
S' \x81\xee\x85\xcd\x01\xfc?'
p6954
tp6955
Rp6956
ag4
(g8
S'pDD\xec\xc1O\x05@'
p6957
tp6958
Rp6959
ag4
(g8
S'\xd2e\x84]\x10\x95\xf3?'
p6960
tp6961
Rp6962
ag4
(g8
S'\x95D^\xba\xbaM\x15@'
p6963
tp6964
Rp6965
ag4
(g8
S'\xf1;\x8e\x18\xbd\x9c\x01@'
p6966
tp6967
Rp6968
ag4
(g8
S'\x8e]\xc9%\xe9\x14\t@'
p6969
tp6970
Rp6971
ag4
(g8
S'j\xe8\xd4\x01D\xbd\xf9?'
p6972
tp6973
Rp6974
ag4
(g8
S'\xae\x85i\xcb\xcc,\x00@'
p6975
tp6976
Rp6977
ag4
(g8
S'\x7f\x1a\x0b\x90)\\\xf9?'
p6978
tp6979
Rp6980
ag4
(g8
S'\xc7cv\x13\xa8\xa9\x13@'
p6981
tp6982
Rp6983
ag4
(g8
S'\x19gb\xc0\xca\x83\x17@'
p6984
tp6985
Rp6986
ag4
(g8
S'(\x155J\x9a\xe1\xf0?'
p6987
tp6988
Rp6989
ag4
(g8
S'e\x06>\xf4\x17\xa8\x1c@'
p6990
tp6991
Rp6992
ag4
(g8
S'?,\xc2?\x0c0\t@'
p6993
tp6994
Rp6995
ag4
(g8
S'\x00M\x9a*cn\x17@'
p6996
tp6997
Rp6998
ag4
(g8
S'7n\xae\xd0\xd1n\x04@'
p6999
tp7000
Rp7001
ag4
(g8
S'\xf7\xbf\xb8>\x1bL\xf5?'
p7002
tp7003
Rp7004
ag4
(g8
S'\xca\xadv3\xa0\xd4\xfe?'
p7005
tp7006
Rp7007
ag4
(g8
S'd\xbe\xabGe\x08\x05@'
p7008
tp7009
Rp7010
ag4
(g8
S'W\xb6\xfa7Z*\x08@'
p7011
tp7012
Rp7013
ag4
(g8
S'\xc6\x9d\x15\x9bv\xb3\xd1?'
p7014
tp7015
Rp7016
ag4
(g8
S'\xd6uAEOW\r@'
p7017
tp7018
Rp7019
ag4
(g8
S'P\x7f\xaa\x0f\x91Y\xf0?'
p7020
tp7021
Rp7022
ag4
(g8
S'\x07\x1e\xd0\x98\xba\x1e\xf7?'
p7023
tp7024
Rp7025
ag4
(g8
S'\xb8$\x87\xc7Ej\xfd?'
p7026
tp7027
Rp7028
ag4
(g8
S'\x8e2\xad\x1e**\x00@'
p7029
tp7030
Rp7031
ag4
(g8
S'Z{2\xf5\xc41\xe2?'
p7032
tp7033
Rp7034
ag4
(g8
S'c\x10\xeb\xd7n\t\x10@'
p7035
tp7036
Rp7037
ag4
(g8
S'\x91\\\xe4\xa0\x01\x16\xed?'
p7038
tp7039
Rp7040
ag4
(g8
S'\x94\xad\xd6M\xb3\xaf\x10@'
p7041
tp7042
Rp7043
ag4
(g8
S'`\x99\xcb\xd0/\x0c\x03@'
p7044
tp7045
Rp7046
ag4
(g8
S'8`\x85\xbc\xd4\x13\x05@'
p7047
tp7048
Rp7049
ag4
(g8
S'\xc3=\xa18\x08\x9e\x0f@'
p7050
tp7051
Rp7052
ag4
(g8
S'/\xb1\ne\xd8?\xe3?'
p7053
tp7054
Rp7055
ag4
(g8
S'o\xce\xa5`Bo\x00@'
p7056
tp7057
Rp7058
ag4
(g8
S'\x81\xa7jX\x81\x1f\xf9?'
p7059
tp7060
Rp7061
ag4
(g8
S'R\xb6|\xda\xc7\x8f\xf6?'
p7062
tp7063
Rp7064
ag4
(g8
S'p\xf1H\x937\xe5\x03@'
p7065
tp7066
Rp7067
ag4
(g8
S'\x13L\n\xb3\x1eA\t@'
p7068
tp7069
Rp7070
ag4
(g8
S'\x7f\xfa\xe7\xf8\x88\x16\xe3?'
p7071
tp7072
Rp7073
ag4
(g8
S'\x92\xbc"K\xad\t\x06@'
p7074
tp7075
Rp7076
ag4
(g8
S'\xe0\x9f\x1a\x9a\xa8\x91\xee?'
p7077
tp7078
Rp7079
ag4
(g8
S',;\xeb\xc3\xd0\x1c\x02@'
p7080
tp7081
Rp7082
ag4
(g8
S'2\xf0,\xf9\xa5\xf4\x07@'
p7083
tp7084
Rp7085
ag4
(g8
S'N\xdb?R\xdf\xa4\x01@'
p7086
tp7087
Rp7088
ag4
(g8
S'\xe3<M\x88\xc7L\x01@'
p7089
tp7090
Rp7091
ag4
(g8
S'\x8bg\r\xb1\x1d\x0f\x04@'
p7092
tp7093
Rp7094
ag4
(g8
S"y'}%\xd7\x12\x04@"
p7095
tp7096
Rp7097
ag4
(g8
S'\xddV`\x1a\xae\xca\x0f@'
p7098
tp7099
Rp7100
ag4
(g8
S'\xff\x18S\xe5G\x1b\x06@'
p7101
tp7102
Rp7103
ag4
(g8
S'}\x1d[M\x9cw\x06@'
p7104
tp7105
Rp7106
ag4
(g8
S"\xc3\x81\x93z\xd1'\xfc?"
p7107
tp7108
Rp7109
ag4
(g8
S'\xb0\xb6Wfo \x08@'
p7110
tp7111
Rp7112
ag4
(g8
S'\xe9%\xd5\x15\xba\x9d\xfd?'
p7113
tp7114
Rp7115
ag4
(g8
S'\xc7\x8a\x12\xe2\xd7r\xfe?'
p7116
tp7117
Rp7118
ag4
(g8
S':"\x01ry1\x00@'
p7119
tp7120
Rp7121
ag4
(g8
S'k\x8a\xd0\xf8\xef\xce\x07@'
p7122
tp7123
Rp7124
ag4
(g8
S'\xa5\x02\xd5\xa0\x9e\x99\x10@'
p7125
tp7126
Rp7127
ag4
(g8
S']I2\x8e\xf2\xf2\x00@'
p7128
tp7129
Rp7130
ag4
(g8
S'{7\xf8/\x94\xc9\xfe?'
p7131
tp7132
Rp7133
ag4
(g8
S'\x9e\xa5\xd4\xc1\x8d^\n@'
p7134
tp7135
Rp7136
ag4
(g8
S'>\\\xc1\xa0oo\x03@'
p7137
tp7138
Rp7139
ag4
(g8
S'\xf4\x9c\xa6\x1b(p\xf5?'
p7140
tp7141
Rp7142
ag4
(g8
S'\x1d\xb1\x1a\xf6d\xbe\xfd?'
p7143
tp7144
Rp7145
ag4
(g8
S'\xf9\xd6\xe3\xaf/\x04\r@'
p7146
tp7147
Rp7148
ag4
(g8
S'\x06(\x19\x9e\xf2\xb8\x0b@'
p7149
tp7150
Rp7151
ag4
(g8
S'O`\x07\x18\x02\xa5\xe7?'
p7152
tp7153
Rp7154
ag4
(g8
S'L\x02\x1b\x85\xf3Y\x08@'
p7155
tp7156
Rp7157
ag4
(g8
S'h2\xa2\x01{\xd1\x10@'
p7158
tp7159
Rp7160
ag4
(g8
S'\xf7\xad\x93\nz\x82\x12@'
p7161
tp7162
Rp7163
ag4
(g8
S'3\xbd8\xe7}E\x01@'
p7164
tp7165
Rp7166
ag4
(g8
S'i\x14\xa4\xef\xba&\x03@'
p7167
tp7168
Rp7169
ag4
(g8
S'\x13p\x92\xeb\xe1\xd7!@'
p7170
tp7171
Rp7172
ag4
(g8
S'\xfc\x80\x95>\xe7\xc3\xfc?'
p7173
tp7174
Rp7175
ag4
(g8
S'\xa1\xb1\xf7\x0c\xac0\xd0?'
p7176
tp7177
Rp7178
ag4
(g8
S'2\xcc\xa8\xe0\xdb\xdf\xfa?'
p7179
tp7180
Rp7181
ag4
(g8
S'\xfd[\xf0\xb8u-\xf5?'
p7182
tp7183
Rp7184
ag4
(g8
S'f\xad\xf2\xed\x9e\x14\xf8?'
p7185
tp7186
Rp7187
ag4
(g8
S'\xf9\xdbZ\x00\xfbe\x0e@'
p7188
tp7189
Rp7190
ag4
(g8
S'\x95\xb4V]\x10\xce\xff?'
p7191
tp7192
Rp7193
ag4
(g8
S'\xc0g\xc3;\x9e\xc6\x10@'
p7194
tp7195
Rp7196
ag4
(g8
S'\xd3\xcdH)\x07>\x08@'
p7197
tp7198
Rp7199
ag4
(g8
S'\xafL \x12*\xb2\x12@'
p7200
tp7201
Rp7202
ag4
(g8
S'.U\xa0\x8b\xf2\xd2\xff?'
p7203
tp7204
Rp7205
ag4
(g8
S'-\xd1\xc81\xe2\xf3\x05@'
p7206
tp7207
Rp7208
ag4
(g8
S'O\xfaU;\xbb\xee\x08@'
p7209
tp7210
Rp7211
ag4
(g8
S'\xb0\x8b\xc9\xb1\xbb3\x11@'
p7212
tp7213
Rp7214
ag4
(g8
S'\t \xd9\x1b)\xac\xf4?'
p7215
tp7216
Rp7217
ag4
(g8
S'\xa5>\x91z\xb9\xd5\xf7?'
p7218
tp7219
Rp7220
ag4
(g8
S'Fs@^\n\xd7\xfe?'
p7221
tp7222
Rp7223
ag4
(g8
S'\x05\xf2\x1bkc\x91\xf8?'
p7224
tp7225
Rp7226
ag4
(g8
S'#l\xd8\x9bE*\xf9?'
p7227
tp7228
Rp7229
ag4
(g8
S'NG\xf7\x18\xb6?\x08@'
p7230
tp7231
Rp7232
ag4
(g8
S'\x8e\xd0\xc8\xaes\xa3\xf5?'
p7233
tp7234
Rp7235
ag4
(g8
S'\xcb\x07\xaf\xf4O\x88\xef?'
p7236
tp7237
Rp7238
ag4
(g8
S'\xf2\xa8\x90\xb6Uc\xe0?'
p7239
tp7240
Rp7241
ag4
(g8
S'\xd9\x13<J\xa9\x89\x11@'
p7242
tp7243
Rp7244
ag4
(g8
S'\xe7R\x17\xf6\x01\xfa\xe0?'
p7245
tp7246
Rp7247
ag4
(g8
S'n\x1b\xfc`\xa3\x12\x04@'
p7248
tp7249
Rp7250
ag4
(g8
S'\x15]pi.\x02\x06@'
p7251
tp7252
Rp7253
ag4
(g8
S'\xe9\xaf\xc8\x88\xe2\n\x04@'
p7254
tp7255
Rp7256
ag4
(g8
S'Y;;H\x80\t\x05@'
p7257
tp7258
Rp7259
ag4
(g8
S')\xdcj\xf2\x17\x11\x0e@'
p7260
tp7261
Rp7262
ag4
(g8
S'\xb4\xf5i\xc1\x92\x95\xe8?'
p7263
tp7264
Rp7265
ag4
(g8
S'\x878\x017\xd9T\x04@'
p7266
tp7267
Rp7268
ag4
(g8
S'\x9cF\x17On\xc3\xf6?'
p7269
tp7270
Rp7271
ag4
(g8
S'!\xa1>\xaa\xb8,\x04@'
p7272
tp7273
Rp7274
ag4
(g8
S'l8z\xd6\x91\xdf\xfb?'
p7275
tp7276
Rp7277
ag4
(g8
S'dXu\xc1Q\x97\x02@'
p7278
tp7279
Rp7280
ag4
(g8
S'A\xac\xcfrL\xc8\xec?'
p7281
tp7282
Rp7283
ag4
(g8
S')\xd2\xa4\x86\x83\xd9\x05@'
p7284
tp7285
Rp7286
ag4
(g8
S"\x8e\x86\x9f{!'\xfa?"
p7287
tp7288
Rp7289
ag4
(g8
S'k\x14\xf93\xc1\x1c\x19@'
p7290
tp7291
Rp7292
ag4
(g8
S'A[LD\x8b\r\x02@'
p7293
tp7294
Rp7295
ag4
(g8
S'\tlSe\xd3\\\r@'
p7296
tp7297
Rp7298
ag4
(g8
S'\x08\x10uu\xd2%\t@'
p7299
tp7300
Rp7301
ag4
(g8
S'Ed\xc8\x86;w\x00@'
p7302
tp7303
Rp7304
ag4
(g8
S'\xc8&\x92\xad\xd6\xb5\xfc?'
p7305
tp7306
Rp7307
ag4
(g8
S'\x10\xf3\xbdH\x1b\xbb\x00@'
p7308
tp7309
Rp7310
ag4
(g8
S'\xdf\x0bNA\x06"\xf5?'
p7311
tp7312
Rp7313
ag4
(g8
S'\x15u%)\x88\xae\xfb?'
p7314
tp7315
Rp7316
ag4
(g8
S'\xcb\x1d\xa7\xe35\xa9\x01@'
p7317
tp7318
Rp7319
ag4
(g8
S'\x0e\xfb\xd5O\xdd\xb0\x06@'
p7320
tp7321
Rp7322
ag4
(g8
S'[D\xfa\x1b\xa5s\xf6?'
p7323
tp7324
Rp7325
ag4
(g8
S'\x12\x9d\x18\xf2i\xdc\xfe?'
p7326
tp7327
Rp7328
ag4
(g8
S'\xc5\xb4\xc4 \x02U\xfc?'
p7329
tp7330
Rp7331
ag4
(g8
S'\xd2\xe2\x8c\xb0x\x8e\xe2?'
p7332
tp7333
Rp7334
ag4
(g8
S'\xf5L\x0bs+v\x01@'
p7335
tp7336
Rp7337
ag4
(g8
S's\x1d\x0cD\xfc\xf5\xfc?'
p7338
tp7339
Rp7340
ag4
(g8
S't\xf5\xde\x97%!\x07@'
p7341
tp7342
Rp7343
ag4
(g8
S'VX\xf0rm_\x00@'
p7344
tp7345
Rp7346
ag4
(g8
S'\xc8\\\xabjd\x0e\xff?'
p7347
tp7348
Rp7349
ag4
(g8
S'm\xb7Hw\xdb\xf9\xe5?'
p7350
tp7351
Rp7352
ag4
(g8
S'qn-li\x99\xe2?'
p7353
tp7354
Rp7355
ag4
(g8
S'\xf9\xa4\xe9\x0b9\xd5\xfc?'
p7356
tp7357
Rp7358
ag4
(g8
S')\x90.\xce\xc7\xf2\x01@'
p7359
tp7360
Rp7361
ag4
(g8
S'J\xb9\xeb\\+\xc7\x01@'
p7362
tp7363
Rp7364
ag4
(g8
S'&\x1e\xe9\xc2%\x9d\x00@'
p7365
tp7366
Rp7367
ag4
(g8
S'\x03Q\x9b\x07c\xf6\x03@'
p7368
tp7369
Rp7370
ag4
(g8
S'\xac\x9c7$\xd7$\xf8?'
p7371
tp7372
Rp7373
ag4
(g8
S'\x10\ra\x81W$\x04@'
p7374
tp7375
Rp7376
ag4
(g8
S'\xdb8\x003\x86U\xfa?'
p7377
tp7378
Rp7379
ag4
(g8
S'\xeb\x7f\xfe\x8a\x94\xc2\x02@'
p7380
tp7381
Rp7382
ag4
(g8
S'\xfdF\xd5\x17\xb7\xb2\x1a@'
p7383
tp7384
Rp7385
ag4
(g8
S'c.\x06*F\x9b\x02@'
p7386
tp7387
Rp7388
ag4
(g8
S'\x9f(\x92\xb9\xcf\x06\xff?'
p7389
tp7390
Rp7391
ag4
(g8
S'f\xe8lG\xa7\xca\x04@'
p7392
tp7393
Rp7394
ag4
(g8
S'\x16\x97\xfd\xdf)\xd3\x19@'
p7395
tp7396
Rp7397
ag4
(g8
S'y}&\xb5\xff7\x10@'
p7398
tp7399
Rp7400
ag4
(g8
S'\xea\xe1\xc4zc\xf3\x07@'
p7401
tp7402
Rp7403
ag4
(g8
S'5\x94T^y\x1b\x10@'
p7404
tp7405
Rp7406
ag4
(g8
S'_\xf4\xe2\x87Zj\x11@'
p7407
tp7408
Rp7409
ag4
(g8
S'\xb2\x9f\xd5C\r6\xf5?'
p7410
tp7411
Rp7412
ag4
(g8
S'e"\xa0\xcb\x1e\x8b\xf3?'
p7413
tp7414
Rp7415
ag4
(g8
S'r\x02s\x03\xcbd\xff?'
p7416
tp7417
Rp7418
ag4
(g8
S'\r\xbf\x82Q(\x8e\x02@'
p7419
tp7420
Rp7421
ag4
(g8
S'\xf01\xa5\x12\n\xe6\xf8?'
p7422
tp7423
Rp7424
ag4
(g8
S'w\xb8${.f\xff?'
p7425
tp7426
Rp7427
ag4
(g8
S'\x86\x83}\xcd5\xf7\xe0?'
p7428
tp7429
Rp7430
ag4
(g8
S'\x83\xc7X\xa6G\\\x0f@'
p7431
tp7432
Rp7433
ag4
(g8
S'\xfe\x1d.\xe9\xcb~\xf8?'
p7434
tp7435
Rp7436
ag4
(g8
S'\x0e\x16h\xc4\x9a\xd6\x03@'
p7437
tp7438
Rp7439
ag4
(g8
S'\x0e\xa4\xd3\xd5\x8f\x9d\x05@'
p7440
tp7441
Rp7442
ag4
(g8
S'\xbe/\x1fLX\x1d\x00@'
p7443
tp7444
Rp7445
ag4
(g8
S'9D\x97$n\x01\x01@'
p7446
tp7447
Rp7448
ag4
(g8
S'\xe1\x84g*9\xc4\x04@'
p7449
tp7450
Rp7451
ag4
(g8
S'WK\x9e$\x0f*\xfe?'
p7452
tp7453
Rp7454
ag4
(g8
S'\xec\xf9\xa1\x87\x9ad\x17@'
p7455
tp7456
Rp7457
ag4
(g8
S'\x12\xa4"\xf2\xdfM\x0e@'
p7458
tp7459
Rp7460
ag4
(g8
S'\xf1\x0eE`\x04\xaf\x02@'
p7461
tp7462
Rp7463
ag4
(g8
S'\xe1\x9bS\xe0\x92A\xd8?'
p7464
tp7465
Rp7466
ag4
(g8
S'W,\xc9i\x1d\x91\x04@'
p7467
tp7468
Rp7469
ag4
(g8
S'l\xd9nN\x0e\x14\xfb?'
p7470
tp7471
Rp7472
ag4
(g8
S':hb\x13\r$\x03@'
p7473
tp7474
Rp7475
ag4
(g8
S'\x84x~\x105\xd4\n@'
p7476
tp7477
Rp7478
ag4
(g8
S'\xf0\xb6-\xc6\xc4\x1b\xe4?'
p7479
tp7480
Rp7481
ag4
(g8
S'3D\x051q\x07\n@'
p7482
tp7483
Rp7484
ag4
(g8
S'\xe5\xe6\x1f\xf6\x19f\x1a@'
p7485
tp7486
Rp7487
ag4
(g8
S' \xc8\x1bcP\x8b\x08@'
p7488
tp7489
Rp7490
ag4
(g8
S'\xcd\xdf\xc2\xc9"\xb9\x06@'
p7491
tp7492
Rp7493
ag4
(g8
S'\x0c\x92\xf0\xd3\x14\xb9\xfd?'
p7494
tp7495
Rp7496
ag4
(g8
S'N\xd7W\xe7)m\xfb?'
p7497
tp7498
Rp7499
ag4
(g8
S'\xf86\x1e\xbd\xa9\xdc\xfa?'
p7500
tp7501
Rp7502
ag4
(g8
S'\xa6\xac\xa6t\xc0/\xf3?'
p7503
tp7504
Rp7505
ag4
(g8
S'\xc2G\xf2\xb9d\x95\xfb?'
p7506
tp7507
Rp7508
ag4
(g8
S'<\x982sj}\x00@'
p7509
tp7510
Rp7511
ag4
(g8
S'%\xfaJ\xdfh\xde\xf6?'
p7512
tp7513
Rp7514
ag4
(g8
S'\x87\x88\xd1\xd8\xf4\xb3\xfd?'
p7515
tp7516
Rp7517
ag4
(g8
S'("\xe7\x07\x05K\x06@'
p7518
tp7519
Rp7520
ag4
(g8
S'\x9c\x8a\x80[l\x83\x07@'
p7521
tp7522
Rp7523
ag4
(g8
S'\xf274KJ\xd3\x0b@'
p7524
tp7525
Rp7526
ag4
(g8
S'\x08i\x85\x07\xd6g\xff?'
p7527
tp7528
Rp7529
ag4
(g8
S'Ku\xa4\xafq\x1e\xda?'
p7530
tp7531
Rp7532
ag4
(g8
S'pJr\xa3F\x03\n@'
p7533
tp7534
Rp7535
ag4
(g8
S'\xb2\xd5\x1d\x00\xe8\x16\n@'
p7536
tp7537
Rp7538
ag4
(g8
S'\xa7\xd9\x99\xe5\x83\xd7\xdf?'
p7539
tp7540
Rp7541
ag4
(g8
S'\xe2\x9f\xbd\xde=7\x04@'
p7542
tp7543
Rp7544
ag4
(g8
S'\xd3\x03>\xf4\xec>\x15@'
p7545
tp7546
Rp7547
ag4
(g8
S'\xfd\x01\x93\x13E\xc3\x04@'
p7548
tp7549
Rp7550
ag4
(g8
S'\x11\x15\xe5\xfe\x84\x06\x06@'
p7551
tp7552
Rp7553
ag4
(g8
S'\xee\xe7\x17D\x12\xa6\xfd?'
p7554
tp7555
Rp7556
ag4
(g8
S"'\x14\xc6S\xe0\xbd\x04@"
p7557
tp7558
Rp7559
ag4
(g8
S'\xbe\x9c{\x0e\xa4\x1a\r@'
p7560
tp7561
Rp7562
ag4
(g8
S']\x00(\xa7\xc1i\x00@'
p7563
tp7564
Rp7565
ag4
(g8
S'\x18\x1a\xcc\xf7\xa49\x05@'
p7566
tp7567
Rp7568
ag4
(g8
S'"\n\xcc\x8d\x9f6\x0f@'
p7569
tp7570
Rp7571
ag4
(g8
S'\x18\x8cq\xafeG\x03@'
p7572
tp7573
Rp7574
ag4
(g8
S'$\xe6\xd2J\x9c<\x13@'
p7575
tp7576
Rp7577
ag4
(g8
S'\xaf@\xa6\xf5\x8bS\t@'
p7578
tp7579
Rp7580
ag4
(g8
S'>\x0bW\xc39\x9d\x06@'
p7581
tp7582
Rp7583
ag4
(g8
S'kfC\xdc3\xb3\xf4?'
p7584
tp7585
Rp7586
ag4
(g8
S'\x1f\xcc\x7f\xdd\xdd\xdd\xfc?'
p7587
tp7588
Rp7589
ag4
(g8
S'\xd1\xcd\xffPE\xf7\xeb?'
p7590
tp7591
Rp7592
ag4
(g8
S'\x9b\xab\x10\xef \\\x03@'
p7593
tp7594
Rp7595
ag4
(g8
S'M\x84Z8a\x7f\xfa?'
p7596
tp7597
Rp7598
ag4
(g8
S'\x16V\xc4\xb3\xa3\xe0\x08@'
p7599
tp7600
Rp7601
ag4
(g8
S'\xe9\xbe\x88 &\xa1\x14@'
p7602
tp7603
Rp7604
ag4
(g8
S'u(\xfe\x05\x9f\xc0\n@'
p7605
tp7606
Rp7607
ag4
(g8
S'\xe3w\x1e\xab\x11\xec\x05@'
p7608
tp7609
Rp7610
ag4
(g8
S'\x9b\xe8]`\xea\x12\x01@'
p7611
tp7612
Rp7613
ag4
(g8
S'\x96\x19\xd0\xab\x87\xe7\xf6?'
p7614
tp7615
Rp7616
ag4
(g8
S'$\x1b\x91_\xad\xb1\x06@'
p7617
tp7618
Rp7619
ag4
(g8
S' _-x\xc4\xa5\x06@'
p7620
tp7621
Rp7622
ag4
(g8
S'\x03\xd9D^\x01\xe3\xf2?'
p7623
tp7624
Rp7625
ag4
(g8
S'^@\xdbT\x92\r\x08@'
p7626
tp7627
Rp7628
ag4
(g8
S']\xb8\xa7\xe2\x0e\xb3\x02@'
p7629
tp7630
Rp7631
ag4
(g8
S'D\xb6\x17\x163h\xfe?'
p7632
tp7633
Rp7634
ag4
(g8
S'\xa7!\xc6mR\x83\x02@'
p7635
tp7636
Rp7637
ag4
(g8
S'\xcd\xfdb\x11KG\x04@'
p7638
tp7639
Rp7640
ag4
(g8
S'*7>\tq\x16\x02@'
p7641
tp7642
Rp7643
ag4
(g8
S'}z\xb5\xb8\xb8\x11\x06@'
p7644
tp7645
Rp7646
ag4
(g8
S'{]\xc4X3B\xfc?'
p7647
tp7648
Rp7649
ag4
(g8
S'\xc2\x8b\xda\x86\xf93\xf3?'
p7650
tp7651
Rp7652
ag4
(g8
S'\xca2\xe7eN\xdb\x02@'
p7653
tp7654
Rp7655
ag4
(g8
S'|\xc6"\xa8\xe4,\xf8?'
p7656
tp7657
Rp7658
ag4
(g8
S'>\xce\x1dB\xcb\xec\x01@'
p7659
tp7660
Rp7661
ag4
(g8
S'\xea\x06\x1f\x9e\xa5\xb6\x1d@'
p7662
tp7663
Rp7664
ag4
(g8
S'\xc6\xa3\xcc\x9a\xc3\xc6\x05@'
p7665
tp7666
Rp7667
ag4
(g8
S'6\xb0T\xd6\x0fm\x00@'
p7668
tp7669
Rp7670
ag4
(g8
S'\x82P\xdc\x1d"\x86\xf7?'
p7671
tp7672
Rp7673
ag4
(g8
S'O/\x0e:j\xd2\xed?'
p7674
tp7675
Rp7676
ag4
(g8
S'*\x90\xe8\x1d\x17\xce\x01@'
p7677
tp7678
Rp7679
ag4
(g8
S"PE5'\x8fp\x10@"
p7680
tp7681
Rp7682
ag4
(g8
S'\x16#O\xd1\x9d\xef\x01@'
p7683
tp7684
Rp7685
ag4
(g8
S'\xe1\xa2\xd5\xd5\x9e\x96\x07@'
p7686
tp7687
Rp7688
ag4
(g8
S'\xbd\xad\xac\xf8k\x02\xf8?'
p7689
tp7690
Rp7691
ag4
(g8
S'\xbd8a3\xdc\x7f\x07@'
p7692
tp7693
Rp7694
ag4
(g8
S'|\xd4\x0f\x1aOP\x00@'
p7695
tp7696
Rp7697
ag4
(g8
S'\x06\xfcn\xc3\xb7k\xf3?'
p7698
tp7699
Rp7700
ag4
(g8
S'\xff\xe8\x1850\xcc\x04@'
p7701
tp7702
Rp7703
ag4
(g8
S'\xe2r\xfb2\xb3\xa4\x04@'
p7704
tp7705
Rp7706
ag4
(g8
S'\xa9j\xb9)\xdd}\x12@'
p7707
tp7708
Rp7709
ag4
(g8
S'N\xd4\xd1q\xe7\x85\x03@'
p7710
tp7711
Rp7712
ag4
(g8
S'd\x83Q~\x7f\xc7\x02@'
p7713
tp7714
Rp7715
ag4
(g8
S'\xc7\xd3h\x8fow\xf7?'
p7716
tp7717
Rp7718
ag4
(g8
S'\xd6\xfcU2\xdam\xf0?'
p7719
tp7720
Rp7721
ag4
(g8
S'\xc9O\x13$\xf7\x9d\x08@'
p7722
tp7723
Rp7724
ag4
(g8
S'\x8f7|P\xa78\x1f@'
p7725
tp7726
Rp7727
ag4
(g8
S'\x8e\x8fW\xab\xf52\x03@'
p7728
tp7729
Rp7730
ag4
(g8
S'\xa1\xa0C\xcb\x84\xb2\x15@'
p7731
tp7732
Rp7733
ag4
(g8
S'\xaf\xfbK<\xdb\xb1\x07@'
p7734
tp7735
Rp7736
ag4
(g8
S'~\x8a\xe5\xb9\xc4\xc2\x05@'
p7737
tp7738
Rp7739
ag4
(g8
S'\xc1\x81\xb3\x99I\x9b\x1c@'
p7740
tp7741
Rp7742
ag4
(g8
S'\xb9\xbf\x18\x84\xf9&\x16@'
p7743
tp7744
Rp7745
ag4
(g8
S'a\xf9\x82\xe0J#\x01@'
p7746
tp7747
Rp7748
ag4
(g8
S'u\xc4K\x91\xf6\xee\x01@'
p7749
tp7750
Rp7751
ag4
(g8
S'T\x10B^\xb6\xba @'
p7752
tp7753
Rp7754
ag4
(g8
S'\xf9\x19HF\xe4*\x01@'
p7755
tp7756
Rp7757
ag4
(g8
S'`\x1f\xb62\x80u\x06@'
p7758
tp7759
Rp7760
ag4
(g8
S'|\xee\xcfUWK\x03@'
p7761
tp7762
Rp7763
ag4
(g8
S'H\x9c\xdeux\xed\xff?'
p7764
tp7765
Rp7766
ag4
(g8
S'\xe3\x97\xf3\xe0\xc8@\xf0?'
p7767
tp7768
Rp7769
ag4
(g8
S'D\xc8\x8b{\xe5\xcd\x05@'
p7770
tp7771
Rp7772
ag4
(g8
S'\x97\x08\x03\xa5\xdej\r@'
p7773
tp7774
Rp7775
ag4
(g8
S'I\xe6l\xd8\xb5(\xf7?'
p7776
tp7777
Rp7778
ag4
(g8
S'\xe5-P\x85\x0e\xf2\x03@'
p7779
tp7780
Rp7781
ag4
(g8
S']\xc8\x95\xef\xc8\xa9\xeb?'
p7782
tp7783
Rp7784
ag4
(g8
S'<\xab\x0eK\x99\xb3\xe5?'
p7785
tp7786
Rp7787
ag4
(g8
S'\xc7\xa7\xd5&\xb5\xbc\xfd?'
p7788
tp7789
Rp7790
ag4
(g8
S'2\xf0\xb7\xd5j\x80\x00@'
p7791
tp7792
Rp7793
ag4
(g8
S"'}\x94\xdd\x00\xd1\xf2?"
p7794
tp7795
Rp7796
ag4
(g8
S'\xd7\xd4\xff\x06\xae)\n@'
p7797
tp7798
Rp7799
ag4
(g8
S'\xc1K\xcevw\xd1\xfa?'
p7800
tp7801
Rp7802
ag4
(g8
S'd\x18\x8d\x0bA\xc3\x00@'
p7803
tp7804
Rp7805
ag4
(g8
S's5\xca|\xa6\xa5\x02@'
p7806
tp7807
Rp7808
ag4
(g8
S'\xbf\xfcp\xc5_\x86\xf0?'
p7809
tp7810
Rp7811
ag4
(g8
S'*Xa\xa3\xf7W\x01@'
p7812
tp7813
Rp7814
ag4
(g8
S"\x99'FfFp\x04@"
p7815
tp7816
Rp7817
ag4
(g8
S'\xadmF\x0c\xa9\xba\x01@'
p7818
tp7819
Rp7820
ag4
(g8
S'V\xec\xbd\xcf|z\x13@'
p7821
tp7822
Rp7823
ag4
(g8
S'\x9d\xa1\xdd\xe6\xb9\xe7\x01@'
p7824
tp7825
Rp7826
ag4
(g8
S'\xd9\x03m\xc9\xcf\xa4\x08@'
p7827
tp7828
Rp7829
ag4
(g8
S'\x13@O;@\xe6\x12@'
p7830
tp7831
Rp7832
ag4
(g8
S'>\xa3bZ(C\x05@'
p7833
tp7834
Rp7835
ag4
(g8
S'\xbb\x84\xe1DIq\t@'
p7836
tp7837
Rp7838
ag4
(g8
S'\xf2"@\xc7\xc2\x1d\x01@'
p7839
tp7840
Rp7841
ag4
(g8
S'\xd1\xc5~\x9f\xdf\x16\x03@'
p7842
tp7843
Rp7844
ag4
(g8
S'\x1c\xadV\xaf\x01\x17\x03@'
p7845
tp7846
Rp7847
ag4
(g8
S'|!hy\xa1\xd8\x02@'
p7848
tp7849
Rp7850
ag4
(g8
S'4Tg\x9e\t\t\x06@'
p7851
tp7852
Rp7853
ag4
(g8
S'h-\x15n\x91\x96\x04@'
p7854
tp7855
Rp7856
ag4
(g8
S'\xdcY\xb9\xe2\xe4\xf5\xfd?'
p7857
tp7858
Rp7859
ag4
(g8
S'4\xf1\xba\x80`I\xe3?'
p7860
tp7861
Rp7862
ag4
(g8
S'\xde\xc1>\x0b\xe4\xba\xf8?'
p7863
tp7864
Rp7865
ag4
(g8
S'\xd7!\xfb\xcbf\xce\xf9?'
p7866
tp7867
Rp7868
ag4
(g8
S'\xc6hK\xda+\xff\xf3?'
p7869
tp7870
Rp7871
ag4
(g8
S'J<;y\xb7\xdf\xf8?'
p7872
tp7873
Rp7874
ag4
(g8
S'\x1a\xb4:\xde\xff\xf0\x0c@'
p7875
tp7876
Rp7877
ag4
(g8
S'-\xb5\x13\xb0\xbe\xca\x0f@'
p7878
tp7879
Rp7880
ag4
(g8
S'XH\xcf.\x11p\x07@'
p7881
tp7882
Rp7883
as(g1
g29
tp7884
(lp7885
g4
(g8
S'\xfb_\xa7\x0e\xa4"\x12@'
p7886
tp7887
Rp7888
ag4
(g8
S'\xa6DM\xb3\x1d\x11\x04@'
p7889
tp7890
Rp7891
ag4
(g8
S'\xafO\xc9\xbf :\xfc?'
p7892
tp7893
Rp7894
ag4
(g8
S'0\xc8\x86\x86\xd6\xaf\x00@'
p7895
tp7896
Rp7897
ag4
(g8
S'\xf2C\xc7\x825\x0f\xfe?'
p7898
tp7899
Rp7900
ag4
(g8
S'\x7f\xce\\t\xecx\xff?'
p7901
tp7902
Rp7903
ag4
(g8
S'2\xc2M6\xc7U\xe9?'
p7904
tp7905
Rp7906
ag4
(g8
S'\xef\xca\xfe\x15\xcc<\x01@'
p7907
tp7908
Rp7909
ag4
(g8
S'\x94\xdb_Gz%\xfe?'
p7910
tp7911
Rp7912
ag4
(g8
S'\x94\xa4\xc3\xefx\x93\x05@'
p7913
tp7914
Rp7915
ag4
(g8
S'\\\x9a\xd9\xb4\x15\x03\x05@'
p7916
tp7917
Rp7918
ag4
(g8
S'\xa0\xe7x$\xecI\xfd?'
p7919
tp7920
Rp7921
ag4
(g8
S'\xa8\x8c\x06\xc1\xefH\x11@'
p7922
tp7923
Rp7924
ag4
(g8
S'\xc9)t\x86\x1c\x10\xe9?'
p7925
tp7926
Rp7927
ag4
(g8
S'o{\x02\x1b\x18\xf5\x02@'
p7928
tp7929
Rp7930
ag4
(g8
S'\xe7\x1c\x80\xc7 \x9f\xf4?'
p7931
tp7932
Rp7933
ag4
(g8
S'\x9a&&n\xc05\t@'
p7934
tp7935
Rp7936
ag4
(g8
S'K,\xd9\xfc\x1d{\x06@'
p7937
tp7938
Rp7939
ag4
(g8
S'u\xa7\x1e\xb0\x96A\x07@'
p7940
tp7941
Rp7942
ag4
(g8
S'my\x14\x95\x1a:\xe9?'
p7943
tp7944
Rp7945
ag4
(g8
S'\x1bg\x83&\x17B\x01@'
p7946
tp7947
Rp7948
ag4
(g8
S'Vd\x93Zf\x90\x04@'
p7949
tp7950
Rp7951
ag4
(g8
S'\x80\x19+9G\x9c\x02@'
p7952
tp7953
Rp7954
ag4
(g8
S'\x9e\t\x03\xa6\xf7>\xfd?'
p7955
tp7956
Rp7957
ag4
(g8
S'P\xf6\x02\x15c\xca\x0f@'
p7958
tp7959
Rp7960
ag4
(g8
S'\xb1\xa4R?\xb2\x94\x16@'
p7961
tp7962
Rp7963
ag4
(g8
S'\xc2\xf9\x17V\xbb\xc6\t@'
p7964
tp7965
Rp7966
ag4
(g8
S'\x84\xe8\x02\xb5<5\x00@'
p7967
tp7968
Rp7969
ag4
(g8
S'0\x18\xb7F\xc4O\n@'
p7970
tp7971
Rp7972
ag4
(g8
S'J|h\r2\xd8\xf8?'
p7973
tp7974
Rp7975
ag4
(g8
S'\xac?\xa6\xaf\x94\x99\xf6?'
p7976
tp7977
Rp7978
ag4
(g8
S'x\xcd"Ea\xc4\xd4?'
p7979
tp7980
Rp7981
ag4
(g8
S'\xb7\xa9\xae\n!\xcd\x06@'
p7982
tp7983
Rp7984
ag4
(g8
S'\xd7\xa2\xa4B\x89\x7f\x10@'
p7985
tp7986
Rp7987
ag4
(g8
S't\xeb\xa9\x1fb\xc3\x00@'
p7988
tp7989
Rp7990
ag4
(g8
S'\x07\xc4]\xe7\x85\x15\x02@'
p7991
tp7992
Rp7993
ag4
(g8
S'\nT\xcd\xfc5t\x11@'
p7994
tp7995
Rp7996
ag4
(g8
S'6\xfc\x06\xbe-\xd6\x0f@'
p7997
tp7998
Rp7999
ag4
(g8
S'k\xb1S\x85Sg\x03@'
p8000
tp8001
Rp8002
ag4
(g8
S'\x19KE/\xd9\xb3\xfd?'
p8003
tp8004
Rp8005
ag4
(g8
S'\xbaUR\xf1F\x9a\xf4?'
p8006
tp8007
Rp8008
ag4
(g8
S'/\xe0\xf6\xea%\x02\x10@'
p8009
tp8010
Rp8011
ag4
(g8
S':\xac\xe4Y\xf9\r\x03@'
p8012
tp8013
Rp8014
ag4
(g8
S']\x7f17\xfd\xcf\x03@'
p8015
tp8016
Rp8017
ag4
(g8
S'\xdc\x90"\x13#\xdc\x01@'
p8018
tp8019
Rp8020
ag4
(g8
S'n\x11\x84\x8c\x04[\xee?'
p8021
tp8022
Rp8023
ag4
(g8
S'\r\xa3\xbf\xa8_\x8e\x05@'
p8024
tp8025
Rp8026
ag4
(g8
S'\xa4\x10\x03\xa0v\x90\n@'
p8027
tp8028
Rp8029
ag4
(g8
S'l\x13\xe5=\xe3\xe1\xf7?'
p8030
tp8031
Rp8032
ag4
(g8
S'\xc9Yl\x97q[\x17@'
p8033
tp8034
Rp8035
ag4
(g8
S'S\xe1\xf6\xdcM\x13\xfe?'
p8036
tp8037
Rp8038
ag4
(g8
S'V\xdb\x84fg\x91\xfe?'
p8039
tp8040
Rp8041
ag4
(g8
S'\x04\xd9aae\xc7\x12@'
p8042
tp8043
Rp8044
ag4
(g8
S'-\xb8\xe2\xea=\x8d\xe2?'
p8045
tp8046
Rp8047
ag4
(g8
S'C\xf5\x004\x0c7\t@'
p8048
tp8049
Rp8050
ag4
(g8
S'7cyz\x14!\x07@'
p8051
tp8052
Rp8053
ag4
(g8
S'\n\xbek\x0c3z\x02@'
p8054
tp8055
Rp8056
ag4
(g8
S'\xa2H\xe2\xfc\x81\x81\x10@'
p8057
tp8058
Rp8059
ag4
(g8
S'fy\xf0\x89eW\xf4?'
p8060
tp8061
Rp8062
ag4
(g8
S'\xce\xe7D\x1ak\xf4\x05@'
p8063
tp8064
Rp8065
ag4
(g8
S'\xd4\x03\x03,w?\xf9?'
p8066
tp8067
Rp8068
ag4
(g8
S'\xf1;\x8e\x18\xbd\x9c\x01@'
p8069
tp8070
Rp8071
ag4
(g8
S'\x8e]\xc9%\xe9\x14\t@'
p8072
tp8073
Rp8074
ag4
(g8
S'j\xe8\xd4\x01D\xbd\xf9?'
p8075
tp8076
Rp8077
ag4
(g8
S'\xae\x85i\xcb\xcc,\x00@'
p8078
tp8079
Rp8080
ag4
(g8
S'\x7f\x1a\x0b\x90)\\\xf9?'
p8081
tp8082
Rp8083
ag4
(g8
S'\xc7cv\x13\xa8\xa9\x13@'
p8084
tp8085
Rp8086
ag4
(g8
S'\x19gb\xc0\xca\x83\x17@'
p8087
tp8088
Rp8089
ag4
(g8
S'(\x155J\x9a\xe1\xf0?'
p8090
tp8091
Rp8092
ag4
(g8
S'e\x06>\xf4\x17\xa8\x1c@'
p8093
tp8094
Rp8095
ag4
(g8
S'7n\xae\xd0\xd1n\x04@'
p8096
tp8097
Rp8098
ag4
(g8
S'\xf7\xbf\xb8>\x1bL\xf5?'
p8099
tp8100
Rp8101
ag4
(g8
S'\xca\xadv3\xa0\xd4\xfe?'
p8102
tp8103
Rp8104
ag4
(g8
S'd\xbe\xabGe\x08\x05@'
p8105
tp8106
Rp8107
ag4
(g8
S'W\xb6\xfa7Z*\x08@'
p8108
tp8109
Rp8110
ag4
(g8
S'\x8e2\xad\x1e**\x00@'
p8111
tp8112
Rp8113
ag4
(g8
S'Z{2\xf5\xc41\xe2?'
p8114
tp8115
Rp8116
ag4
(g8
S'c\x10\xeb\xd7n\t\x10@'
p8117
tp8118
Rp8119
ag4
(g8
S'\x91\\\xe4\xa0\x01\x16\xed?'
p8120
tp8121
Rp8122
ag4
(g8
S'\x94\xad\xd6M\xb3\xaf\x10@'
p8123
tp8124
Rp8125
ag4
(g8
S'`\x99\xcb\xd0/\x0c\x03@'
p8126
tp8127
Rp8128
ag4
(g8
S'8`\x85\xbc\xd4\x13\x05@'
p8129
tp8130
Rp8131
ag4
(g8
S'\xc3=\xa18\x08\x9e\x0f@'
p8132
tp8133
Rp8134
ag4
(g8
S'/\xb1\ne\xd8?\xe3?'
p8135
tp8136
Rp8137
ag4
(g8
S'o\xce\xa5`Bo\x00@'
p8138
tp8139
Rp8140
ag4
(g8
S'\x7f\xfa\xe7\xf8\x88\x16\xe3?'
p8141
tp8142
Rp8143
ag4
(g8
S'\x92\xbc"K\xad\t\x06@'
p8144
tp8145
Rp8146
ag4
(g8
S'\xe0\x9f\x1a\x9a\xa8\x91\xee?'
p8147
tp8148
Rp8149
ag4
(g8
S',;\xeb\xc3\xd0\x1c\x02@'
p8150
tp8151
Rp8152
ag4
(g8
S'2\xf0,\xf9\xa5\xf4\x07@'
p8153
tp8154
Rp8155
ag4
(g8
S'N\xdb?R\xdf\xa4\x01@'
p8156
tp8157
Rp8158
ag4
(g8
S'\xe3<M\x88\xc7L\x01@'
p8159
tp8160
Rp8161
ag4
(g8
S'\x8bg\r\xb1\x1d\x0f\x04@'
p8162
tp8163
Rp8164
ag4
(g8
S'\xff\x18S\xe5G\x1b\x06@'
p8165
tp8166
Rp8167
ag4
(g8
S'}\x1d[M\x9cw\x06@'
p8168
tp8169
Rp8170
ag4
(g8
S"\xc3\x81\x93z\xd1'\xfc?"
p8171
tp8172
Rp8173
ag4
(g8
S'\xb0\xb6Wfo \x08@'
p8174
tp8175
Rp8176
ag4
(g8
S'\xe9%\xd5\x15\xba\x9d\xfd?'
p8177
tp8178
Rp8179
ag4
(g8
S'\xc7\x8a\x12\xe2\xd7r\xfe?'
p8180
tp8181
Rp8182
ag4
(g8
S':"\x01ry1\x00@'
p8183
tp8184
Rp8185
ag4
(g8
S'k\x8a\xd0\xf8\xef\xce\x07@'
p8186
tp8187
Rp8188
ag4
(g8
S'\xa5\x02\xd5\xa0\x9e\x99\x10@'
p8189
tp8190
Rp8191
ag4
(g8
S']I2\x8e\xf2\xf2\x00@'
p8192
tp8193
Rp8194
ag4
(g8
S'K\xa8\xc4\xd8\x0f\x19\xfc?'
p8195
tp8196
Rp8197
ag4
(g8
S'\x06(\x19\x9e\xf2\xb8\x0b@'
p8198
tp8199
Rp8200
ag4
(g8
S'O`\x07\x18\x02\xa5\xe7?'
p8201
tp8202
Rp8203
ag4
(g8
S'L\x02\x1b\x85\xf3Y\x08@'
p8204
tp8205
Rp8206
ag4
(g8
S'h2\xa2\x01{\xd1\x10@'
p8207
tp8208
Rp8209
ag4
(g8
S'\xf7\xad\x93\nz\x82\x12@'
p8210
tp8211
Rp8212
ag4
(g8
S'3\xbd8\xe7}E\x01@'
p8213
tp8214
Rp8215
ag4
(g8
S'i\x14\xa4\xef\xba&\x03@'
p8216
tp8217
Rp8218
ag4
(g8
S'\x13p\x92\xeb\xe1\xd7!@'
p8219
tp8220
Rp8221
ag4
(g8
S'\xfc\x80\x95>\xe7\xc3\xfc?'
p8222
tp8223
Rp8224
ag4
(g8
S'f\xad\xf2\xed\x9e\x14\xf8?'
p8225
tp8226
Rp8227
ag4
(g8
S'\xf9\xdbZ\x00\xfbe\x0e@'
p8228
tp8229
Rp8230
ag4
(g8
S'\x95\xb4V]\x10\xce\xff?'
p8231
tp8232
Rp8233
ag4
(g8
S'\xc0g\xc3;\x9e\xc6\x10@'
p8234
tp8235
Rp8236
ag4
(g8
S'\xd3\xcdH)\x07>\x08@'
p8237
tp8238
Rp8239
ag4
(g8
S'\xafL \x12*\xb2\x12@'
p8240
tp8241
Rp8242
ag4
(g8
S'.U\xa0\x8b\xf2\xd2\xff?'
p8243
tp8244
Rp8245
ag4
(g8
S'-\xd1\xc81\xe2\xf3\x05@'
p8246
tp8247
Rp8248
ag4
(g8
S'O\xfaU;\xbb\xee\x08@'
p8249
tp8250
Rp8251
ag4
(g8
S'\xa5>\x91z\xb9\xd5\xf7?'
p8252
tp8253
Rp8254
ag4
(g8
S'Fs@^\n\xd7\xfe?'
p8255
tp8256
Rp8257
ag4
(g8
S'\x05\xf2\x1bkc\x91\xf8?'
p8258
tp8259
Rp8260
ag4
(g8
S'#l\xd8\x9bE*\xf9?'
p8261
tp8262
Rp8263
ag4
(g8
S'NG\xf7\x18\xb6?\x08@'
p8264
tp8265
Rp8266
ag4
(g8
S'\x8e\xd0\xc8\xaes\xa3\xf5?'
p8267
tp8268
Rp8269
ag4
(g8
S'\xcb\x07\xaf\xf4O\x88\xef?'
p8270
tp8271
Rp8272
ag4
(g8
S'\xf2\xa8\x90\xb6Uc\xe0?'
p8273
tp8274
Rp8275
ag4
(g8
S'\xd9\x13<J\xa9\x89\x11@'
p8276
tp8277
Rp8278
ag4
(g8
S'\xe7R\x17\xf6\x01\xfa\xe0?'
p8279
tp8280
Rp8281
ag4
(g8
S'n\x1b\xfc`\xa3\x12\x04@'
p8282
tp8283
Rp8284
ag4
(g8
S'\x878\x017\xd9T\x04@'
p8285
tp8286
Rp8287
ag4
(g8
S'\x9cF\x17On\xc3\xf6?'
p8288
tp8289
Rp8290
ag4
(g8
S'!\xa1>\xaa\xb8,\x04@'
p8291
tp8292
Rp8293
ag4
(g8
S'l8z\xd6\x91\xdf\xfb?'
p8294
tp8295
Rp8296
ag4
(g8
S'dXu\xc1Q\x97\x02@'
p8297
tp8298
Rp8299
ag4
(g8
S'A\xac\xcfrL\xc8\xec?'
p8300
tp8301
Rp8302
ag4
(g8
S')\xd2\xa4\x86\x83\xd9\x05@'
p8303
tp8304
Rp8305
ag4
(g8
S"\x8e\x86\x9f{!'\xfa?"
p8306
tp8307
Rp8308
ag4
(g8
S'k\x14\xf93\xc1\x1c\x19@'
p8309
tp8310
Rp8311
ag4
(g8
S'A[LD\x8b\r\x02@'
p8312
tp8313
Rp8314
ag4
(g8
S'\xc8&\x92\xad\xd6\xb5\xfc?'
p8315
tp8316
Rp8317
ag4
(g8
S'\x10\xf3\xbdH\x1b\xbb\x00@'
p8318
tp8319
Rp8320
ag4
(g8
S'\xdf\x0bNA\x06"\xf5?'
p8321
tp8322
Rp8323
ag4
(g8
S'\x15u%)\x88\xae\xfb?'
p8324
tp8325
Rp8326
ag4
(g8
S'\xcb\x1d\xa7\xe35\xa9\x01@'
p8327
tp8328
Rp8329
ag4
(g8
S'\x0e\xfb\xd5O\xdd\xb0\x06@'
p8330
tp8331
Rp8332
ag4
(g8
S'\xf5L\x0bs+v\x01@'
p8333
tp8334
Rp8335
ag4
(g8
S's\x1d\x0cD\xfc\xf5\xfc?'
p8336
tp8337
Rp8338
ag4
(g8
S't\xf5\xde\x97%!\x07@'
p8339
tp8340
Rp8341
ag4
(g8
S'VX\xf0rm_\x00@'
p8342
tp8343
Rp8344
ag4
(g8
S'\xc8\\\xabjd\x0e\xff?'
p8345
tp8346
Rp8347
ag4
(g8
S'm\xb7Hw\xdb\xf9\xe5?'
p8348
tp8349
Rp8350
ag4
(g8
S'qn-li\x99\xe2?'
p8351
tp8352
Rp8353
ag4
(g8
S'\xf9\xa4\xe9\x0b9\xd5\xfc?'
p8354
tp8355
Rp8356
ag4
(g8
S')\x90.\xce\xc7\xf2\x01@'
p8357
tp8358
Rp8359
ag4
(g8
S'J\xb9\xeb\\+\xc7\x01@'
p8360
tp8361
Rp8362
ag4
(g8
S'&\x1e\xe9\xc2%\x9d\x00@'
p8363
tp8364
Rp8365
ag4
(g8
S'\x03Q\x9b\x07c\xf6\x03@'
p8366
tp8367
Rp8368
ag4
(g8
S'\xac\x9c7$\xd7$\xf8?'
p8369
tp8370
Rp8371
ag4
(g8
S'\x10\ra\x81W$\x04@'
p8372
tp8373
Rp8374
ag4
(g8
S'\xdb8\x003\x86U\xfa?'
p8375
tp8376
Rp8377
ag4
(g8
S'\xeb\x7f\xfe\x8a\x94\xc2\x02@'
p8378
tp8379
Rp8380
ag4
(g8
S'\xfdF\xd5\x17\xb7\xb2\x1a@'
p8381
tp8382
Rp8383
ag4
(g8
S'c.\x06*F\x9b\x02@'
p8384
tp8385
Rp8386
ag4
(g8
S'\xf0~\xd71\xfa\t\x08@'
p8387
tp8388
Rp8389
ag4
(g8
S'\x9f(\x92\xb9\xcf\x06\xff?'
p8390
tp8391
Rp8392
ag4
(g8
S'f\xe8lG\xa7\xca\x04@'
p8393
tp8394
Rp8395
ag4
(g8
S'\x16\x97\xfd\xdf)\xd3\x19@'
p8396
tp8397
Rp8398
ag4
(g8
S'y}&\xb5\xff7\x10@'
p8399
tp8400
Rp8401
ag4
(g8
S'\xea\xe1\xc4zc\xf3\x07@'
p8402
tp8403
Rp8404
ag4
(g8
S'5\x94T^y\x1b\x10@'
p8405
tp8406
Rp8407
ag4
(g8
S'\r\xbf\x82Q(\x8e\x02@'
p8408
tp8409
Rp8410
ag4
(g8
S'\xf01\xa5\x12\n\xe6\xf8?'
p8411
tp8412
Rp8413
ag4
(g8
S'w\xb8${.f\xff?'
p8414
tp8415
Rp8416
ag4
(g8
S'\x86\x83}\xcd5\xf7\xe0?'
p8417
tp8418
Rp8419
ag4
(g8
S'\x83\xc7X\xa6G\\\x0f@'
p8420
tp8421
Rp8422
ag4
(g8
S'\xfe\x1d.\xe9\xcb~\xf8?'
p8423
tp8424
Rp8425
ag4
(g8
S'\x0e\x16h\xc4\x9a\xd6\x03@'
p8426
tp8427
Rp8428
ag4
(g8
S'\x0e\xa4\xd3\xd5\x8f\x9d\x05@'
p8429
tp8430
Rp8431
ag4
(g8
S'\xf1\x0eE`\x04\xaf\x02@'
p8432
tp8433
Rp8434
ag4
(g8
S'\xe1\x9bS\xe0\x92A\xd8?'
p8435
tp8436
Rp8437
ag4
(g8
S'W,\xc9i\x1d\x91\x04@'
p8438
tp8439
Rp8440
ag4
(g8
S'l\xd9nN\x0e\x14\xfb?'
p8441
tp8442
Rp8443
ag4
(g8
S':hb\x13\r$\x03@'
p8444
tp8445
Rp8446
ag4
(g8
S'\x84x~\x105\xd4\n@'
p8447
tp8448
Rp8449
ag4
(g8
S'\xf0\xb6-\xc6\xc4\x1b\xe4?'
p8450
tp8451
Rp8452
ag4
(g8
S'3D\x051q\x07\n@'
p8453
tp8454
Rp8455
ag4
(g8
S'\xe5\xe6\x1f\xf6\x19f\x1a@'
p8456
tp8457
Rp8458
ag4
(g8
S' \xc8\x1bcP\x8b\x08@'
p8459
tp8460
Rp8461
ag4
(g8
S'\xcd\xdf\xc2\xc9"\xb9\x06@'
p8462
tp8463
Rp8464
ag4
(g8
S'%\xfaJ\xdfh\xde\xf6?'
p8465
tp8466
Rp8467
ag4
(g8
S'\x87\x88\xd1\xd8\xf4\xb3\xfd?'
p8468
tp8469
Rp8470
ag4
(g8
S'("\xe7\x07\x05K\x06@'
p8471
tp8472
Rp8473
ag4
(g8
S'\x9c\x8a\x80[l\x83\x07@'
p8474
tp8475
Rp8476
ag4
(g8
S'\xf274KJ\xd3\x0b@'
p8477
tp8478
Rp8479
ag4
(g8
S'\x08i\x85\x07\xd6g\xff?'
p8480
tp8481
Rp8482
ag4
(g8
S'Ku\xa4\xafq\x1e\xda?'
p8483
tp8484
Rp8485
ag4
(g8
S'pJr\xa3F\x03\n@'
p8486
tp8487
Rp8488
ag4
(g8
S'\xb2\xd5\x1d\x00\xe8\x16\n@'
p8489
tp8490
Rp8491
ag4
(g8
S'\xa7\xd9\x99\xe5\x83\xd7\xdf?'
p8492
tp8493
Rp8494
ag4
(g8
S'\xee\xe7\x17D\x12\xa6\xfd?'
p8495
tp8496
Rp8497
ag4
(g8
S"'\x14\xc6S\xe0\xbd\x04@"
p8498
tp8499
Rp8500
ag4
(g8
S'\xbe\x9c{\x0e\xa4\x1a\r@'
p8501
tp8502
Rp8503
ag4
(g8
S']\x00(\xa7\xc1i\x00@'
p8504
tp8505
Rp8506
ag4
(g8
S'\x18\x1a\xcc\xf7\xa49\x05@'
p8507
tp8508
Rp8509
ag4
(g8
S'"\n\xcc\x8d\x9f6\x0f@'
p8510
tp8511
Rp8512
ag4
(g8
S'\x18\x8cq\xafeG\x03@'
p8513
tp8514
Rp8515
ag4
(g8
S'$\xe6\xd2J\x9c<\x13@'
p8516
tp8517
Rp8518
ag4
(g8
S'\x1f\xcc\x7f\xdd\xdd\xdd\xfc?'
p8519
tp8520
Rp8521
ag4
(g8
S'\xd1\xcd\xffPE\xf7\xeb?'
p8522
tp8523
Rp8524
ag4
(g8
S'\x9b\xab\x10\xef \\\x03@'
p8525
tp8526
Rp8527
ag4
(g8
S'M\x84Z8a\x7f\xfa?'
p8528
tp8529
Rp8530
ag4
(g8
S'\x16V\xc4\xb3\xa3\xe0\x08@'
p8531
tp8532
Rp8533
ag4
(g8
S'\xe9\xbe\x88 &\xa1\x14@'
p8534
tp8535
Rp8536
ag4
(g8
S'u(\xfe\x05\x9f\xc0\n@'
p8537
tp8538
Rp8539
ag4
(g8
S'\xe3w\x1e\xab\x11\xec\x05@'
p8540
tp8541
Rp8542
ag4
(g8
S'\x9b\xe8]`\xea\x12\x01@'
p8543
tp8544
Rp8545
ag4
(g8
S'\x96\x19\xd0\xab\x87\xe7\xf6?'
p8546
tp8547
Rp8548
ag4
(g8
S'$\x1b\x91_\xad\xb1\x06@'
p8549
tp8550
Rp8551
ag4
(g8
S' _-x\xc4\xa5\x06@'
p8552
tp8553
Rp8554
ag4
(g8
S'\x03\xd9D^\x01\xe3\xf2?'
p8555
tp8556
Rp8557
ag4
(g8
S'^@\xdbT\x92\r\x08@'
p8558
tp8559
Rp8560
ag4
(g8
S']\xb8\xa7\xe2\x0e\xb3\x02@'
p8561
tp8562
Rp8563
ag4
(g8
S'D\xb6\x17\x163h\xfe?'
p8564
tp8565
Rp8566
ag4
(g8
S'\xe4\xd3%\x818%\x10@'
p8567
tp8568
Rp8569
ag4
(g8
S'|\xc6"\xa8\xe4,\xf8?'
p8570
tp8571
Rp8572
ag4
(g8
S'>\xce\x1dB\xcb\xec\x01@'
p8573
tp8574
Rp8575
ag4
(g8
S'\xea\x06\x1f\x9e\xa5\xb6\x1d@'
p8576
tp8577
Rp8578
ag4
(g8
S'\xc6\xa3\xcc\x9a\xc3\xc6\x05@'
p8579
tp8580
Rp8581
ag4
(g8
S'6\xb0T\xd6\x0fm\x00@'
p8582
tp8583
Rp8584
ag4
(g8
S'\x82P\xdc\x1d"\x86\xf7?'
p8585
tp8586
Rp8587
ag4
(g8
S'O/\x0e:j\xd2\xed?'
p8588
tp8589
Rp8590
ag4
(g8
S'*\x90\xe8\x1d\x17\xce\x01@'
p8591
tp8592
Rp8593
ag4
(g8
S'4%\xacV\xa7\x12\x11@'
p8594
tp8595
Rp8596
ag4
(g8
S'\xa9j\xb9)\xdd}\x12@'
p8597
tp8598
Rp8599
ag4
(g8
S'N\xd4\xd1q\xe7\x85\x03@'
p8600
tp8601
Rp8602
ag4
(g8
S'd\x83Q~\x7f\xc7\x02@'
p8603
tp8604
Rp8605
ag4
(g8
S'\xc7\xd3h\x8fow\xf7?'
p8606
tp8607
Rp8608
ag4
(g8
S'\xd6\xfcU2\xdam\xf0?'
p8609
tp8610
Rp8611
ag4
(g8
S'\xc9O\x13$\xf7\x9d\x08@'
p8612
tp8613
Rp8614
ag4
(g8
S'\x8f7|P\xa78\x1f@'
p8615
tp8616
Rp8617
ag4
(g8
S'\x8e\x8fW\xab\xf52\x03@'
p8618
tp8619
Rp8620
ag4
(g8
S'\xa1\xa0C\xcb\x84\xb2\x15@'
p8621
tp8622
Rp8623
ag4
(g8
S'\xaf\xfbK<\xdb\xb1\x07@'
p8624
tp8625
Rp8626
ag4
(g8
S'~\x8a\xe5\xb9\xc4\xc2\x05@'
p8627
tp8628
Rp8629
ag4
(g8
S'\xc1\x81\xb3\x99I\x9b\x1c@'
p8630
tp8631
Rp8632
ag4
(g8
S'\xf9\x19HF\xe4*\x01@'
p8633
tp8634
Rp8635
ag4
(g8
S'`\x1f\xb62\x80u\x06@'
p8636
tp8637
Rp8638
ag4
(g8
S'|\xee\xcfUWK\x03@'
p8639
tp8640
Rp8641
ag4
(g8
S'H\x9c\xdeux\xed\xff?'
p8642
tp8643
Rp8644
ag4
(g8
S'\xe3\x97\xf3\xe0\xc8@\xf0?'
p8645
tp8646
Rp8647
ag4
(g8
S'D\xc8\x8b{\xe5\xcd\x05@'
p8648
tp8649
Rp8650
ag4
(g8
S'I\xe6l\xd8\xb5(\xf7?'
p8651
tp8652
Rp8653
ag4
(g8
S'\xe5-P\x85\x0e\xf2\x03@'
p8654
tp8655
Rp8656
ag4
(g8
S']\xc8\x95\xef\xc8\xa9\xeb?'
p8657
tp8658
Rp8659
ag4
(g8
S'<\xab\x0eK\x99\xb3\xe5?'
p8660
tp8661
Rp8662
ag4
(g8
S'\xc7\xa7\xd5&\xb5\xbc\xfd?'
p8663
tp8664
Rp8665
ag4
(g8
S'2\xf0\xb7\xd5j\x80\x00@'
p8666
tp8667
Rp8668
ag4
(g8
S"'}\x94\xdd\x00\xd1\xf2?"
p8669
tp8670
Rp8671
ag4
(g8
S'\xd7\xd4\xff\x06\xae)\n@'
p8672
tp8673
Rp8674
ag4
(g8
S'\xc1K\xcevw\xd1\xfa?'
p8675
tp8676
Rp8677
ag4
(g8
S'*Xa\xa3\xf7W\x01@'
p8678
tp8679
Rp8680
ag4
(g8
S"\x99'FfFp\x04@"
p8681
tp8682
Rp8683
ag4
(g8
S'\xadmF\x0c\xa9\xba\x01@'
p8684
tp8685
Rp8686
ag4
(g8
S'V\xec\xbd\xcf|z\x13@'
p8687
tp8688
Rp8689
ag4
(g8
S'\x9d\xa1\xdd\xe6\xb9\xe7\x01@'
p8690
tp8691
Rp8692
ag4
(g8
S'\xd9\x03m\xc9\xcf\xa4\x08@'
p8693
tp8694
Rp8695
ag4
(g8
S'\x13@O;@\xe6\x12@'
p8696
tp8697
Rp8698
ag4
(g8
S'4Tg\x9e\t\t\x06@'
p8699
tp8700
Rp8701
ag4
(g8
S'h-\x15n\x91\x96\x04@'
p8702
tp8703
Rp8704
ag4
(g8
S'\xdcY\xb9\xe2\xe4\xf5\xfd?'
p8705
tp8706
Rp8707
ag4
(g8
S'4\xf1\xba\x80`I\xe3?'
p8708
tp8709
Rp8710
ag4
(g8
S'\xde\xc1>\x0b\xe4\xba\xf8?'
p8711
tp8712
Rp8713
ag4
(g8
S'\xd7!\xfb\xcbf\xce\xf9?'
p8714
tp8715
Rp8716
ag4
(g8
S'\xc6hK\xda+\xff\xf3?'
p8717
tp8718
Rp8719
ag4
(g8
S'J<;y\xb7\xdf\xf8?'
p8720
tp8721
Rp8722
as(g1
g34
tp8723
(lp8724
g4
(g8
S'\xf2C\xc7\x825\x0f\xfe?'
p8725
tp8726
Rp8727
ag4
(g8
S'\x7f\xce\\t\xecx\xff?'
p8728
tp8729
Rp8730
ag4
(g8
S'\x1b\xc2\xf3?\xb5 \x07@'
p8731
tp8732
Rp8733
ag4
(g8
S'\xa0\xe7x$\xecI\xfd?'
p8734
tp8735
Rp8736
ag4
(g8
S'\xa8\x8c\x06\xc1\xefH\x11@'
p8737
tp8738
Rp8739
ag4
(g8
S'\xe0\x18\xc7y\xec\x03\x04@'
p8740
tp8741
Rp8742
ag4
(g8
S'\x18\xece\xf9G\n\x0f@'
p8743
tp8744
Rp8745
ag4
(g8
S'K,\xd9\xfc\x1d{\x06@'
p8746
tp8747
Rp8748
ag4
(g8
S'u\xa7\x1e\xb0\x96A\x07@'
p8749
tp8750
Rp8751
ag4
(g8
S'my\x14\x95\x1a:\xe9?'
p8752
tp8753
Rp8754
ag4
(g8
S'\x1bg\x83&\x17B\x01@'
p8755
tp8756
Rp8757
ag4
(g8
S'8W\xd4I\x7f\x99\x05@'
p8758
tp8759
Rp8760
ag4
(g8
S'0\x18\xb7F\xc4O\n@'
p8761
tp8762
Rp8763
ag4
(g8
S'#\x96\x00\xfc\x0e\xd4\x01@'
p8764
tp8765
Rp8766
ag4
(g8
S'\x88\xe8\x13\xa9O\xbe\x04@'
p8767
tp8768
Rp8769
ag4
(g8
S'\xd7\xa2\xa4B\x89\x7f\x10@'
p8770
tp8771
Rp8772
ag4
(g8
S't\xeb\xa9\x1fb\xc3\x00@'
p8773
tp8774
Rp8775
ag4
(g8
S'\x88O%\xa3I\xc0\xf6?'
p8776
tp8777
Rp8778
ag4
(g8
S'k\xb1S\x85Sg\x03@'
p8779
tp8780
Rp8781
ag4
(g8
S'\xc0\xbe\xb5\x9e\xe7\xb4\x05@'
p8782
tp8783
Rp8784
ag4
(g8
S'\r\xa3\xbf\xa8_\x8e\x05@'
p8785
tp8786
Rp8787
ag4
(g8
S'\xa4\x10\x03\xa0v\x90\n@'
p8788
tp8789
Rp8790
ag4
(g8
S'\xd7}\x13#\xec\xb7\xf9?'
p8791
tp8792
Rp8793
ag4
(g8
S'L_ \x9b\x0bK\x10@'
p8794
tp8795
Rp8796
ag4
(g8
S'\x04\xd9aae\xc7\x12@'
p8797
tp8798
Rp8799
ag4
(g8
S'-\xb8\xe2\xea=\x8d\xe2?'
p8800
tp8801
Rp8802
ag4
(g8
S'\xce\xe7D\x1ak\xf4\x05@'
p8803
tp8804
Rp8805
ag4
(g8
S'\xd4\x03\x03,w?\xf9?'
p8806
tp8807
Rp8808
ag4
(g8
S'B&z\xff2M\x17@'
p8809
tp8810
Rp8811
ag4
(g8
S'\xc7cv\x13\xa8\xa9\x13@'
p8812
tp8813
Rp8814
ag4
(g8
S'\x19gb\xc0\xca\x83\x17@'
p8815
tp8816
Rp8817
ag4
(g8
S'(\x155J\x9a\xe1\xf0?'
p8818
tp8819
Rp8820
ag4
(g8
S'e\x06>\xf4\x17\xa8\x1c@'
p8821
tp8822
Rp8823
ag4
(g8
S'?,\xc2?\x0c0\t@'
p8824
tp8825
Rp8826
ag4
(g8
S'\x00M\x9a*cn\x17@'
p8827
tp8828
Rp8829
ag4
(g8
S'd\xbe\xabGe\x08\x05@'
p8830
tp8831
Rp8832
ag4
(g8
S'W\xb6\xfa7Z*\x08@'
p8833
tp8834
Rp8835
ag4
(g8
S'\xc6\x9d\x15\x9bv\xb3\xd1?'
p8836
tp8837
Rp8838
ag4
(g8
S'8`\x85\xbc\xd4\x13\x05@'
p8839
tp8840
Rp8841
ag4
(g8
S'\xc3=\xa18\x08\x9e\x0f@'
p8842
tp8843
Rp8844
ag4
(g8
S'/\xb1\ne\xd8?\xe3?'
p8845
tp8846
Rp8847
ag4
(g8
S'o\xce\xa5`Bo\x00@'
p8848
tp8849
Rp8850
ag4
(g8
S'\xe3<M\x88\xc7L\x01@'
p8851
tp8852
Rp8853
ag4
(g8
S'\x8bg\r\xb1\x1d\x0f\x04@'
p8854
tp8855
Rp8856
ag4
(g8
S"y'}%\xd7\x12\x04@"
p8857
tp8858
Rp8859
ag4
(g8
S':"\x01ry1\x00@'
p8860
tp8861
Rp8862
ag4
(g8
S'k\x8a\xd0\xf8\xef\xce\x07@'
p8863
tp8864
Rp8865
ag4
(g8
S'\xa5\x02\xd5\xa0\x9e\x99\x10@'
p8866
tp8867
Rp8868
ag4
(g8
S']I2\x8e\xf2\xf2\x00@'
p8869
tp8870
Rp8871
ag4
(g8
S'{7\xf8/\x94\xc9\xfe?'
p8872
tp8873
Rp8874
ag4
(g8
S'i\x14\xa4\xef\xba&\x03@'
p8875
tp8876
Rp8877
ag4
(g8
S'\x13p\x92\xeb\xe1\xd7!@'
p8878
tp8879
Rp8880
ag4
(g8
S'\xfc\x80\x95>\xe7\xc3\xfc?'
p8881
tp8882
Rp8883
ag4
(g8
S'.U\xa0\x8b\xf2\xd2\xff?'
p8884
tp8885
Rp8886
ag4
(g8
S'-\xd1\xc81\xe2\xf3\x05@'
p8887
tp8888
Rp8889
ag4
(g8
S'O\xfaU;\xbb\xee\x08@'
p8890
tp8891
Rp8892
ag4
(g8
S'\xb0\x8b\xc9\xb1\xbb3\x11@'
p8893
tp8894
Rp8895
ag4
(g8
S'\xd9\x13<J\xa9\x89\x11@'
p8896
tp8897
Rp8898
ag4
(g8
S'\xe7R\x17\xf6\x01\xfa\xe0?'
p8899
tp8900
Rp8901
ag4
(g8
S'n\x1b\xfc`\xa3\x12\x04@'
p8902
tp8903
Rp8904
ag4
(g8
S'\x15]pi.\x02\x06@'
p8905
tp8906
Rp8907
ag4
(g8
S"\x8e\x86\x9f{!'\xfa?"
p8908
tp8909
Rp8910
ag4
(g8
S'k\x14\xf93\xc1\x1c\x19@'
p8911
tp8912
Rp8913
ag4
(g8
S'A[LD\x8b\r\x02@'
p8914
tp8915
Rp8916
ag4
(g8
S'\tlSe\xd3\\\r@'
p8917
tp8918
Rp8919
ag4
(g8
S'\xcb\x1d\xa7\xe35\xa9\x01@'
p8920
tp8921
Rp8922
ag4
(g8
S'\x0e\xfb\xd5O\xdd\xb0\x06@'
p8923
tp8924
Rp8925
ag4
(g8
S'[D\xfa\x1b\xa5s\xf6?'
p8926
tp8927
Rp8928
ag4
(g8
S'VX\xf0rm_\x00@'
p8929
tp8930
Rp8931
ag4
(g8
S'\xc8\\\xabjd\x0e\xff?'
p8932
tp8933
Rp8934
ag4
(g8
S'\x10\ra\x81W$\x04@'
p8935
tp8936
Rp8937
ag4
(g8
S'\xdb8\x003\x86U\xfa?'
p8938
tp8939
Rp8940
ag4
(g8
S'\xeb\x7f\xfe\x8a\x94\xc2\x02@'
p8941
tp8942
Rp8943
ag4
(g8
S'\xfdF\xd5\x17\xb7\xb2\x1a@'
p8944
tp8945
Rp8946
ag4
(g8
S'y}&\xb5\xff7\x10@'
p8947
tp8948
Rp8949
ag4
(g8
S'\xea\xe1\xc4zc\xf3\x07@'
p8950
tp8951
Rp8952
ag4
(g8
S'5\x94T^y\x1b\x10@'
p8953
tp8954
Rp8955
ag4
(g8
S'\xd2u\x10^\xb19\x0e@'
p8956
tp8957
Rp8958
ag4
(g8
S'\xfe\x1d.\xe9\xcb~\xf8?'
p8959
tp8960
Rp8961
ag4
(g8
S'\x0e\x16h\xc4\x9a\xd6\x03@'
p8962
tp8963
Rp8964
ag4
(g8
S'\x0e\xa4\xd3\xd5\x8f\x9d\x05@'
p8965
tp8966
Rp8967
ag4
(g8
S'\xbe/\x1fLX\x1d\x00@'
p8968
tp8969
Rp8970
ag4
(g8
S'F \t\x06\x1a\xad\xff?'
p8971
tp8972
Rp8973
ag4
(g8
S'\xe5\xe6\x1f\xf6\x19f\x1a@'
p8974
tp8975
Rp8976
ag4
(g8
S' \xc8\x1bcP\x8b\x08@'
p8977
tp8978
Rp8979
ag4
(g8
S'\xcd\xdf\xc2\xc9"\xb9\x06@'
p8980
tp8981
Rp8982
ag4
(g8
S'\x0c\x92\xf0\xd3\x14\xb9\xfd?'
p8983
tp8984
Rp8985
ag4
(g8
S':\x1e\x19\xc7\xff\x19\x0e@'
p8986
tp8987
Rp8988
ag4
(g8
S'\xb2\xd5\x1d\x00\xe8\x16\n@'
p8989
tp8990
Rp8991
ag4
(g8
S'\xa7\xd9\x99\xe5\x83\xd7\xdf?'
p8992
tp8993
Rp8994
ag4
(g8
S'\xe2\x9f\xbd\xde=7\x04@'
p8995
tp8996
Rp8997
ag4
(g8
S'\xd3\x03>\xf4\xec>\x15@'
p8998
tp8999
Rp9000
ag4
(g8
S'"\n\xcc\x8d\x9f6\x0f@'
p9001
tp9002
Rp9003
ag4
(g8
S'\x18\x8cq\xafeG\x03@'
p9004
tp9005
Rp9006
ag4
(g8
S'$\xe6\xd2J\x9c<\x13@'
p9007
tp9008
Rp9009
ag4
(g8
S'\xaf@\xa6\xf5\x8bS\t@'
p9010
tp9011
Rp9012
ag4
(g8
S'>\x0bW\xc39\x9d\x06@'
p9013
tp9014
Rp9015
ag4
(g8
S'u(\xfe\x05\x9f\xc0\n@'
p9016
tp9017
Rp9018
ag4
(g8
S'\xe3w\x1e\xab\x11\xec\x05@'
p9019
tp9020
Rp9021
ag4
(g8
S'\x03\xd9D^\x01\xe3\xf2?'
p9022
tp9023
Rp9024
ag4
(g8
S'^@\xdbT\x92\r\x08@'
p9025
tp9026
Rp9027
ag4
(g8
S']\xb8\xa7\xe2\x0e\xb3\x02@'
p9028
tp9029
Rp9030
ag4
(g8
S'D\xb6\x17\x163h\xfe?'
p9031
tp9032
Rp9033
ag4
(g8
S'\xe4\xd3%\x818%\x10@'
p9034
tp9035
Rp9036
ag4
(g8
S'\xa7!\xc6mR\x83\x02@'
p9037
tp9038
Rp9039
ag4
(g8
S'\x1d\xe0\x90\xf1\x1a\xb6\x03@'
p9040
tp9041
Rp9042
ag4
(g8
S'\x82P\xdc\x1d"\x86\xf7?'
p9043
tp9044
Rp9045
ag4
(g8
S'O/\x0e:j\xd2\xed?'
p9046
tp9047
Rp9048
ag4
(g8
S'*\x90\xe8\x1d\x17\xce\x01@'
p9049
tp9050
Rp9051
ag4
(g8
S"PE5'\x8fp\x10@"
p9052
tp9053
Rp9054
ag4
(g8
S'\x16#O\xd1\x9d\xef\x01@'
p9055
tp9056
Rp9057
ag4
(g8
S'\xaf\xfbK<\xdb\xb1\x07@'
p9058
tp9059
Rp9060
ag4
(g8
S'~\x8a\xe5\xb9\xc4\xc2\x05@'
p9061
tp9062
Rp9063
ag4
(g8
S'\xc1\x81\xb3\x99I\x9b\x1c@'
p9064
tp9065
Rp9066
ag4
(g8
S'\xb9\xbf\x18\x84\xf9&\x16@'
p9067
tp9068
Rp9069
ag4
(g8
S'a\xf9\x82\xe0J#\x01@'
p9070
tp9071
Rp9072
ag4
(g8
S'u\xc4K\x91\xf6\xee\x01@'
p9073
tp9074
Rp9075
ag4
(g8
S'H\x9c\xdeux\xed\xff?'
p9076
tp9077
Rp9078
ag4
(g8
S'\xe3\x97\xf3\xe0\xc8@\xf0?'
p9079
tp9080
Rp9081
ag4
(g8
S'D\xc8\x8b{\xe5\xcd\x05@'
p9082
tp9083
Rp9084
ag4
(g8
S'\x97\x08\x03\xa5\xdej\r@'
p9085
tp9086
Rp9087
ag4
(g8
S"'}\x94\xdd\x00\xd1\xf2?"
p9088
tp9089
Rp9090
ag4
(g8
S'\xd7\xd4\xff\x06\xae)\n@'
p9091
tp9092
Rp9093
ag4
(g8
S'\xc1K\xcevw\xd1\xfa?'
p9094
tp9095
Rp9096
ag4
(g8
S'd\x18\x8d\x0bA\xc3\x00@'
p9097
tp9098
Rp9099
ag4
(g8
S'V\xec\xbd\xcf|z\x13@'
p9100
tp9101
Rp9102
ag4
(g8
S'\x9d\xa1\xdd\xe6\xb9\xe7\x01@'
p9103
tp9104
Rp9105
ag4
(g8
S'\xd9\x03m\xc9\xcf\xa4\x08@'
p9106
tp9107
Rp9108
ag4
(g8
S'\x13@O;@\xe6\x12@'
p9109
tp9110
Rp9111
ag4
(g8
S'>\xa3bZ(C\x05@'
p9112
tp9113
Rp9114
ag4
(g8
S'\xbb\x84\xe1DIq\t@'
p9115
tp9116
Rp9117
ag4
(g8
S'\xd7!\xfb\xcbf\xce\xf9?'
p9118
tp9119
Rp9120
ag4
(g8
S'\xc6hK\xda+\xff\xf3?'
p9121
tp9122
Rp9123
ag4
(g8
S'J<;y\xb7\xdf\xf8?'
p9124
tp9125
Rp9126
ag4
(g8
S'\x1a\xb4:\xde\xff\xf0\x0c@'
p9127
tp9128
Rp9129
ag4
(g8
S'-\xb5\x13\xb0\xbe\xca\x0f@'
p9130
tp9131
Rp9132
astp9133
.