((dp0
(S'04056500'
p1
S'fall'
p2
tp3
cnumpy.core.multiarray
scalar
p4
(cnumpy
dtype
p5
(S'f8'
p6
I0
I1
tp7
Rp8
(I3
S'<'
p9
NNNI-1
I-1
I0
tp10
bS'\\\x90\x9d\x9e\xf6\xfd\xd0?'
p11
tp12
Rp13
s(g1
S'wet'
p14
tp15
g4
(g8
S'\x9e\xc2K\x15Z\x9b\xde?'
p16
tp17
Rp18
s(dp19
(g1
g2
tp20
g4
(g8
S'z0\x8f\xa5\xc9|\xfb?'
p21
tp22
Rp23
s(g1
g14
tp24
g4
(g8
S'\xa4\xe8=L\x8b\xb5\x01@'
p25
tp26
Rp27
s(dp28
(g1
g2
tp29
(lp30
cpandas.tslib
Timestamp
p31
(I336787200000000000
NNtp32
Rp33
ag31
(I336960000000000000
NNtp34
Rp35
ag31
(I338428800000000000
NNtp36
Rp37
ag31
(I339379200000000000
NNtp38
Rp39
ag31
(I341280000000000000
NNtp40
Rp41
ag31
(I342057600000000000
NNtp42
Rp43
ag31
(I343267200000000000
NNtp44
Rp45
ag31
(I344304000000000000
NNtp46
Rp47
ag31
(I344390400000000000
NNtp48
Rp49
ag31
(I368236800000000000
NNtp50
Rp51
ag31
(I368323200000000000
NNtp52
Rp53
ag31
(I368409600000000000
NNtp54
Rp55
ag31
(I368668800000000000
NNtp56
Rp57
ag31
(I369100800000000000
NNtp58
Rp59
ag31
(I369187200000000000
NNtp60
Rp61
ag31
(I370396800000000000
NNtp62
Rp63
ag31
(I371174400000000000
NNtp64
Rp65
ag31
(I371260800000000000
NNtp66
Rp67
ag31
(I371433600000000000
NNtp68
Rp69
ag31
(I371779200000000000
NNtp70
Rp71
ag31
(I371952000000000000
NNtp72
Rp73
ag31
(I372470400000000000
NNtp74
Rp75
ag31
(I372988800000000000
NNtp76
Rp77
ag31
(I373248000000000000
NNtp78
Rp79
ag31
(I373766400000000000
NNtp80
Rp81
ag31
(I374457600000000000
NNtp82
Rp83
ag31
(I374544000000000000
NNtp84
Rp85
ag31
(I375062400000000000
NNtp86
Rp87
ag31
(I375321600000000000
NNtp88
Rp89
ag31
(I375494400000000000
NNtp90
Rp91
ag31
(I375580800000000000
NNtp92
Rp93
ag31
(I399772800000000000
NNtp94
Rp95
ag31
(I399859200000000000
NNtp96
Rp97
ag31
(I399945600000000000
NNtp98
Rp99
ag31
(I401241600000000000
NNtp100
Rp101
ag31
(I401760000000000000
NNtp102
Rp103
ag31
(I402969600000000000
NNtp104
Rp105
as(g1
g14
tp106
(lp107
g31
(I315705600000000000
NNtp108
Rp109
ag31
(I317174400000000000
NNtp110
Rp111
ag31
(I317779200000000000
NNtp112
Rp113
ag31
(I319593600000000000
NNtp114
Rp115
ag31
(I320544000000000000
NNtp116
Rp117
ag31
(I323049600000000000
NNtp118
Rp119
ag31
(I323481600000000000
NNtp120
Rp121
ag31
(I325123200000000000
NNtp122
Rp123
ag31
(I325814400000000000
NNtp124
Rp125
ag31
(I342230400000000000
NNtp126
Rp127
ag31
(I342403200000000000
NNtp128
Rp129
ag31
(I342489600000000000
NNtp130
Rp131
ag31
(I343180800000000000
NNtp132
Rp133
ag31
(I345168000000000000
NNtp134
Rp135
ag31
(I345427200000000000
NNtp136
Rp137
ag31
(I345686400000000000
NNtp138
Rp139
ag31
(I346550400000000000
NNtp140
Rp141
ag31
(I346636800000000000
NNtp142
Rp143
ag31
(I347155200000000000
NNtp144
Rp145
ag31
(I347241600000000000
NNtp146
Rp147
ag31
(I347500800000000000
NNtp148
Rp149
ag31
(I347846400000000000
NNtp150
Rp151
ag31
(I349142400000000000
NNtp152
Rp153
as(dp154
(g1
g2
tp155
g4
(g8
S'FY\xd1,\xd3\xb5\xe4?'
p156
tp157
Rp158
s(g1
g14
tp159
g4
(g8
S't\x8a8B\xbd\xdf\x10@'
p160
tp161
Rp162
s(dp163
(g1
g2
tp164
g4
(g8
S'\xfd\x1c\x8f\xeb1\xdb\x03@'
p165
tp166
Rp167
s(g1
g14
tp168
g4
(g8
S"\x9a'\x8a\x1d\x1b\x12\xe8B"
p169
tp170
Rp171
s(dp172
(g1
g2
tp173
F0.08961695510710993
s(g1
g14
tp174
F0.10499215626269288
s(dp175
(g1
g2
tp176
g4
(g8
S'\xd9d\x93M6\xd9\x17@'
p177
tp178
Rp179
s(g1
g14
tp180
g4
(g8
S'gu\x18e*\x9e*@'
p181
tp182
Rp183
s(dp184
(g1
g2
tp185
g4
(g8
S';W\x0e\x9fe\xfa\xe1?'
p186
tp187
Rp188
s(g1
g14
tp189
g4
(g8
S'Z)c\x8b\xd2\xe2\xf1?'
p190
tp191
Rp192
s(dp193
(g1
g2
tp194
g4
(g8
S'B\xca;V\x82\x8d\xe0?'
p195
tp196
Rp197
s(g1
g14
tp198
g4
(g8
S'\xc6\x97\xbaJtF\xd0?'
p199
tp200
Rp201
s(dp202
(g1
g2
tp203
g4
(g8
S'\xc2F\x80\x02u\xc5\xe4?'
p204
tp205
Rp206
s(g1
g14
tp207
g4
(g8
S'E\x84Jd\x82\xb3\xce?'
p208
tp209
Rp210
s(dp211
(g1
g2
tp212
F260.96035424489304
s(g1
g14
tp213
g4
(g8
S'W7\\^Z!\xd5?'
p214
tp215
Rp216
s(dp217
(g1
g2
tp218
g4
(g8
S']p9\xd3\xf6\x89\x00@'
p219
tp220
Rp221
s(g1
g14
tp222
g4
(g8
S'\x1f\xdf\xe10l^eB'
p223
tp224
Rp225
s(dp226
(dp227
(dp228
(g1
g2
tp229
(lp230
g4
(g8
S'K\x03\xb0\xac~\xa6\xb4?'
p231
tp232
Rp233
ag4
(g8
S'r\xbd\xaa+\xcb\xc0\xbd?'
p234
tp235
Rp236
ag4
(g8
S'\xe3\x0et\x15.\xe4\xfb?'
p237
tp238
Rp239
ag4
(g8
S'\xf7\xa8\xcd\xc6}\x84\x8d?'
p240
tp241
Rp242
ag4
(g8
S'\x94\x80\x01\xd1\xe2\xbd\xf4?'
p243
tp244
Rp245
ag4
(g8
S'\x95l\xa9\xc7/2\xd9@'
p246
tp247
Rp248
ag4
(g8
S'V\x81y\xdc\xd6\xc5\xa0?'
p249
tp250
Rp251
ag4
(g8
S'\xf2L\x04fPf1@'
p252
tp253
Rp254
ag4
(g8
S'j\x8e\x8f\xec}\x07\x0b@'
p255
tp256
Rp257
ag4
(g8
S'd\xc4M$]\xd7\xdb?'
p258
tp259
Rp260
ag4
(g8
S'\x17\xffI\x8e\x8c/\x00@'
p261
tp262
Rp263
ag4
(g8
S'H\x9f\x11:\xa0^2@'
p264
tp265
Rp266
ag4
(g8
S'\x8f\xa7\x94g"\xb5\x96@'
p267
tp268
Rp269
ag4
(g8
S'\xe8\x15\x97\xfe\x08\xb2\xa2?'
p270
tp271
Rp272
ag4
(g8
S'\xfdRY*x\xae\x07@'
p273
tp274
Rp275
ag4
(g8
S'\x89\xcb\x07\x0eK@\xc3?'
p276
tp277
Rp278
ag4
(g8
S'Tw\xe2A\xad\xff\xcc?'
p279
tp280
Rp281
ag4
(g8
S'\x14\x8a\xaae\rj\xfd?'
p282
tp283
Rp284
ag4
(g8
S'*\xe9\xaaHs\xe0y?'
p285
tp286
Rp287
ag4
(g8
S'\xa2N\xfcP\xe9\x0e\xe4?'
p288
tp289
Rp290
ag4
(g8
S'\xc56<\xf4\xa5\x11O@'
p291
tp292
Rp293
ag4
(g8
S'\xa7\x01\xbd\xf8\xe08\x92?'
p294
tp295
Rp296
ag4
(g8
S'\x8a\xd2\xb3\xf6d]F@'
p297
tp298
Rp299
ag4
(g8
S'2\xe7D`U\x83@@'
p300
tp301
Rp302
ag4
(g8
S'\xf7\x82v\xddp^b@'
p303
tp304
Rp305
ag4
(g8
S'\x1c\xa5\x18\xd0\x0e\x97\x9d?'
p306
tp307
Rp308
as(g1
g14
tp309
(lp310
g4
(g8
S'K\x03\xb0\xac~\xa6\xb4?'
p311
tp312
Rp313
ag4
(g8
S'\xc7b\xa0\xa2\x1a\xf6V@'
p314
tp315
Rp316
ag4
(g8
S'r\xbd\xaa+\xcb\xc0\xbd?'
p317
tp318
Rp319
ag4
(g8
S'\xe3\x0et\x15.\xe4\xfb?'
p320
tp321
Rp322
ag4
(g8
S'\r\xfb\xda`\x1f\xc6\xd6?'
p323
tp324
Rp325
ag4
(g8
S'\x06Aa\t\x86\xca\xc4?'
p326
tp327
Rp328
ag4
(g8
S'\xe8\x15\x97\xfe\x08\xb2\xa2?'
p329
tp330
Rp331
ag4
(g8
S'\xfcQ\xd3\xff\x12\x16\xd2?'
p332
tp333
Rp334
ag4
(g8
S"\xbc'!\x86\xca%8A"
p335
tp336
Rp337
ag4
(g8
S'\x02\xa389/@\xb6?'
p338
tp339
Rp340
ag4
(g8
S'\xa2N\xfcP\xe9\x0e\xe4?'
p341
tp342
Rp343
ag4
(g8
S'<\x9c\xa1MG\xb4{@'
p344
tp345
Rp346
ag4
(g8
S'Q6-\x15X\x1e\xf1?'
p347
tp348
Rp349
ag4
(g8
S'\xc8\xfbK:\x89\x9eV@'
p350
tp351
Rp352
ag4
(g8
S'\xcf\xfcXgk,\x88?'
p353
tp354
Rp355
ag4
(g8
S'\\U\x13%\xef\x91\xe3?'
p356
tp357
Rp358
ag4
(g8
S'k^\xe6\x10HKz?'
p359
tp360
Rp361
ag4
(g8
S'DE5T\xd3\xa9\xc6?'
p362
tp363
Rp364
as(dp365
(g1
g2
tp366
(lp367
g4
(g8
S'q\x07\xe0\x1d\xd55\xfa?'
p368
tp369
Rp370
ag4
(g8
S'\xc1K\xbf\x9cni\xff?'
p371
tp372
Rp373
ag4
(g8
S'\xff\x1a\x8aX\xfe\xf5\x06@'
p374
tp375
Rp376
ag4
(g8
S'\xee+\x8d\xed}L\xd7?'
p377
tp378
Rp379
ag4
(g8
S'\x96a\xc6C\xc6I\x08@'
p380
tp381
Rp382
ag4
(g8
S'\xc9\xf9\x9c\x0f\xf3,\x16@'
p383
tp384
Rp385
ag4
(g8
S'-?}(^\xb4\xee?'
p386
tp387
Rp388
ag4
(g8
S'\xed#\xdc\xd2\x9eC\x08@'
p389
tp390
Rp391
ag4
(g8
S'\x7f\x02\x9e?;\xa6\x06@'
p392
tp393
Rp394
ag4
(g8
S'Y"\xebQ#\xa0\xfb?'
p395
tp396
Rp397
ag4
(g8
S'\xef\x18\\@8\xdc\x01@'
p398
tp399
Rp400
ag4
(g8
S'\xdf!4\xe1\xab\xb6\x06@'
p401
tp402
Rp403
ag4
(g8
S'\xd1x\xe1\xd7\\\xae\x12@'
p404
tp405
Rp406
ag4
(g8
S'$\xe1\xc3K\x92X\xf1?'
p407
tp408
Rp409
ag4
(g8
S'\xff\xee\x9bk\x95k\x06@'
p410
tp411
Rp412
ag4
(g8
S'\xff\xb4\x16G\xfa{\xf5?'
p413
tp414
Rp415
ag4
(g8
S'\x89\x0fkp\x81\xd9\xe7?'
p416
tp417
Rp418
ag4
(g8
S'y\x1b \x83\xba\xed\x02@'
p419
tp420
Rp421
ag4
(g8
S'1kUl\xd4c\xe0?'
p422
tp423
Rp424
ag4
(g8
S'\xd2\x14\x18\xde\xc3Y\x01@'
p425
tp426
Rp427
ag4
(g8
S'\xcd\xed5\x85\x7f\xe8\n@'
p428
tp429
Rp430
ag4
(g8
S'\x1c%UC\xe9\x0f\xea?'
p431
tp432
Rp433
ag4
(g8
S'\rql\xac \xb6\x0b@'
p434
tp435
Rp436
ag4
(g8
S'of8\xb0\xffF\n@'
p437
tp438
Rp439
ag4
(g8
S'\xeeL\xa2\xb1p\xc9\x0c@'
p440
tp441
Rp442
ag4
(g8
S'\xd9\xb9\xa2\xb8\xb5i\xda?'
p443
tp444
Rp445
as(g1
g14
tp446
(lp447
g4
(g8
S'q\x07\xe0\x1d\xd55\xfa?'
p448
tp449
Rp450
ag4
(g8
S'G\xd0f\xbb\xdc\xb7\x12@'
p451
tp452
Rp453
ag4
(g8
S'\xc1K\xbf\x9cni\xff?'
p454
tp455
Rp456
ag4
(g8
S'\xff\x1a\x8aX\xfe\xf5\x06@'
p457
tp458
Rp459
ag4
(g8
S'F\xc2en\x01I\xea?'
p460
tp461
Rp462
ag4
(g8
S'\x93F\x1a\x80y2\x04@'
p463
tp464
Rp465
ag4
(g8
S'$\xe1\xc3K\x92X\xf1?'
p466
tp467
Rp468
ag4
(g8
S'\xf4\xe8(<\x08\xa5\x02@'
p469
tp470
Rp471
ag4
(g8
S'\xd8\xc2\xf9\x1eM# @'
p472
tp473
Rp474
ag4
(g8
S'\xee\x93\xf9L\xfe?\xe6?'
p475
tp476
Rp477
ag4
(g8
S'\xd2\x14\x18\xde\xc3Y\x01@'
p478
tp479
Rp480
ag4
(g8
S'\x91L\xff\xe6\xbe\xd1\x16@'
p481
tp482
Rp483
ag4
(g8
S'\x1c\xcd\xb5u\xf8\xd0\x0c@'
p484
tp485
Rp486
ag4
(g8
S'$o\xff\xf1c\x19\x1b@'
p487
tp488
Rp489
ag4
(g8
S'\x8a\xcb\x89\xf4\x1c\xa5\xda?'
p490
tp491
Rp492
ag4
(g8
S'\xbd\xe2\xb9^\xb0\xdc\x02@'
p493
tp494
Rp495
ag4
(g8
S'\x03FO%.\xbf\xd9?'
p496
tp497
Rp498
ag4
(g8
S'\xce$\xd8\xc1x\xe1\xff?'
p499
tp500
Rp501
astp502
.