((dp0
(S'09447800'
p1
S'spring'
p2
tp3
cnumpy.core.multiarray
scalar
p4
(cnumpy
dtype
p5
(S'f8'
p6
I0
I1
tp7
Rp8
(I3
S'<'
p9
NNNI-1
I-1
I0
tp10
bS'\xae\xc0\xe9i\xfd$\x1a@'
p11
tp12
Rp13
s(g1
S'winter'
p14
tp15
g4
(g8
S'7\x11\x8c2t\xa5\x10@'
p16
tp17
Rp18
s(g1
S'wet'
p19
tp20
g4
(g8
S'?\xbf\x1f\xba\xff\xf2\x12@'
p21
tp22
Rp23
s(g1
S'fall'
p24
tp25
g4
(g8
S'\x13?\x1a]\xc1y$@'
p26
tp27
Rp28
s(g1
S'summer'
p29
tp30
g4
(g8
S'\xd7\xe6\x9c\t6\xd02@'
p31
tp32
Rp33
s(g1
S'annual'
p34
tp35
g4
(g8
S'\xc1\x83\xdaE\x9c\xc3\x1f@'
p36
tp37
Rp38
s(dp39
(g1
g2
tp40
g4
(g8
S'\xed\x9f\x10\xc1\xd6\x89\xfa?'
p41
tp42
Rp43
s(g1
g14
tp44
g4
(g8
S'M\xcb?\xe5\x9d&\xf9?'
p45
tp46
Rp47
s(g1
g19
tp48
g4
(g8
S'\xaaU\xe2ZNq\xf9?'
p49
tp50
Rp51
s(g1
g24
tp52
g4
(g8
S'\xd8\xff\x85\xe5pv\xfb?'
p53
tp54
Rp55
s(g1
g29
tp56
g4
(g8
S'\xfd1\x8c$\x1e`\xfb?'
p57
tp58
Rp59
s(g1
g34
tp60
g4
(g8
S'Q\r\xfe\xb0\xb7\xcf\xf9?'
p61
tp62
Rp63
s(dp64
(g1
g2
tp65
(lp66
cpandas.tslib
Timestamp
p67
(L384048000000000000L
NNtp68
Rp69
ag67
(L384393600000000000L
NNtp70
Rp71
ag67
(L384652800000000000L
NNtp72
Rp73
ag67
(L384825600000000000L
NNtp74
Rp75
ag67
(L384912000000000000L
NNtp76
Rp77
ag67
(L384998400000000000L
NNtp78
Rp79
ag67
(L385171200000000000L
NNtp80
Rp81
ag67
(L385257600000000000L
NNtp82
Rp83
ag67
(L385430400000000000L
NNtp84
Rp85
ag67
(L385603200000000000L
NNtp86
Rp87
ag67
(L386035200000000000L
NNtp88
Rp89
ag67
(L386208000000000000L
NNtp90
Rp91
ag67
(L386294400000000000L
NNtp92
Rp93
as(g1
g14
tp94
(lp95
g67
(L376012800000000000L
NNtp96
Rp97
ag67
(L376099200000000000L
NNtp98
Rp99
ag67
(L376358400000000000L
NNtp100
Rp101
ag67
(L376617600000000000L
NNtp102
Rp103
ag67
(L376790400000000000L
NNtp104
Rp105
ag67
(L376876800000000000L
NNtp106
Rp107
ag67
(L376963200000000000L
NNtp108
Rp109
ag67
(L377049600000000000L
NNtp110
Rp111
ag67
(L377136000000000000L
NNtp112
Rp113
ag67
(L377222400000000000L
NNtp114
Rp115
ag67
(L377308800000000000L
NNtp116
Rp117
ag67
(L377481600000000000L
NNtp118
Rp119
ag67
(L377740800000000000L
NNtp120
Rp121
ag67
(L378000000000000000L
NNtp122
Rp123
ag67
(L378086400000000000L
NNtp124
Rp125
ag67
(L378172800000000000L
NNtp126
Rp127
ag67
(L378259200000000000L
NNtp128
Rp129
ag67
(L378345600000000000L
NNtp130
Rp131
ag67
(L378432000000000000L
NNtp132
Rp133
ag67
(L378691200000000000L
NNtp134
Rp135
ag67
(L378777600000000000L
NNtp136
Rp137
ag67
(L378864000000000000L
NNtp138
Rp139
ag67
(L378950400000000000L
NNtp140
Rp141
as(g1
g19
tp142
(lp143
g67
(L373420800000000000L
NNtp144
Rp145
ag67
(L373507200000000000L
NNtp146
Rp147
ag67
(L373852800000000000L
NNtp148
Rp149
ag67
(L373939200000000000L
NNtp150
Rp151
ag67
(L374198400000000000L
NNtp152
Rp153
ag67
(L374371200000000000L
NNtp154
Rp155
ag67
(L374457600000000000L
NNtp156
Rp157
ag67
(L374544000000000000L
NNtp158
Rp159
ag67
(L374630400000000000L
NNtp160
Rp161
ag67
(L374803200000000000L
NNtp162
Rp163
ag67
(L374889600000000000L
NNtp164
Rp165
ag67
(L374976000000000000L
NNtp166
Rp167
ag67
(L375062400000000000L
NNtp168
Rp169
ag67
(L375148800000000000L
NNtp170
Rp171
ag67
(L375321600000000000L
NNtp172
Rp173
ag67
(L375408000000000000L
NNtp174
Rp175
ag67
(L375494400000000000L
NNtp176
Rp177
ag67
(L375753600000000000L
NNtp178
Rp179
ag67
(L376012800000000000L
NNtp180
Rp181
ag67
(L376099200000000000L
NNtp182
Rp183
ag67
(L376185600000000000L
NNtp184
Rp185
ag67
(L376272000000000000L
NNtp186
Rp187
ag67
(L376358400000000000L
NNtp188
Rp189
ag67
(L376444800000000000L
NNtp190
Rp191
ag67
(L376531200000000000L
NNtp192
Rp193
ag67
(L376617600000000000L
NNtp194
Rp195
ag67
(L376790400000000000L
NNtp196
Rp197
ag67
(L376963200000000000L
NNtp198
Rp199
ag67
(L377049600000000000L
NNtp200
Rp201
ag67
(L377136000000000000L
NNtp202
Rp203
ag67
(L377222400000000000L
NNtp204
Rp205
as(g1
g24
tp206
(lp207
g67
(L368236800000000000L
NNtp208
Rp209
ag67
(L368323200000000000L
NNtp210
Rp211
ag67
(L368496000000000000L
NNtp212
Rp213
ag67
(L368668800000000000L
NNtp214
Rp215
ag67
(L368755200000000000L
NNtp216
Rp217
ag67
(L368841600000000000L
NNtp218
Rp219
ag67
(L369100800000000000L
NNtp220
Rp221
ag67
(L369360000000000000L
NNtp222
Rp223
ag67
(L369532800000000000L
NNtp224
Rp225
ag67
(L369705600000000000L
NNtp226
Rp227
ag67
(L369878400000000000L
NNtp228
Rp229
as(g1
g29
tp230
(lp231
g67
(L365644800000000000L
NNtp232
Rp233
ag67
(L365731200000000000L
NNtp234
Rp235
ag67
(L365904000000000000L
NNtp236
Rp237
ag67
(L365990400000000000L
NNtp238
Rp239
ag67
(L366249600000000000L
NNtp240
Rp241
ag67
(L367113600000000000L
NNtp242
Rp243
ag67
(L367977600000000000L
NNtp244
Rp245
ag67
(L391824000000000000L
NNtp246
Rp247
ag67
(L392169600000000000L
NNtp248
Rp249
ag67
(L392256000000000000L
NNtp250
Rp251
ag67
(L392601600000000000L
NNtp252
Rp253
ag67
(L393120000000000000L
NNtp254
Rp255
ag67
(L393897600000000000L
NNtp256
Rp257
ag67
(L394848000000000000L
NNtp258
Rp259
ag67
(L395366400000000000L
NNtp260
Rp261
as(g1
g34
tp262
(lp263
g67
(L365472000000000000L
NNtp264
Rp265
ag67
(L365558400000000000L
NNtp266
Rp267
ag67
(L365644800000000000L
NNtp268
Rp269
ag67
(L365990400000000000L
NNtp270
Rp271
ag67
(L366076800000000000L
NNtp272
Rp273
ag67
(L366163200000000000L
NNtp274
Rp275
ag67
(L366508800000000000L
NNtp276
Rp277
ag67
(L366681600000000000L
NNtp278
Rp279
ag67
(L366768000000000000L
NNtp280
Rp281
ag67
(L366854400000000000L
NNtp282
Rp283
ag67
(L366940800000000000L
NNtp284
Rp285
ag67
(L367113600000000000L
NNtp286
Rp287
ag67
(L367459200000000000L
NNtp288
Rp289
ag67
(L367545600000000000L
NNtp290
Rp291
ag67
(L367804800000000000L
NNtp292
Rp293
ag67
(L367891200000000000L
NNtp294
Rp295
ag67
(L367977600000000000L
NNtp296
Rp297
ag67
(L368150400000000000L
NNtp298
Rp299
ag67
(L368323200000000000L
NNtp300
Rp301
ag67
(L368409600000000000L
NNtp302
Rp303
ag67
(L368582400000000000L
NNtp304
Rp305
ag67
(L368668800000000000L
NNtp306
Rp307
ag67
(L368755200000000000L
NNtp308
Rp309
ag67
(L369014400000000000L
NNtp310
Rp311
ag67
(L369273600000000000L
NNtp312
Rp313
ag67
(L369446400000000000L
NNtp314
Rp315
ag67
(L369619200000000000L
NNtp316
Rp317
ag67
(L369705600000000000L
NNtp318
Rp319
ag67
(L369792000000000000L
NNtp320
Rp321
ag67
(L369878400000000000L
NNtp322
Rp323
ag67
(L369964800000000000L
NNtp324
Rp325
ag67
(L370310400000000000L
NNtp326
Rp327
ag67
(L370483200000000000L
NNtp328
Rp329
ag67
(L370656000000000000L
NNtp330
Rp331
ag67
(L370915200000000000L
NNtp332
Rp333
ag67
(L371001600000000000L
NNtp334
Rp335
ag67
(L371088000000000000L
NNtp336
Rp337
ag67
(L371260800000000000L
NNtp338
Rp339
ag67
(L371433600000000000L
NNtp340
Rp341
ag67
(L371520000000000000L
NNtp342
Rp343
ag67
(L371779200000000000L
NNtp344
Rp345
ag67
(L371865600000000000L
NNtp346
Rp347
ag67
(L371952000000000000L
NNtp348
Rp349
as(dp350
(g1
g2
tp351
g4
(g8
S'\x1c-\xc9\xe2\xf8\xe3\x04@'
p352
tp353
Rp354
s(g1
g14
tp355
g4
(g8
S'\xae\xbb\x0bO\x0e\x1d\x03@'
p356
tp357
Rp358
s(g1
g19
tp359
g4
(g8
S'\x15\xab\xc5z\xc6\xb1\x03@'
p360
tp361
Rp362
s(g1
g24
tp363
g4
(g8
S'\x88)\x84\x8d><\x03@'
p364
tp365
Rp366
s(g1
g29
tp367
g4
(g8
S'\x87\x9b\xb0\xb8\x96 \x03@'
p368
tp369
Rp370
s(g1
g34
tp371
g4
(g8
S'\x1c?\x13\xcf\xdf{\x03@'
p372
tp373
Rp374
s(dp375
(g1
g2
tp376
g4
(g8
S":U\x89d'S\xf0?"
p377
tp378
Rp379
s(g1
g14
tp380
g4
(g8
S'\x0b\xe3W\x0eH\x81\x1c@'
p381
tp382
Rp383
s(g1
g19
tp384
g4
(g8
S'ZCV\xd4\xe3\x16\x11@'
p385
tp386
Rp387
s(g1
g24
tp388
g4
(g8
S'\xd1x\r\x17X\xbf\xfd?'
p389
tp390
Rp391
s(g1
g29
tp392
g4
(g8
S'R<H\xd8&\t\xf8?'
p393
tp394
Rp395
s(g1
g34
tp396
g4
(g8
S'\x0c\x001\xe3\xdcg\t@'
p397
tp398
Rp399
s(dp400
(g1
g2
tp401
F0.0019538284834684045
s(g1
g14
tp402
F0.006473282421436456
s(g1
g19
tp403
F0.004292102255766669
s(g1
g24
tp404
F0.002147150265939234
s(g1
g29
tp405
F0.001694246058871739
s(g1
g34
tp406
F0.0030517340379557583
s(dp407
(g1
g2
tp408
g4
(g8
S'\x96{\x1aa\xb9\xa74@'
p409
tp410
Rp411
s(g1
g14
tp412
g4
(g8
S'\x00\x00\x00\x00\x00\x804@'
p413
tp414
Rp415
s(g1
g19
tp416
g4
(g8
S'>\x8d\xb0\xdc\xd3\x088@'
p417
tp418
Rp419
s(g1
g24
tp420
g4
(g8
S'%I\x92$I\x920@'
p421
tp422
Rp423
s(g1
g29
tp424
g4
(g8
S'ffffff\x1b@'
p425
tp426
Rp427
s(g1
g34
tp428
g4
(g8
S'<<<<<\xbcQ@'
p429
tp430
Rp431
s(dp432
(g1
g2
tp433
g4
(g8
S'\xf5tgl\x1b\xee\xa5?'
p434
tp435
Rp436
s(g1
g14
tp437
g4
(g8
S'F\x8e\x88r\x85\x87\xc4?'
p438
tp439
Rp440
s(g1
g19
tp441
g4
(g8
S'9\xb7\x08?0\x96\xc2?'
p442
tp443
Rp444
s(g1
g24
tp445
g4
(g8
S'o\xaa\x16\xc4\x9f\xff\xb2?'
p446
tp447
Rp448
s(g1
g29
tp449
g4
(g8
S'\xe0\xe4\xcf>3\xfc\x94?'
p450
tp451
Rp452
s(g1
g34
tp453
g4
(g8
S'\xf0\xad\r\xa3*\xc9\xb5?'
p454
tp455
Rp456
s(dp457
(g1
g2
tp458
g4
(g8
S'\xca\xa7\x03\x85\xe3\xc4\xe5?'
p459
tp460
Rp461
s(g1
g14
tp462
g4
(g8
S'\xe9&\xd87G\xe8\x08@'
p463
tp464
Rp465
s(g1
g19
tp466
g4
(g8
S'-\x8by\x1d\xd6I\x00@'
p467
tp468
Rp469
s(g1
g24
tp470
g4
(g8
S'1\xa8\x1cA\x8a\xe3\xf1?'
p471
tp472
Rp473
s(g1
g29
tp474
g4
(g8
S'UG\xa7\x15\xfc\xda\xed?'
p475
tp476
Rp477
s(g1
g34
tp478
g4
(g8
S'N\xb0u\x1d\x10\xac\xf7?'
p479
tp480
Rp481
s(dp482
(g1
g2
tp483
g4
(g8
S'15\xdaNf\x8b\x9c?'
p484
tp485
Rp486
s(g1
g14
tp487
g4
(g8
S'%\x98\xf6\x16\xc8z\xa0?'
p488
tp489
Rp490
s(g1
g19
tp491
g4
(g8
S"'\xed\x15\x14\xfd\x0c\x96?"
p492
tp493
Rp494
s(g1
g24
tp495
g4
(g8
S'\x9f\x8d\xd8\xe8\xd3\xca\x9e?'
p496
tp497
Rp498
s(g1
g29
tp499
g4
(g8
S')\x85F\x15U\x04\x9a?'
p500
tp501
Rp502
s(g1
g34
tp503
g4
(g8
S"\xdb>\x8f'\xe86\x89?"
p504
tp505
Rp506
s(dp507
(g1
g2
tp508
F0.152824820002339
s(g1
g14
tp509
F0.013515402165907495
s(g1
g19
tp510
F0.007346120345319499
s(g1
g24
tp511
F0.0064842820703048445
s(g1
g29
tp512
F0.08184637358614517
s(g1
g34
tp513
F0.004598088504558903
s(dp514
(g1
g2
tp515
g4
(g8
S'\x9a\xf1\x18ydW\x84?'
p516
tp517
Rp518
s(g1
g14
tp519
g4
(g8
S'o]K\xf9\xbc\x83\x94?'
p520
tp521
Rp522
s(g1
g19
tp523
g4
(g8
S'\x97c\x11\xf29\x9e\x84?'
p524
tp525
Rp526
s(g1
g24
tp527
g4
(g8
S'v\x83\xf9\xbbJ\x9au?'
p528
tp529
Rp530
s(g1
g29
tp531
g4
(g8
S'\x0e.\xcf\x12G\xfb\x82?'
p532
tp533
Rp534
s(g1
g34
tp535
g4
(g8
S'\xf30\xd5\xff\xa9`y?'
p536
tp537
Rp538
s(dp539
(dp540
(dp541
(g1
g2
tp542
(lp543
g4
(g8
S'\xeaG5o\x85T\x14@'
p544
tp545
Rp546
ag4
(g8
S'\xba\xd3\x1b\xc2\x17\xf8\xf4?'
p547
tp548
Rp549
ag4
(g8
S'\xe8L\xde$L\xcc\x0b@'
p550
tp551
Rp552
ag4
(g8
S'"0iH\xee\x08\xb8?'
p553
tp554
Rp555
as(g1
g14
tp556
(lp557
g4
(g8
S'Cgu\xe8\xa4\x1d\xde?'
p558
tp559
Rp560
ag4
(g8
S'U\xe5\xa6\x11\x1d\xc9\xf8?'
p561
tp562
Rp563
ag4
(g8
S'O\xff\xee\xfa\r\xaa\xf3?'
p564
tp565
Rp566
ag4
(g8
S'\x98\x91\xa4\xd8\xde\xe4%@'
p567
tp568
Rp569
ag4
(g8
S'#\xd3\r\xb6\xf2\xfb\xeb?'
p570
tp571
Rp572
ag4
(g8
S'c/\xc3\xd3Vq\x08@'
p573
tp574
Rp575
ag4
(g8
S']\xc22FU\xb9\xdb?'
p576
tp577
Rp578
as(g1
g19
tp579
(lp580
g4
(g8
S'\xeaG5o\x85T\x14@'
p581
tp582
Rp583
ag4
(g8
S'Cgu\xe8\xa4\x1d\xde?'
p584
tp585
Rp586
ag4
(g8
S'U\xe5\xa6\x11\x1d\xc9\xf8?'
p587
tp588
Rp589
ag4
(g8
S'O\xff\xee\xfa\r\xaa\xf3?'
p590
tp591
Rp592
ag4
(g8
S'\x98\x91\xa4\xd8\xde\xe4%@'
p593
tp594
Rp595
ag4
(g8
S'#\xd3\r\xb6\xf2\xfb\xeb?'
p596
tp597
Rp598
ag4
(g8
S'c/\xc3\xd3Vq\x08@'
p599
tp600
Rp601
ag4
(g8
S'\xe8L\xde$L\xcc\x0b@'
p602
tp603
Rp604
ag4
(g8
S'\xf6\xd4\xcaI\x10\x9a\x02@'
p605
tp606
Rp607
ag4
(g8
S']\xc22FU\xb9\xdb?'
p608
tp609
Rp610
as(g1
g24
tp611
(lp612
g4
(g8
S'\x0f\x85h\x03\x16A\xde?'
p613
tp614
Rp615
as(g1
g29
tp616
(lp617
s(g1
g34
tp618
(lp619
g4
(g8
S'\xeaG5o\x85T\x14@'
p620
tp621
Rp622
ag4
(g8
S'\x0f\x85h\x03\x16A\xde?'
p623
tp624
Rp625
ag4
(g8
S'Cgu\xe8\xa4\x1d\xde?'
p626
tp627
Rp628
ag4
(g8
S'U\xe5\xa6\x11\x1d\xc9\xf8?'
p629
tp630
Rp631
ag4
(g8
S'O\xff\xee\xfa\r\xaa\xf3?'
p632
tp633
Rp634
ag4
(g8
S'\x98\x91\xa4\xd8\xde\xe4%@'
p635
tp636
Rp637
ag4
(g8
S'#\xd3\r\xb6\xf2\xfb\xeb?'
p638
tp639
Rp640
ag4
(g8
S'c/\xc3\xd3Vq\x08@'
p641
tp642
Rp643
ag4
(g8
S'\xe8L\xde$L\xcc\x0b@'
p644
tp645
Rp646
ag4
(g8
S'\xf6\xd4\xcaI\x10\x9a\x02@'
p647
tp648
Rp649
ag4
(g8
S']\xc22FU\xb9\xdb?'
p650
tp651
Rp652
as(dp653
(g1
g2
tp654
(lp655
g4
(g8
S'\xd0\xd1@\x15lH\x1d@'
p656
tp657
Rp658
ag4
(g8
S'\xda\xb7\x95m\xf0,\xf7?'
p659
tp660
Rp661
ag4
(g8
S'\xf6\xa3rN\x19:\xf6?'
p662
tp663
Rp664
ag4
(g8
S'\x01v\xf0~\xe5\xb0\xef?'
p665
tp666
Rp667
as(g1
g14
tp668
(lp669
g4
(g8
S'\x81\x86\xca\xf3+l\xf1?'
p670
tp671
Rp672
ag4
(g8
S'\x03\x0e\xe7ix\x91\xf3?'
p673
tp674
Rp675
ag4
(g8
S'\xc8=\x03\xba\xa8\xb0\xf1?'
p676
tp677
Rp678
ag4
(g8
S'\t\x89\x04\x10\xa9[\xf9?'
p679
tp680
Rp681
ag4
(g8
S'\xae\x8a\xa6`\xc9m\xf3?'
p682
tp683
Rp684
ag4
(g8
S'\xb6y\xe7\xccU;\xf5?'
p685
tp686
Rp687
ag4
(g8
S'/\xbb\x08\x00\x94\xf4\xe5?'
p688
tp689
Rp690
as(g1
g19
tp691
(lp692
g4
(g8
S'\xd0\xd1@\x15lH\x1d@'
p693
tp694
Rp695
ag4
(g8
S'\x81\x86\xca\xf3+l\xf1?'
p696
tp697
Rp698
ag4
(g8
S'\x03\x0e\xe7ix\x91\xf3?'
p699
tp700
Rp701
ag4
(g8
S'\xc8=\x03\xba\xa8\xb0\xf1?'
p702
tp703
Rp704
ag4
(g8
S'\t\x89\x04\x10\xa9[\xf9?'
p705
tp706
Rp707
ag4
(g8
S'\xae\x8a\xa6`\xc9m\xf3?'
p708
tp709
Rp710
ag4
(g8
S'\xb6y\xe7\xccU;\xf5?'
p711
tp712
Rp713
ag4
(g8
S'\xf6\xa3rN\x19:\xf6?'
p714
tp715
Rp716
ag4
(g8
S'v\xf4kw\xb0n\xf7?'
p717
tp718
Rp719
ag4
(g8
S'/\xbb\x08\x00\x94\xf4\xe5?'
p720
tp721
Rp722
as(g1
g24
tp723
(lp724
g4
(g8
S'5\x80\x11\xa1 X\xeb?'
p725
tp726
Rp727
as(g1
g29
tp728
(lp729
s(g1
g34
tp730
(lp731
g4
(g8
S'\xd0\xd1@\x15lH\x1d@'
p732
tp733
Rp734
ag4
(g8
S'5\x80\x11\xa1 X\xeb?'
p735
tp736
Rp737
ag4
(g8
S'\x81\x86\xca\xf3+l\xf1?'
p738
tp739
Rp740
ag4
(g8
S'\x03\x0e\xe7ix\x91\xf3?'
p741
tp742
Rp743
ag4
(g8
S'\xc8=\x03\xba\xa8\xb0\xf1?'
p744
tp745
Rp746
ag4
(g8
S'\t\x89\x04\x10\xa9[\xf9?'
p747
tp748
Rp749
ag4
(g8
S'\xae\x8a\xa6`\xc9m\xf3?'
p750
tp751
Rp752
ag4
(g8
S'\xb6y\xe7\xccU;\xf5?'
p753
tp754
Rp755
ag4
(g8
S'\xf6\xa3rN\x19:\xf6?'
p756
tp757
Rp758
ag4
(g8
S'v\xf4kw\xb0n\xf7?'
p759
tp760
Rp761
ag4
(g8
S'/\xbb\x08\x00\x94\xf4\xe5?'
p762
tp763
Rp764
astp765
.