((dp0
(S'09484600'
p1
S'summer'
p2
tp3
cnumpy.core.multiarray
scalar
p4
(cnumpy
dtype
p5
(S'f8'
p6
I0
I1
tp7
Rp8
(I3
S'<'
p9
NNNI-1
I-1
I0
tp10
bS'\x83<\xc6sY\xc1\x11@'
p11
tp12
Rp13
s(g1
S'fall'
p14
tp15
g4
(g8
S'\x86\xdf\x85\tPL\x17@'
p16
tp17
Rp18
s(g1
S'winter'
p19
tp20
g4
(g8
S'qG\xb8+x\xdd\x02@'
p21
tp22
Rp23
s(g1
S'annual'
p24
tp25
g4
(g8
S'\xf7|\x81i\xccr\x18@'
p26
tp27
Rp28
s(g1
S'wet'
p29
tp30
g4
(g8
S'PsU\xf0\xb6[\x00@'
p31
tp32
Rp33
s(g1
S'spring'
p34
tp35
g4
(g8
S'\xe1\x95\x9a\xaavF\x1a@'
p36
tp37
Rp38
s(dp39
(g1
g2
tp40
g4
(g8
S"wZ'\xe3Y\x94\xf5?"
p41
tp42
Rp43
s(g1
g14
tp44
g4
(g8
S'\xc8K\xf7\x01s\xbd\xf6?'
p45
tp46
Rp47
s(g1
g19
tp48
g4
(g8
S'/u)J\x7f&\xf5?'
p49
tp50
Rp51
s(g1
g24
tp52
g4
(g8
S'G>$\xaf8\x8b\xf6?'
p53
tp54
Rp55
s(g1
g29
tp56
g4
(g8
S'\xb9-b\x86\xa5\xef\xf4?'
p57
tp58
Rp59
s(g1
g34
tp60
g4
(g8
S'@\xbb\xd9\x88\x85\xd6\xf7?'
p61
tp62
Rp63
s(dp64
(g1
g2
tp65
(lp66
cpandas.tslib
Timestamp
p67
(L645148800000000000L
NNtp68
Rp69
ag67
(L645235200000000000L
NNtp70
Rp71
ag67
(L645494400000000000L
NNtp72
Rp73
ag67
(L645926400000000000L
NNtp74
Rp75
ag67
(L646704000000000000L
NNtp76
Rp77
ag67
(L647222400000000000L
NNtp78
Rp79
ag67
(L647308800000000000L
NNtp80
Rp81
ag67
(L647395200000000000L
NNtp82
Rp83
ag67
(L648172800000000000L
NNtp84
Rp85
ag67
(L648432000000000000L
NNtp86
Rp87
ag67
(L649036800000000000L
NNtp88
Rp89
ag67
(L649555200000000000L
NNtp90
Rp91
ag67
(L650073600000000000L
NNtp92
Rp93
ag67
(L650419200000000000L
NNtp94
Rp95
ag67
(L650764800000000000L
NNtp96
Rp97
ag67
(L650937600000000000L
NNtp98
Rp99
ag67
(L651024000000000000L
NNtp100
Rp101
ag67
(L651110400000000000L
NNtp102
Rp103
ag67
(L651196800000000000L
NNtp104
Rp105
ag67
(L651888000000000000L
NNtp106
Rp107
ag67
(L676771200000000000L
NNtp108
Rp109
ag67
(L677548800000000000L
NNtp110
Rp111
ag67
(L678499200000000000L
NNtp112
Rp113
ag67
(L679104000000000000L
NNtp114
Rp115
ag67
(L679276800000000000L
NNtp116
Rp117
ag67
(L679622400000000000L
NNtp118
Rp119
ag67
(L680227200000000000L
NNtp120
Rp121
as(g1
g14
tp122
(lp123
g67
(L623635200000000000L
NNtp124
Rp125
ag67
(L623721600000000000L
NNtp126
Rp127
ag67
(L624412800000000000L
NNtp128
Rp129
ag67
(L624931200000000000L
NNtp130
Rp131
ag67
(L625104000000000000L
NNtp132
Rp133
ag67
(L625795200000000000L
NNtp134
Rp135
ag67
(L625881600000000000L
NNtp136
Rp137
ag67
(L626140800000000000L
NNtp138
Rp139
ag67
(L626313600000000000L
NNtp140
Rp141
ag67
(L626745600000000000L
NNtp142
Rp143
ag67
(L626832000000000000L
NNtp144
Rp145
ag67
(L627350400000000000L
NNtp146
Rp147
as(g1
g19
tp148
(lp149
g67
(L628560000000000000L
NNtp150
Rp151
ag67
(L628732800000000000L
NNtp152
Rp153
ag67
(L629078400000000000L
NNtp154
Rp155
ag67
(L629424000000000000L
NNtp156
Rp157
ag67
(L629510400000000000L
NNtp158
Rp159
ag67
(L629769600000000000L
NNtp160
Rp161
as(g1
g24
tp162
(lp163
g67
(L624585600000000000L
NNtp164
Rp165
ag67
(L625017600000000000L
NNtp166
Rp167
ag67
(L625104000000000000L
NNtp168
Rp169
ag67
(L625276800000000000L
NNtp170
Rp171
ag67
(L625622400000000000L
NNtp172
Rp173
ag67
(L626140800000000000L
NNtp174
Rp175
ag67
(L626659200000000000L
NNtp176
Rp177
ag67
(L627004800000000000L
NNtp178
Rp179
ag67
(L627091200000000000L
NNtp180
Rp181
ag67
(L627350400000000000L
NNtp182
Rp183
ag67
(L627436800000000000L
NNtp184
Rp185
ag67
(L628214400000000000L
NNtp186
Rp187
ag67
(L629078400000000000L
NNtp188
Rp189
ag67
(L629251200000000000L
NNtp190
Rp191
ag67
(L629337600000000000L
NNtp192
Rp193
ag67
(L630201600000000000L
NNtp194
Rp195
ag67
(L630288000000000000L
NNtp196
Rp197
ag67
(L630460800000000000L
NNtp198
Rp199
ag67
(L631152000000000000L
NNtp200
Rp201
ag67
(L631324800000000000L
NNtp202
Rp203
ag67
(L631584000000000000L
NNtp204
Rp205
ag67
(L632102400000000000L
NNtp206
Rp207
ag67
(L632361600000000000L
NNtp208
Rp209
ag67
(L632880000000000000L
NNtp210
Rp211
ag67
(L633571200000000000L
NNtp212
Rp213
ag67
(L634176000000000000L
NNtp214
Rp215
ag67
(L634262400000000000L
NNtp216
Rp217
ag67
(L634694400000000000L
NNtp218
Rp219
ag67
(L635212800000000000L
NNtp220
Rp221
ag67
(L635385600000000000L
NNtp222
Rp223
ag67
(L635472000000000000L
NNtp224
Rp225
ag67
(L635817600000000000L
NNtp226
Rp227
ag67
(L635904000000000000L
NNtp228
Rp229
ag67
(L635990400000000000L
NNtp230
Rp231
ag67
(L636854400000000000L
NNtp232
Rp233
ag67
(L638323200000000000L
NNtp234
Rp235
ag67
(L638582400000000000L
NNtp236
Rp237
ag67
(L638668800000000000L
NNtp238
Rp239
ag67
(L639446400000000000L
NNtp240
Rp241
ag67
(L639792000000000000L
NNtp242
Rp243
ag67
(L640569600000000000L
NNtp244
Rp245
ag67
(L641174400000000000L
NNtp246
Rp247
ag67
(L641260800000000000L
NNtp248
Rp249
ag67
(L641606400000000000L
NNtp250
Rp251
ag67
(L641779200000000000L
NNtp252
Rp253
ag67
(L642124800000000000L
NNtp254
Rp255
ag67
(L642729600000000000L
NNtp256
Rp257
ag67
(L642988800000000000L
NNtp258
Rp259
as(g1
g29
tp260
(lp261
g67
(L626313600000000000L
NNtp262
Rp263
ag67
(L626659200000000000L
NNtp264
Rp265
ag67
(L627004800000000000L
NNtp266
Rp267
ag67
(L627523200000000000L
NNtp268
Rp269
ag67
(L627609600000000000L
NNtp270
Rp271
ag67
(L627955200000000000L
NNtp272
Rp273
ag67
(L628473600000000000L
NNtp274
Rp275
ag67
(L628560000000000000L
NNtp276
Rp277
ag67
(L628905600000000000L
NNtp278
Rp279
ag67
(L629424000000000000L
NNtp280
Rp281
ag67
(L629683200000000000L
NNtp282
Rp283
as(g1
g34
tp284
(lp285
g67
(L638236800000000000L
NNtp286
Rp287
ag67
(L638841600000000000L
NNtp288
Rp289
ag67
(L638928000000000000L
NNtp290
Rp291
ag67
(L640569600000000000L
NNtp292
Rp293
ag67
(L640828800000000000L
NNtp294
Rp295
ag67
(L640915200000000000L
NNtp296
Rp297
as(dp298
(g1
g2
tp299
g4
(g8
S'\xd0\x82\xff\x99\x99\x9d\xea?'
p300
tp301
Rp302
s(g1
g14
tp303
g4
(g8
S'\xa1\xa7\xce,\xc6<\xf2?'
p304
tp305
Rp306
s(g1
g19
tp307
g4
(g8
S'\xb2\xf8.\x10\x8cQ\xfd?'
p308
tp309
Rp310
s(g1
g24
tp311
g4
(g8
S'\x802\xd0\xfb4M\xf2?'
p312
tp313
Rp314
s(g1
g29
tp315
g4
(g8
S'\x05\x95\xf7\xe9\xc0\xee\xfd?'
p316
tp317
Rp318
s(g1
g34
tp319
g4
(g8
S'\x86\xd3\xc8\x90\xd7\x8e\xfd?'
p320
tp321
Rp322
s(dp323
(g1
g2
tp324
g4
(g8
S'\xdb\x8d\xa5{\x8f\xb7\x1e@'
p325
tp326
Rp327
s(g1
g14
tp328
g4
(g8
S"w\xe0';\xea0\x05@"
p329
tp330
Rp331
s(g1
g19
tp332
g4
(g8
S'\x12\xcd\xf3S\xa5\x98\x1b@'
p333
tp334
Rp335
s(g1
g24
tp336
g4
(g8
S'\xdehB\x07\xad\t\n@'
p337
tp338
Rp339
s(g1
g29
tp340
g4
(g8
S'\xf4^\x9fL\xe3@\x15@'
p341
tp342
Rp343
s(g1
g34
tp344
g4
(g8
S'`d\r\x84q\xd5\x02@'
p345
tp346
Rp347
s(dp348
(g1
g2
tp349
F0.0024421421077402213
s(g1
g14
tp350
F0.0006538704064227152
s(g1
g19
tp351
F0.0008524379260437203
s(g1
g24
tp352
F0.0010812941062189481
s(g1
g29
tp353
F0.0006560437638675923
s(g1
g34
tp354
F0.0003821225598214784
s(dp355
(g1
g2
tp356
g4
(g8
S'\xec\xe3\xc2>.\xec\x17@'
p357
tp358
Rp359
s(g1
g14
tp360
g4
(g8
S'\xab\xaa\xaa\xaa\xaaj,@'
p361
tp362
Rp363
s(g1
g19
tp364
g4
(g8
S'KKKKKK-@'
p365
tp366
Rp367
s(g1
g24
tp368
g4
(g8
S'\x00\x00\x00\x00\x00\x80@@'
p369
tp370
Rp371
s(g1
g29
tp372
g4
(g8
S'y\r\xe55\x94W6@'
p373
tp374
Rp375
s(g1
g34
tp376
g4
(g8
S'\x05yJ\x90\xa7\x04/@'
p377
tp378
Rp379
s(dp380
(g1
g2
tp381
g4
(g8
S'\xa8,\xc5X\x99]\x94?'
p382
tp383
Rp384
s(g1
g14
tp385
g4
(g8
S'z\x8f\xc9\xd9\xd4%\x8f?'
p386
tp387
Rp388
s(g1
g19
tp389
g4
(g8
S'\x95\x04\x06\n%\x1e\x9c?'
p390
tp391
Rp392
s(g1
g24
tp393
g4
(g8
S'\xc3=\x02\x13\xa4\xb0\x92?'
p394
tp395
Rp396
s(g1
g29
tp397
g4
(g8
S'd\x93~`b\xaf\x98?'
p398
tp399
Rp400
s(g1
g34
tp401
g4
(g8
S'\xc3\xdb\xfb\xb0G\xadx?'
p402
tp403
Rp404
s(dp405
(g1
g2
tp406
g4
(g8
S'\xfd\xff\xff\xff\xff\xffX@'
p407
tp408
Rp409
s(g1
g14
tp410
g4
(g8
S'\xfd\xff\xff\xff\xff\xffX@'
p411
tp412
Rp413
s(g1
g19
tp414
g4
(g8
S'^!CcW\x95\x11@'
p415
tp416
Rp417
s(g1
g24
tp418
g4
(g8
S'\xfd\xff\xff\xff\xff\xffX@'
p419
tp420
Rp421
s(g1
g29
tp422
g4
(g8
S'\x98=:l\xe1\xf4\t@'
p423
tp424
Rp425
s(g1
g34
tp426
g4
(g8
S'\xcc+\xa8\n\x95\x1f\xfb?'
p427
tp428
Rp429
s(dp430
(g1
g2
tp431
g4
(g8
S'\x00\x00\x00\x00\x00\x00\xf8\xff'
p432
tp433
Rp434
s(g1
g14
tp435
g4
(g8
S'\x00\x00\x00\x00\x00\x00\xf8\xff'
p436
tp437
Rp438
s(g1
g19
tp439
g4
(g8
S'{\x8a\xec2_S\x9e?'
p440
tp441
Rp442
s(g1
g24
tp443
g4
(g8
S'\x00\x00\x00\x00\x00\x00\xf8\xff'
p444
tp445
Rp446
s(g1
g29
tp447
g4
(g8
S'WCA\x0e2H\x93?'
p448
tp449
Rp450
s(g1
g34
tp451
g4
(g8
S'h\x9ct-\xbe\x99\x9a?'
p452
tp453
Rp454
s(dp455
(g1
g2
tp456
F0.6138023757433463
s(g1
g14
tp457
F0.18431693435876004
s(g1
g19
tp458
F0.046614894121336826
s(g1
g24
tp459
F0.22540919935556822
s(g1
g29
tp460
F0.03875804246579596
s(g1
g34
tp461
F30.43167822865811
s(dp462
(g1
g2
tp463
g4
(g8
S'\xf0\xdd\xa4\x8cGs\xc2?'
p464
tp465
Rp466
s(g1
g14
tp467
F0.0767827404992046
s(g1
g19
tp468
F0.030535370113837546
s(g1
g24
tp469
F0.05904161259167091
s(g1
g29
tp470
F0.027266235163248272
s(g1
g34
tp471
F19592.690770186433
s(dp472
(dp473
(dp474
(g1
g2
tp475
(lp476
s(g1
g14
tp477
(lp478
s(g1
g19
tp479
(lp480
s(g1
g24
tp481
(lp482
g4
(g8
S'\x97\xc8\xf6D\x97\xc0w?'
p483
tp484
Rp485
as(g1
g29
tp486
(lp487
g4
(g8
S'\x97\xc8\xf6D\x97\xc0w?'
p488
tp489
Rp490
as(g1
g34
tp491
(lp492
g4
(g8
S'\x97\xc8\xf6D\x97\xc0w?'
p493
tp494
Rp495
as(dp496
(g1
g2
tp497
(lp498
s(g1
g14
tp499
(lp500
s(g1
g19
tp501
(lp502
s(g1
g24
tp503
(lp504
g4
(g8
S'\xc7;\x1ezN\x03\xc8?'
p505
tp506
Rp507
as(g1
g29
tp508
(lp509
g4
(g8
S'\xc7;\x1ezN\x03\xc8?'
p510
tp511
Rp512
as(g1
g34
tp513
(lp514
g4
(g8
S'\xc7;\x1ezN\x03\xc8?'
p515
tp516
Rp517
astp518
.