((dp0
(S'09480000'
p1
S'summer'
p2
tp3
cnumpy.core.multiarray
scalar
p4
(cnumpy
dtype
p5
(S'f8'
p6
I0
I1
tp7
Rp8
(I3
S'<'
p9
NNNI-1
I-1
I0
tp10
bS'm\x81W\xe1_\xbf\x06@'
p11
tp12
Rp13
s(g1
S'fall'
p14
tp15
g4
(g8
S'\x9d\xad\x17M\xbai\xe3?'
p16
tp17
Rp18
s(g1
S'winter'
p19
tp20
g4
(g8
S'\x1a\xcc2\r)\xb7\x01@'
p21
tp22
Rp23
s(g1
S'wet'
p24
tp25
g4
(g8
S'M\x95\xe4,\xf3$\xe2?'
p26
tp27
Rp28
s(g1
S'spring'
p29
tp30
g4
(g8
S'y\xa9\xe7\xfa\xc5\x9a\xc2?'
p31
tp32
Rp33
s(g1
S'annual'
p34
tp35
g4
(g8
S'\xc8\xbb\xeb\x0c}L\x19@'
p36
tp37
Rp38
s(dp39
(g1
g2
tp40
g4
(g8
S'\xe4\x8el\xb0\x90\xf4\xf4?'
p41
tp42
Rp43
s(g1
g14
tp44
g4
(g8
S'\xafZ\x86\xba\x0fo\xf2?'
p45
tp46
Rp47
s(g1
g19
tp48
g4
(g8
S'\x99\x19\xb1\x7f\xf7\x91\xf7?'
p49
tp50
Rp51
s(g1
g24
tp52
g4
(g8
S'\x14\xba\xe3@\xbf\xc3\xf4?'
p53
tp54
Rp55
s(g1
g29
tp56
g4
(g8
S'\xf1\xc7\x8a\x8eBq\xf1?'
p57
tp58
Rp59
s(g1
g34
tp60
g4
(g8
S'\xeb\xa2A\xa6\xae|\xf8?'
p61
tp62
Rp63
s(dp64
(g1
g2
tp65
(lp66
cpandas.tslib
Timestamp
p67
(L329356800000000000L
NNtp68
Rp69
ag67
(L330825600000000000L
NNtp70
Rp71
ag67
(L331171200000000000L
NNtp72
Rp73
ag67
(L331516800000000000L
NNtp74
Rp75
ag67
(L331776000000000000L
NNtp76
Rp77
ag67
(L332294400000000000L
NNtp78
Rp79
ag67
(L332640000000000000L
NNtp80
Rp81
ag67
(L332726400000000000L
NNtp82
Rp83
ag67
(L333590400000000000L
NNtp84
Rp85
ag67
(L333849600000000000L
NNtp86
Rp87
ag67
(L334108800000000000L
NNtp88
Rp89
ag67
(L334195200000000000L
NNtp90
Rp91
ag67
(L334368000000000000L
NNtp92
Rp93
ag67
(L334627200000000000L
NNtp94
Rp95
ag67
(L335577600000000000L
NNtp96
Rp97
ag67
(L335664000000000000L
NNtp98
Rp99
ag67
(L336182400000000000L
NNtp100
Rp101
ag67
(L360374400000000000L
NNtp102
Rp103
ag67
(L360633600000000000L
NNtp104
Rp105
ag67
(L361065600000000000L
NNtp106
Rp107
ag67
(L361497600000000000L
NNtp108
Rp109
as(g1
g14
tp110
(lp111
g67
(L336700800000000000L
NNtp112
Rp113
ag67
(L337132800000000000L
NNtp114
Rp115
ag67
(L337305600000000000L
NNtp116
Rp117
ag67
(L337478400000000000L
NNtp118
Rp119
ag67
(L337737600000000000L
NNtp120
Rp121
ag67
(L337824000000000000L
NNtp122
Rp123
ag67
(L337910400000000000L
NNtp124
Rp125
ag67
(L337996800000000000L
NNtp126
Rp127
ag67
(L338256000000000000L
NNtp128
Rp129
ag67
(L338428800000000000L
NNtp130
Rp131
ag67
(L338515200000000000L
NNtp132
Rp133
ag67
(L338601600000000000L
NNtp134
Rp135
ag67
(L339120000000000000L
NNtp136
Rp137
as(g1
g19
tp138
(lp139
g67
(L315532800000000000L
NNtp140
Rp141
ag67
(L316051200000000000L
NNtp142
Rp143
ag67
(L316224000000000000L
NNtp144
Rp145
as(g1
g24
tp146
(lp147
g67
(L315532800000000000L
NNtp148
Rp149
ag67
(L315619200000000000L
NNtp150
Rp151
ag67
(L316137600000000000L
NNtp152
Rp153
ag67
(L316483200000000000L
NNtp154
Rp155
as(g1
g29
tp156
(lp157
g67
(L320716800000000000L
NNtp158
Rp159
as(g1
g34
tp160
(lp161
g67
(L316224000000000000L
NNtp162
Rp163
ag67
(L316396800000000000L
NNtp164
Rp165
ag67
(L317174400000000000L
NNtp166
Rp167
ag67
(L317260800000000000L
NNtp168
Rp169
ag67
(L317692800000000000L
NNtp170
Rp171
ag67
(L317865600000000000L
NNtp172
Rp173
ag67
(L318643200000000000L
NNtp174
Rp175
ag67
(L318902400000000000L
NNtp176
Rp177
ag67
(L319334400000000000L
NNtp178
Rp179
ag67
(L319593600000000000L
NNtp180
Rp181
ag67
(L319766400000000000L
NNtp182
Rp183
ag67
(L319852800000000000L
NNtp184
Rp185
ag67
(L319939200000000000L
NNtp186
Rp187
ag67
(L320284800000000000L
NNtp188
Rp189
ag67
(L320457600000000000L
NNtp190
Rp191
ag67
(L320544000000000000L
NNtp192
Rp193
ag67
(L320630400000000000L
NNtp194
Rp195
ag67
(L320976000000000000L
NNtp196
Rp197
ag67
(L321062400000000000L
NNtp198
Rp199
ag67
(L321408000000000000L
NNtp200
Rp201
ag67
(L322185600000000000L
NNtp202
Rp203
ag67
(L322444800000000000L
NNtp204
Rp205
ag67
(L322617600000000000L
NNtp206
Rp207
ag67
(L322963200000000000L
NNtp208
Rp209
ag67
(L323049600000000000L
NNtp210
Rp211
ag67
(L323222400000000000L
NNtp212
Rp213
ag67
(L323308800000000000L
NNtp214
Rp215
ag67
(L323568000000000000L
NNtp216
Rp217
ag67
(L324345600000000000L
NNtp218
Rp219
ag67
(L324432000000000000L
NNtp220
Rp221
ag67
(L324777600000000000L
NNtp222
Rp223
ag67
(L324864000000000000L
NNtp224
Rp225
ag67
(L325814400000000000L
NNtp226
Rp227
ag67
(L325987200000000000L
NNtp228
Rp229
ag67
(L326419200000000000L
NNtp230
Rp231
ag67
(L326505600000000000L
NNtp232
Rp233
ag67
(L326764800000000000L
NNtp234
Rp235
as(dp236
(g1
g2
tp237
g4
(g8
S'\xb3:K2\xf2\xce\xee?'
p238
tp239
Rp240
s(g1
g14
tp241
g4
(g8
S'\xbc\xceM\x90*L\xef?'
p242
tp243
Rp244
s(g1
g19
tp245
g4
(g8
S'\x06\xe4\x83\x07~\xb6\x00@'
p246
tp247
Rp248
s(g1
g24
tp249
g4
(g8
S'\xe0\xab\x8d\x9f\x9b-\xff?'
p250
tp251
Rp252
s(g1
g29
tp253
g4
(g8
S'\xc6u\xdc]\xc7\xa4\xf0?'
p254
tp255
Rp256
s(g1
g34
tp257
g4
(g8
S'y\x06\xdf\xf3\xb4\xff\xee?'
p258
tp259
Rp260
s(dp261
(g1
g2
tp262
g4
(g8
S'c\xcb\x80\x08\x074#@'
p263
tp264
Rp265
s(g1
g14
tp266
g4
(g8
S'Cb\x85?}\x88\t@'
p267
tp268
Rp269
s(g1
g19
tp270
g4
(g8
S'\x0f\xce\xc7WW\xbc\x12@'
p271
tp272
Rp273
s(g1
g24
tp274
g4
(g8
S'\xec\xac$ZC\x03\x0c@'
p275
tp276
Rp277
s(g1
g29
tp278
g4
(g8
S'\xa6\x81\xd2\xeaX\xc1\xfa?'
p279
tp280
Rp281
s(g1
g34
tp282
g4
(g8
S'&\xd4&x\x95_\x0e@'
p283
tp284
Rp285
s(dp286
(g1
g2
tp287
F0.007152293892662605
s(g1
g14
tp288
F0.0037452079163834014
s(g1
g19
tp289
F0.0032851024172193986
s(g1
g24
tp290
F0.0025636284930026783
s(g1
g29
tp291
F0.0014955634773935183
s(g1
g34
tp292
F0.003925517531227301
s(dp293
(g1
g2
tp294
g4
(g8
S'\xeb\xd0o\xb6\x0e\xfd @'
p295
tp296
Rp297
s(g1
g14
tp298
g4
(g8
S'\xa6\xa5\xa5\xa5\xa5\xa55@'
p299
tp300
Rp301
s(g1
g19
tp302
g4
(g8
S'\x00\x00\x00\x00\x00\x00/@'
p303
tp304
Rp305
s(g1
g24
tp306
g4
(g8
S'\xdb\xb6m\xdb\xb6m0@'
p307
tp308
Rp309
s(g1
g29
tp310
g4
(g8
S'\xab\xaa\xaa\xaa\xaa\xaaA@'
p311
tp312
Rp313
s(g1
g34
tp314
g4
(g8
S'\x00\x00\x00\x00\x00\xffN@'
p315
tp316
Rp317
s(dp318
(g1
g2
tp319
g4
(g8
S'\x9c\xaa\xb8z\x809\xb5?'
p320
tp321
Rp322
s(g1
g14
tp323
g4
(g8
S'\x19bz+\xd6\xe9\xd0?'
p324
tp325
Rp326
s(g1
g19
tp327
g4
(g8
S'|\xa5\x00\xb9\xc5\x15\xd1?'
p328
tp329
Rp330
s(g1
g24
tp331
g4
(g8
S'Fc>\xf6\xd4_\xe6?'
p332
tp333
Rp334
s(g1
g29
tp335
g4
(g8
S'\x05\x92\xd4\x05\xf9\r\xe2?'
p336
tp337
Rp338
s(g1
g34
tp339
g4
(g8
S'\x0b;\xbf\xb3\x169\xb6?'
p340
tp341
Rp342
s(dp343
(g1
g2
tp344
g4
(g8
S'\xfd\xff\xff\xff\xff\xffX@'
p345
tp346
Rp347
s(g1
g14
tp348
g4
(g8
S'\xfd\xff\xff\xff\xff\xffX@'
p349
tp350
Rp351
s(g1
g19
tp352
g4
(g8
S'\xc4Q\xc5#\x1b\xcc\x07@'
p353
tp354
Rp355
s(g1
g24
tp356
g4
(g8
S'@\xba\n\xa9u\xc7\x00@'
p357
tp358
Rp359
s(g1
g29
tp360
g4
(g8
S'\xfd\xff\xff\xff\xff\xffX@'
p361
tp362
Rp363
s(g1
g34
tp364
g4
(g8
S'\xfd\xff\xff\xff\xff\xffX@'
p365
tp366
Rp367
s(dp368
(g1
g2
tp369
g4
(g8
S'\x00\x00\x00\x00\x00\x00\xf8\xff'
p370
tp371
Rp372
s(g1
g14
tp373
g4
(g8
S'\x00\x00\x00\x00\x00\x00\xf8\xff'
p374
tp375
Rp376
s(g1
g19
tp377
g4
(g8
S'\x04\xe5\x9b\xf7\xa6\xf6\xa0?'
p378
tp379
Rp380
s(g1
g24
tp381
g4
(g8
S'\xc8t5\x95J\xcb\x8e?'
p382
tp383
Rp384
s(g1
g29
tp385
g4
(g8
S'\x00\x00\x00\x00\x00\x00\xf8\xff'
p386
tp387
Rp388
s(g1
g34
tp389
g4
(g8
S'\x00\x00\x00\x00\x00\x00\xf8\xff'
p390
tp391
Rp392
s(dp393
(g1
g2
tp394
F0.40990526493221496
s(g1
g14
tp395
F0.21019189600492577
s(g1
g19
tp396
F0.008769168158836157
s(g1
g24
tp397
F0.005887357376160898
s(g1
g29
tp398
F0.2715646332414934
s(g1
g34
tp399
F0.14467752401703812
s(dp400
(g1
g2
tp401
g4
(g8
S'\x84\xb7\xfd\xa7\xad>\xad?'
p402
tp403
Rp404
s(g1
g14
tp405
g4
(g8
S'\x93\xd5\xbbMOF\x86?'
p406
tp407
Rp408
s(g1
g19
tp409
g4
(g8
S'\x0brj\xa3\xcf\xe3\x82?'
p410
tp411
Rp412
s(g1
g24
tp413
F0.006734547393518777
s(g1
g29
tp414
F0.017051312626924407
s(g1
g34
tp415
g4
(g8
S'\x12\x00\x81\xbb\x0f\xd6\x86?'
p416
tp417
Rp418
s(dp419
(dp420
(dp421
(g1
g2
tp422
(lp423
g4
(g8
S'\xa0\xe6x\xd0\xe5S\xe7?'
p424
tp425
Rp426
ag4
(g8
S'T\x8f\xa1-\x82<\x10A'
p427
tp428
Rp429
ag4
(g8
S'\xc7\xfbtb\x9e\xeb\x12@'
p430
tp431
Rp432
as(g1
g14
tp433
(lp434
g4
(g8
S'\x99\xd0\xa6t\xe5r\xfd?'
p435
tp436
Rp437
as(g1
g19
tp438
(lp439
g4
(g8
S'\x00\x93g\xa4s\xa9\xf1?'
p440
tp441
Rp442
as(g1
g24
tp443
(lp444
g4
(g8
S')\x01\x15mZ\x85\xe2?'
p445
tp446
Rp447
ag4
(g8
S'\x00\x93g\xa4s\xa9\xf1?'
p448
tp449
Rp450
as(g1
g29
tp451
(lp452
g4
(g8
S')\x01\x15mZ\x85\xe2?'
p453
tp454
Rp455
as(g1
g34
tp456
(lp457
g4
(g8
S')\x01\x15mZ\x85\xe2?'
p458
tp459
Rp460
ag4
(g8
S'\x99\xd0\xa6t\xe5r\xfd?'
p461
tp462
Rp463
ag4
(g8
S'\xa0\xe6x\xd0\xe5S\xe7?'
p464
tp465
Rp466
ag4
(g8
S'\xfb/,\x91\x92[\xf4?'
p467
tp468
Rp469
ag4
(g8
S'T\x8f\xa1-\x82<\x10A'
p470
tp471
Rp472
ag4
(g8
S'\x00\x93g\xa4s\xa9\xf1?'
p473
tp474
Rp475
ag4
(g8
S'\xc7\xfbtb\x9e\xeb\x12@'
p476
tp477
Rp478
as(dp479
(g1
g2
tp480
(lp481
g4
(g8
S'Sl\xec6\x0f\x0c\xf0?'
p482
tp483
Rp484
ag4
(g8
S'\xd9\x9f[\xf0}_\x10@'
p485
tp486
Rp487
ag4
(g8
S'+{\xc9\x0f\xcd\x0b\xfb?'
p488
tp489
Rp490
as(g1
g14
tp491
(lp492
g4
(g8
S'\xbdj\xea\x07\xb3P\xf3?'
p493
tp494
Rp495
as(g1
g19
tp496
(lp497
g4
(g8
S'(\xbbf\xfa&_\xf2?'
p498
tp499
Rp500
as(g1
g24
tp501
(lp502
g4
(g8
S'\x94\xc0\x1e{\xa1\x82\xea?'
p503
tp504
Rp505
ag4
(g8
S'(\xbbf\xfa&_\xf2?'
p506
tp507
Rp508
as(g1
g29
tp509
(lp510
g4
(g8
S'\x94\xc0\x1e{\xa1\x82\xea?'
p511
tp512
Rp513
as(g1
g34
tp514
(lp515
g4
(g8
S'\x94\xc0\x1e{\xa1\x82\xea?'
p516
tp517
Rp518
ag4
(g8
S'\xbdj\xea\x07\xb3P\xf3?'
p519
tp520
Rp521
ag4
(g8
S'Sl\xec6\x0f\x0c\xf0?'
p522
tp523
Rp524
ag4
(g8
S'\x0eXm?O\x81\xeb?'
p525
tp526
Rp527
ag4
(g8
S'\xd9\x9f[\xf0}_\x10@'
p528
tp529
Rp530
ag4
(g8
S'(\xbbf\xfa&_\xf2?'
p531
tp532
Rp533
ag4
(g8
S'+{\xc9\x0f\xcd\x0b\xfb?'
p534
tp535
Rp536
astp537
.