((dp0
(S'09497980'
p1
S'fall'
p2
tp3
cnumpy.core.multiarray
scalar
p4
(cnumpy
dtype
p5
(S'f8'
p6
I0
I1
tp7
Rp8
(I3
S'<'
p9
NNNI-1
I-1
I0
tp10
bS'\xf5\x8b\xad\xfeyV\x1d@'
p11
tp12
Rp13
s(g1
S'wet'
p14
tp15
g4
(g8
S'cb[\xb7\x96\xf9\xe4?'
p16
tp17
Rp18
s(g1
S'summer'
p19
tp20
g4
(g8
S'Ro\xa7\x1c\xd3\xe1\x1c@'
p21
tp22
Rp23
s(g1
S'annual'
p24
tp25
g4
(g8
S'\xd7S\xda\x83\xcf#\xdf?'
p26
tp27
Rp28
s(g1
S'spring'
p29
tp30
g4
(g8
S'6\xc3\xee\xc6\x9a\x11\xe3?'
p31
tp32
Rp33
s(g1
S'winter'
p34
tp35
g4
(g8
S'\x0b\xc7%\x8a\xd9\xb1\xee?'
p36
tp37
Rp38
s(dp39
(g1
g2
tp40
g4
(g8
S'\xdd\xbb\xb6-\xd0\xe3\xfb?'
p41
tp42
Rp43
s(g1
g14
tp44
g4
(g8
S'\x0f\x7f\xd9\xacl\x14\xf5?'
p45
tp46
Rp47
s(g1
g19
tp48
g4
(g8
S'\x08\xa6\xeeM\x94a\xfb?'
p49
tp50
Rp51
s(g1
g24
tp52
g4
(g8
S'$D\xb7\xe1\xc6>\xf3?'
p53
tp54
Rp55
s(g1
g29
tp56
g4
(g8
S'\x80b\xf9\x8ax\x92\xf6?'
p57
tp58
Rp59
s(g1
g34
tp60
g4
(g8
S'4\xa5\xa5\xbe\xfc\x9d\xf6?'
p61
tp62
Rp63
s(dp64
(g1
g2
tp65
(lp66
cpandas.tslib
Timestamp
p67
(L336960000000000000L
NNtp68
Rp69
ag67
(L337305600000000000L
NNtp70
Rp71
ag67
(L337824000000000000L
NNtp72
Rp73
ag67
(L338169600000000000L
NNtp74
Rp75
ag67
(L338256000000000000L
NNtp76
Rp77
ag67
(L338342400000000000L
NNtp78
Rp79
ag67
(L338428800000000000L
NNtp80
Rp81
ag67
(L338515200000000000L
NNtp82
Rp83
ag67
(L338601600000000000L
NNtp84
Rp85
ag67
(L339120000000000000L
NNtp86
Rp87
ag67
(L339292800000000000L
NNtp88
Rp89
ag67
(L339552000000000000L
NNtp90
Rp91
ag67
(L339638400000000000L
NNtp92
Rp93
ag67
(L339724800000000000L
NNtp94
Rp95
ag67
(L339811200000000000L
NNtp96
Rp97
ag67
(L340848000000000000L
NNtp98
Rp99
ag67
(L340934400000000000L
NNtp100
Rp101
ag67
(L341020800000000000L
NNtp102
Rp103
ag67
(L341107200000000000L
NNtp104
Rp105
ag67
(L341280000000000000L
NNtp106
Rp107
ag67
(L341366400000000000L
NNtp108
Rp109
ag67
(L341712000000000000L
NNtp110
Rp111
ag67
(L341798400000000000L
NNtp112
Rp113
ag67
(L342403200000000000L
NNtp114
Rp115
ag67
(L342576000000000000L
NNtp116
Rp117
ag67
(L342662400000000000L
NNtp118
Rp119
ag67
(L343267200000000000L
NNtp120
Rp121
ag67
(L343353600000000000L
NNtp122
Rp123
ag67
(L343440000000000000L
NNtp124
Rp125
ag67
(L343526400000000000L
NNtp126
Rp127
ag67
(L344044800000000000L
NNtp128
Rp129
ag67
(L344304000000000000L
NNtp130
Rp131
ag67
(L344390400000000000L
NNtp132
Rp133
ag67
(L368323200000000000L
NNtp134
Rp135
ag67
(L368409600000000000L
NNtp136
Rp137
ag67
(L368496000000000000L
NNtp138
Rp139
as(g1
g14
tp140
(lp141
g67
(L315792000000000000L
NNtp142
Rp143
ag67
(L316224000000000000L
NNtp144
Rp145
ag67
(L316310400000000000L
NNtp146
Rp147
ag67
(L316483200000000000L
NNtp148
Rp149
ag67
(L316656000000000000L
NNtp150
Rp151
ag67
(L316742400000000000L
NNtp152
Rp153
ag67
(L316828800000000000L
NNtp154
Rp155
ag67
(L316915200000000000L
NNtp156
Rp157
ag67
(L317260800000000000L
NNtp158
Rp159
ag67
(L317347200000000000L
NNtp160
Rp161
ag67
(L317433600000000000L
NNtp162
Rp163
ag67
(L317692800000000000L
NNtp164
Rp165
ag67
(L317779200000000000L
NNtp166
Rp167
ag67
(L318038400000000000L
NNtp168
Rp169
ag67
(L318211200000000000L
NNtp170
Rp171
ag67
(L318297600000000000L
NNtp172
Rp173
ag67
(L318384000000000000L
NNtp174
Rp175
ag67
(L318556800000000000L
NNtp176
Rp177
ag67
(L318643200000000000L
NNtp178
Rp179
ag67
(L318729600000000000L
NNtp180
Rp181
ag67
(L318816000000000000L
NNtp182
Rp183
ag67
(L319075200000000000L
NNtp184
Rp185
ag67
(L319248000000000000L
NNtp186
Rp187
ag67
(L319420800000000000L
NNtp188
Rp189
ag67
(L319507200000000000L
NNtp190
Rp191
ag67
(L319680000000000000L
NNtp192
Rp193
ag67
(L319852800000000000L
NNtp194
Rp195
ag67
(L320198400000000000L
NNtp196
Rp197
ag67
(L320284800000000000L
NNtp198
Rp199
ag67
(L320371200000000000L
NNtp200
Rp201
ag67
(L320544000000000000L
NNtp202
Rp203
ag67
(L320803200000000000L
NNtp204
Rp205
ag67
(L320976000000000000L
NNtp206
Rp207
ag67
(L321062400000000000L
NNtp208
Rp209
ag67
(L321148800000000000L
NNtp210
Rp211
ag67
(L321408000000000000L
NNtp212
Rp213
ag67
(L321580800000000000L
NNtp214
Rp215
ag67
(L321926400000000000L
NNtp216
Rp217
ag67
(L322099200000000000L
NNtp218
Rp219
ag67
(L322444800000000000L
NNtp220
Rp221
ag67
(L322531200000000000L
NNtp222
Rp223
ag67
(L322790400000000000L
NNtp224
Rp225
ag67
(L322963200000000000L
NNtp226
Rp227
ag67
(L323049600000000000L
NNtp228
Rp229
ag67
(L323136000000000000L
NNtp230
Rp231
ag67
(L323222400000000000L
NNtp232
Rp233
ag67
(L323308800000000000L
NNtp234
Rp235
ag67
(L323481600000000000L
NNtp236
Rp237
ag67
(L323568000000000000L
NNtp238
Rp239
ag67
(L323654400000000000L
NNtp240
Rp241
ag67
(L323740800000000000L
NNtp242
Rp243
ag67
(L323827200000000000L
NNtp244
Rp245
ag67
(L323913600000000000L
NNtp246
Rp247
ag67
(L324000000000000000L
NNtp248
Rp249
ag67
(L324086400000000000L
NNtp250
Rp251
ag67
(L324345600000000000L
NNtp252
Rp253
ag67
(L324432000000000000L
NNtp254
Rp255
ag67
(L324518400000000000L
NNtp256
Rp257
ag67
(L325209600000000000L
NNtp258
Rp259
ag67
(L325296000000000000L
NNtp260
Rp261
ag67
(L325814400000000000L
NNtp262
Rp263
ag67
(L342057600000000000L
NNtp264
Rp265
ag67
(L342230400000000000L
NNtp266
Rp267
ag67
(L342316800000000000L
NNtp268
Rp269
ag67
(L342576000000000000L
NNtp270
Rp271
ag67
(L342748800000000000L
NNtp272
Rp273
ag67
(L342835200000000000L
NNtp274
Rp275
ag67
(L342921600000000000L
NNtp276
Rp277
ag67
(L343094400000000000L
NNtp278
Rp279
ag67
(L343180800000000000L
NNtp280
Rp281
ag67
(L343267200000000000L
NNtp282
Rp283
ag67
(L343612800000000000L
NNtp284
Rp285
ag67
(L343872000000000000L
NNtp286
Rp287
ag67
(L343958400000000000L
NNtp288
Rp289
ag67
(L344044800000000000L
NNtp290
Rp291
ag67
(L344131200000000000L
NNtp292
Rp293
ag67
(L344476800000000000L
NNtp294
Rp295
ag67
(L344649600000000000L
NNtp296
Rp297
ag67
(L344736000000000000L
NNtp298
Rp299
ag67
(L344822400000000000L
NNtp300
Rp301
ag67
(L344908800000000000L
NNtp302
Rp303
ag67
(L345081600000000000L
NNtp304
Rp305
ag67
(L345340800000000000L
NNtp306
Rp307
as(g1
g19
tp308
(lp309
g67
(L328924800000000000L
NNtp310
Rp311
ag67
(L329270400000000000L
NNtp312
Rp313
ag67
(L329875200000000000L
NNtp314
Rp315
ag67
(L330307200000000000L
NNtp316
Rp317
ag67
(L330566400000000000L
NNtp318
Rp319
ag67
(L330825600000000000L
NNtp320
Rp321
ag67
(L331516800000000000L
NNtp322
Rp323
ag67
(L331776000000000000L
NNtp324
Rp325
ag67
(L332208000000000000L
NNtp326
Rp327
ag67
(L332294400000000000L
NNtp328
Rp329
ag67
(L332467200000000000L
NNtp330
Rp331
ag67
(L333417600000000000L
NNtp332
Rp333
ag67
(L333676800000000000L
NNtp334
Rp335
ag67
(L334022400000000000L
NNtp336
Rp337
ag67
(L334108800000000000L
NNtp338
Rp339
ag67
(L334627200000000000L
NNtp340
Rp341
ag67
(L334800000000000000L
NNtp342
Rp343
ag67
(L334972800000000000L
NNtp344
Rp345
ag67
(L335577600000000000L
NNtp346
Rp347
ag67
(L335664000000000000L
NNtp348
Rp349
ag67
(L335836800000000000L
NNtp350
Rp351
ag67
(L360374400000000000L
NNtp352
Rp353
ag67
(L361065600000000000L
NNtp354
Rp355
ag67
(L361324800000000000L
NNtp356
Rp357
ag67
(L361584000000000000L
NNtp358
Rp359
ag67
(L361670400000000000L
NNtp360
Rp361
ag67
(L362016000000000000L
NNtp362
Rp363
ag67
(L362448000000000000L
NNtp364
Rp365
ag67
(L362880000000000000L
NNtp366
Rp367
as(g1
g24
tp368
(lp369
g67
(L315792000000000000L
NNtp370
Rp371
ag67
(L316224000000000000L
NNtp372
Rp373
ag67
(L316310400000000000L
NNtp374
Rp375
ag67
(L316569600000000000L
NNtp376
Rp377
ag67
(L317001600000000000L
NNtp378
Rp379
ag67
(L317174400000000000L
NNtp380
Rp381
ag67
(L317347200000000000L
NNtp382
Rp383
ag67
(L317433600000000000L
NNtp384
Rp385
ag67
(L317520000000000000L
NNtp386
Rp387
ag67
(L317606400000000000L
NNtp388
Rp389
ag67
(L317952000000000000L
NNtp390
Rp391
ag67
(L318124800000000000L
NNtp392
Rp393
ag67
(L318211200000000000L
NNtp394
Rp395
ag67
(L318297600000000000L
NNtp396
Rp397
ag67
(L318556800000000000L
NNtp398
Rp399
ag67
(L318643200000000000L
NNtp400
Rp401
ag67
(L318902400000000000L
NNtp402
Rp403
ag67
(L319161600000000000L
NNtp404
Rp405
ag67
(L319248000000000000L
NNtp406
Rp407
ag67
(L319420800000000000L
NNtp408
Rp409
ag67
(L319507200000000000L
NNtp410
Rp411
ag67
(L319766400000000000L
NNtp412
Rp413
ag67
(L319852800000000000L
NNtp414
Rp415
ag67
(L319939200000000000L
NNtp416
Rp417
ag67
(L320025600000000000L
NNtp418
Rp419
ag67
(L320198400000000000L
NNtp420
Rp421
ag67
(L320284800000000000L
NNtp422
Rp423
ag67
(L320371200000000000L
NNtp424
Rp425
ag67
(L320457600000000000L
NNtp426
Rp427
ag67
(L320716800000000000L
NNtp428
Rp429
ag67
(L320889600000000000L
NNtp430
Rp431
ag67
(L320976000000000000L
NNtp432
Rp433
ag67
(L321062400000000000L
NNtp434
Rp435
ag67
(L321321600000000000L
NNtp436
Rp437
ag67
(L321408000000000000L
NNtp438
Rp439
ag67
(L321580800000000000L
NNtp440
Rp441
ag67
(L321840000000000000L
NNtp442
Rp443
ag67
(L322358400000000000L
NNtp444
Rp445
ag67
(L322444800000000000L
NNtp446
Rp447
ag67
(L322531200000000000L
NNtp448
Rp449
ag67
(L322704000000000000L
NNtp450
Rp451
ag67
(L323049600000000000L
NNtp452
Rp453
ag67
(L323222400000000000L
NNtp454
Rp455
ag67
(L323481600000000000L
NNtp456
Rp457
ag67
(L323568000000000000L
NNtp458
Rp459
ag67
(L323654400000000000L
NNtp460
Rp461
ag67
(L323913600000000000L
NNtp462
Rp463
ag67
(L324086400000000000L
NNtp464
Rp465
ag67
(L324432000000000000L
NNtp466
Rp467
ag67
(L324777600000000000L
NNtp468
Rp469
ag67
(L324950400000000000L
NNtp470
Rp471
ag67
(L325296000000000000L
NNtp472
Rp473
ag67
(L325382400000000000L
NNtp474
Rp475
ag67
(L325641600000000000L
NNtp476
Rp477
ag67
(L325814400000000000L
NNtp478
Rp479
ag67
(L326073600000000000L
NNtp480
Rp481
ag67
(L326160000000000000L
NNtp482
Rp483
ag67
(L326246400000000000L
NNtp484
Rp485
ag67
(L326332800000000000L
NNtp486
Rp487
ag67
(L326419200000000000L
NNtp488
Rp489
ag67
(L326592000000000000L
NNtp490
Rp491
ag67
(L326678400000000000L
NNtp492
Rp493
ag67
(L326764800000000000L
NNtp494
Rp495
ag67
(L326851200000000000L
NNtp496
Rp497
ag67
(L326937600000000000L
NNtp498
Rp499
ag67
(L327024000000000000L
NNtp500
Rp501
ag67
(L327110400000000000L
NNtp502
Rp503
ag67
(L327196800000000000L
NNtp504
Rp505
ag67
(L327456000000000000L
NNtp506
Rp507
ag67
(L327542400000000000L
NNtp508
Rp509
ag67
(L327715200000000000L
NNtp510
Rp511
ag67
(L327801600000000000L
NNtp512
Rp513
ag67
(L327888000000000000L
NNtp514
Rp515
ag67
(L328579200000000000L
NNtp516
Rp517
ag67
(L328665600000000000L
NNtp518
Rp519
ag67
(L329011200000000000L
NNtp520
Rp521
ag67
(L329184000000000000L
NNtp522
Rp523
ag67
(L329443200000000000L
NNtp524
Rp525
ag67
(L330048000000000000L
NNtp526
Rp527
ag67
(L330480000000000000L
NNtp528
Rp529
ag67
(L330566400000000000L
NNtp530
Rp531
ag67
(L330825600000000000L
NNtp532
Rp533
ag67
(L330998400000000000L
NNtp534
Rp535
ag67
(L331084800000000000L
NNtp536
Rp537
ag67
(L331344000000000000L
NNtp538
Rp539
ag67
(L331516800000000000L
NNtp540
Rp541
ag67
(L331603200000000000L
NNtp542
Rp543
ag67
(L332380800000000000L
NNtp544
Rp545
ag67
(L332467200000000000L
NNtp546
Rp547
ag67
(L332640000000000000L
NNtp548
Rp549
ag67
(L332726400000000000L
NNtp550
Rp551
ag67
(L332812800000000000L
NNtp552
Rp553
ag67
(L333158400000000000L
NNtp554
Rp555
ag67
(L333331200000000000L
NNtp556
Rp557
ag67
(L333590400000000000L
NNtp558
Rp559
ag67
(L333676800000000000L
NNtp560
Rp561
ag67
(L333763200000000000L
NNtp562
Rp563
ag67
(L333849600000000000L
NNtp564
Rp565
ag67
(L334195200000000000L
NNtp566
Rp567
ag67
(L334368000000000000L
NNtp568
Rp569
ag67
(L334454400000000000L
NNtp570
Rp571
ag67
(L334540800000000000L
NNtp572
Rp573
ag67
(L334627200000000000L
NNtp574
Rp575
ag67
(L334713600000000000L
NNtp576
Rp577
ag67
(L335145600000000000L
NNtp578
Rp579
ag67
(L335232000000000000L
NNtp580
Rp581
ag67
(L335836800000000000L
NNtp582
Rp583
ag67
(L335923200000000000L
NNtp584
Rp585
ag67
(L336009600000000000L
NNtp586
Rp587
as(g1
g29
tp588
(lp589
g67
(L320976000000000000L
NNtp590
Rp591
ag67
(L321062400000000000L
NNtp592
Rp593
ag67
(L321148800000000000L
NNtp594
Rp595
ag67
(L321494400000000000L
NNtp596
Rp597
ag67
(L321840000000000000L
NNtp598
Rp599
ag67
(L321926400000000000L
NNtp600
Rp601
ag67
(L322185600000000000L
NNtp602
Rp603
ag67
(L322444800000000000L
NNtp604
Rp605
ag67
(L322617600000000000L
NNtp606
Rp607
ag67
(L322876800000000000L
NNtp608
Rp609
ag67
(L323136000000000000L
NNtp610
Rp611
ag67
(L323395200000000000L
NNtp612
Rp613
ag67
(L324000000000000000L
NNtp614
Rp615
ag67
(L324172800000000000L
NNtp616
Rp617
ag67
(L324259200000000000L
NNtp618
Rp619
ag67
(L324518400000000000L
NNtp620
Rp621
ag67
(L324604800000000000L
NNtp622
Rp623
ag67
(L324864000000000000L
NNtp624
Rp625
ag67
(L325036800000000000L
NNtp626
Rp627
ag67
(L325382400000000000L
NNtp628
Rp629
ag67
(L325468800000000000L
NNtp630
Rp631
ag67
(L325555200000000000L
NNtp632
Rp633
ag67
(L325728000000000000L
NNtp634
Rp635
ag67
(L325814400000000000L
NNtp636
Rp637
ag67
(L326419200000000000L
NNtp638
Rp639
ag67
(L326505600000000000L
NNtp640
Rp641
ag67
(L326592000000000000L
NNtp642
Rp643
ag67
(L326764800000000000L
NNtp644
Rp645
ag67
(L326851200000000000L
NNtp646
Rp647
ag67
(L326937600000000000L
NNtp648
Rp649
as(g1
g34
tp650
(lp651
g67
(L315792000000000000L
NNtp652
Rp653
ag67
(L316137600000000000L
NNtp654
Rp655
ag67
(L316224000000000000L
NNtp656
Rp657
ag67
(L316310400000000000L
NNtp658
Rp659
ag67
(L316483200000000000L
NNtp660
Rp661
ag67
(L316569600000000000L
NNtp662
Rp663
ag67
(L316656000000000000L
NNtp664
Rp665
ag67
(L316915200000000000L
NNtp666
Rp667
ag67
(L317001600000000000L
NNtp668
Rp669
ag67
(L317088000000000000L
NNtp670
Rp671
ag67
(L317260800000000000L
NNtp672
Rp673
ag67
(L317347200000000000L
NNtp674
Rp675
ag67
(L317433600000000000L
NNtp676
Rp677
ag67
(L317520000000000000L
NNtp678
Rp679
ag67
(L317779200000000000L
NNtp680
Rp681
ag67
(L317865600000000000L
NNtp682
Rp683
ag67
(L317952000000000000L
NNtp684
Rp685
ag67
(L318038400000000000L
NNtp686
Rp687
ag67
(L318297600000000000L
NNtp688
Rp689
ag67
(L318384000000000000L
NNtp690
Rp691
ag67
(L318556800000000000L
NNtp692
Rp693
ag67
(L318729600000000000L
NNtp694
Rp695
ag67
(L318816000000000000L
NNtp696
Rp697
ag67
(L318902400000000000L
NNtp698
Rp699
ag67
(L319075200000000000L
NNtp700
Rp701
ag67
(L319248000000000000L
NNtp702
Rp703
ag67
(L319420800000000000L
NNtp704
Rp705
ag67
(L319766400000000000L
NNtp706
Rp707
ag67
(L319852800000000000L
NNtp708
Rp709
ag67
(L320112000000000000L
NNtp710
Rp711
ag67
(L320198400000000000L
NNtp712
Rp713
ag67
(L320284800000000000L
NNtp714
Rp715
ag67
(L320371200000000000L
NNtp716
Rp717
ag67
(L320457600000000000L
NNtp718
Rp719
ag67
(L320544000000000000L
NNtp720
Rp721
ag67
(L320630400000000000L
NNtp722
Rp723
ag67
(L344476800000000000L
NNtp724
Rp725
ag67
(L344563200000000000L
NNtp726
Rp727
ag67
(L344649600000000000L
NNtp728
Rp729
ag67
(L344736000000000000L
NNtp730
Rp731
ag67
(L344822400000000000L
NNtp732
Rp733
ag67
(L344908800000000000L
NNtp734
Rp735
ag67
(L345513600000000000L
NNtp736
Rp737
ag67
(L345600000000000000L
NNtp738
Rp739
ag67
(L345859200000000000L
NNtp740
Rp741
ag67
(L346032000000000000L
NNtp742
Rp743
ag67
(L346204800000000000L
NNtp744
Rp745
ag67
(L346291200000000000L
NNtp746
Rp747
ag67
(L346377600000000000L
NNtp748
Rp749
ag67
(L346723200000000000L
NNtp750
Rp751
ag67
(L346982400000000000L
NNtp752
Rp753
ag67
(L347068800000000000L
NNtp754
Rp755
ag67
(L347155200000000000L
NNtp756
Rp757
ag67
(L347587200000000000L
NNtp758
Rp759
ag67
(L347846400000000000L
NNtp760
Rp761
as(dp762
(g1
g2
tp763
g4
(g8
S'N\x91\xe6\xe2Z\xbe\x06@'
p764
tp765
Rp766
s(g1
g14
tp767
g4
(g8
S'\xe4\xba$\xbe\xb94\xfe?'
p768
tp769
Rp770
s(g1
g19
tp771
g4
(g8
S'\x17P\xf7O\xb7\x8c\x03@'
p772
tp773
Rp774
s(g1
g24
tp775
g4
(g8
S'[\r\xc7BDJ\x02@'
p776
tp777
Rp778
s(g1
g29
tp779
g4
(g8
S'\x18X\xecT\xc9_\x00@'
p780
tp781
Rp782
s(g1
g34
tp783
g4
(g8
S'L\x1e\xf1g\xaa\x03\xfb?'
p784
tp785
Rp786
s(dp787
(g1
g2
tp788
g4
(g8
S'\xfbzg\xe48\xef\xf5?'
p789
tp790
Rp791
s(g1
g14
tp792
g4
(g8
S'\x08(\xb9\xbfnY\x15@'
p793
tp794
Rp795
s(g1
g19
tp796
g4
(g8
S'\x8d\xda\xb3\\\x03u\xef?'
p797
tp798
Rp799
s(g1
g24
tp800
g4
(g8
S'\xa3fZ\x179\x8c\x12@'
p801
tp802
Rp803
s(g1
g29
tp804
g4
(g8
S'j?\xa6T\xa9a\t@'
p805
tp806
Rp807
s(g1
g34
tp808
g4
(g8
S'sO\xde?5\x99(@'
p809
tp810
Rp811
s(dp812
(g1
g2
tp813
F0.005407102357828104
s(g1
g14
tp814
F0.024565663807346576
s(g1
g19
tp815
F0.004721172480619355
s(g1
g24
tp816
F0.01452567417549131
s(g1
g29
tp817
F0.016873441984607433
s(g1
g34
tp818
F0.031320018699515076
s(dp819
(g1
g2
tp820
g4
(g8
S'\x07uP\x07uP2@'
p821
tp822
Rp823
s(g1
g14
tp824
g4
(g8
S'\x82\xbdcj`\xef-@'
p825
tp826
Rp827
s(g1
g19
tp828
g4
(g8
S'gy\x12\x99\x86\xed"@'
p829
tp830
Rp831
s(g1
g24
tp832
g4
(g8
S'\x8e\xf6U\x0b\xcc\xd8B@'
p833
tp834
Rp835
s(g1
g29
tp836
g4
(g8
S'"""""\xa23@'
p837
tp838
Rp839
s(g1
g34
tp840
g4
(g8
S'\xa5O\xfa\xa4O\xfa&@'
p841
tp842
Rp843
s(dp844
(g1
g2
tp845
g4
(g8
S'&/\x82\xd6\x8f\xc5\xb1?'
p846
tp847
Rp848
s(g1
g14
tp849
g4
(g8
S'\x97T\x08H\xee?\xe1?'
p850
tp851
Rp852
s(g1
g19
tp853
g4
(g8
S'4BE\xee\xd0\x95\xaa?'
p854
tp855
Rp856
s(g1
g24
tp857
g4
(g8
S'|\xf9\xb5\xcb1\xb7\xdc?'
p858
tp859
Rp860
s(g1
g29
tp861
g4
(g8
S'\xfbp\x9b\x9c\x05j\xdc?'
p862
tp863
Rp864
s(g1
g34
tp865
g4
(g8
S'\xff\x9dIiL\xa6\xe0?'
p866
tp867
Rp868
s(dp869
(g1
g2
tp870
g4
(g8
S'\x1bn\x0f\xbb\xc0\x89\xf7?'
p871
tp872
Rp873
s(g1
g14
tp874
g4
(g8
S'\xa36B\xcd\x05\x18\x1b@'
p875
tp876
Rp877
s(g1
g19
tp878
g4
(g8
S'\x1f7`\x8c\xce\x8f\xec?'
p879
tp880
Rp881
s(g1
g24
tp882
g4
(g8
S'\x0e\xdf\xf1s5\xc9\x0f@'
p883
tp884
Rp885
s(g1
g29
tp886
g4
(g8
S'V\x01\t\x04\x0b\xae\x07@'
p887
tp888
Rp889
s(g1
g34
tp890
g4
(g8
S'\xbfQ\x84lF\xa27@'
p891
tp892
Rp893
s(dp894
(g1
g2
tp895
g4
(g8
S'\x8b0\x17\x8b\xd22\xaa?'
p896
tp897
Rp898
s(g1
g14
tp899
g4
(g8
S'\xf8\xe9\x1e\xaf\x97\xed\xaa?'
p900
tp901
Rp902
s(g1
g19
tp903
g4
(g8
S'\xa3=}\xde\xae\xfe\xa3?'
p904
tp905
Rp906
s(g1
g24
tp907
g4
(g8
S'\x8d\xb7\x18<\xaf\xe5\x9a?'
p908
tp909
Rp910
s(g1
g29
tp911
g4
(g8
S'\x82\x97\xe4\xac\x9f\xca\xa6?'
p912
tp913
Rp914
s(g1
g34
tp915
g4
(g8
S'\xa1\x90\n\x9a\x945\xcd?'
p916
tp917
Rp918
s(dp919
(g1
g2
tp920
F0.08275358634054578
s(g1
g14
tp921
F0.09646920022559775
s(g1
g19
tp922
F0.03680935153489621
s(g1
g24
tp923
F0.04098107051281276
s(g1
g29
tp924
F0.06826360359920558
s(g1
g34
tp925
F0.3106460291976784
s(dp926
(g1
g2
tp927
g4
(g8
S'O\xbbd\x8b\xc8\x1e\x98?'
p928
tp929
Rp930
s(g1
g14
tp931
F0.074026415566513
s(g1
g19
tp932
g4
(g8
S'\xbf@\x7f@,T\x8c?'
p933
tp934
Rp935
s(g1
g24
tp936
g4
(g8
S'b)\x98?\xc1\x88\xa3?'
p937
tp938
Rp939
s(g1
g29
tp940
g4
(g8
S'.=\xddd\xabX\xa8?'
p941
tp942
Rp943
s(g1
g34
tp944
F0.16635364281867712
s(dp945
(dp946
(dp947
(g1
g2
tp948
(lp949
g4
(g8
S'\xdb*\xc7 \x11\xe2\xd6?'
p950
tp951
Rp952
ag4
(g8
S'o\x05\xdad^>\xbb?'
p953
tp954
Rp955
ag4
(g8
S'\x8b{OP+\x1eG@'
p956
tp957
Rp958
ag4
(g8
S'\xfcE\xe6\x01\xf4\x94\xda?'
p959
tp960
Rp961
ag4
(g8
S'=d\x8e\x8b\xe1\xcd\xc1?'
p962
tp963
Rp964
ag4
(g8
S'QRkZ^\x17\xd4?'
p965
tp966
Rp967
as(g1
g14
tp968
(lp969
g4
(g8
S'\x9f\xbb(\xce\xa4\xe8\x06@'
p970
tp971
Rp972
ag4
(g8
S'?\x16<\xbf\xc0r\xcb?'
p973
tp974
Rp975
ag4
(g8
S'\x0c;\x82\xb4=!\xc2?'
p976
tp977
Rp978
ag4
(g8
S'\xf24p\xab\xa4\x14\x05@'
p979
tp980
Rp981
ag4
(g8
S'}\x96\xde\x03\xec\x8eZ@'
p982
tp983
Rp984
ag4
(g8
S'\x1f\xba\xc2\xd5\\\xf6&@'
p985
tp986
Rp987
ag4
(g8
S'\xa8J\x99\xcex\xa0\xe7?'
p988
tp989
Rp990
ag4
(g8
S'\xcf\xc8e0\x06\x1e\x01@'
p991
tp992
Rp993
ag4
(g8
S'\x83\xde\xcb\xfe\x97\xa0\xdc?'
p994
tp995
Rp996
ag4
(g8
S'\x1c(\x8d\x9f\x8c`\xe2?'
p997
tp998
Rp999
ag4
(g8
S"\x0fI\xc6\xf7-'\x05@"
p1000
tp1001
Rp1002
ag4
(g8
S'V\xfd\xb7\x04\t:\x03@'
p1003
tp1004
Rp1005
ag4
(g8
S'\xf11\xad\xb4!\xb5\xea?'
p1006
tp1007
Rp1008
ag4
(g8
S'M\xcc \x81\x10W\xe3?'
p1009
tp1010
Rp1011
ag4
(g8
S'"x \xe0\xc7|\xed?'
p1012
tp1013
Rp1014
ag4
(g8
S'\xfd`\xc4\rS\xcak@'
p1015
tp1016
Rp1017
ag4
(g8
S'\xfc\xae\x9dU\x86w\x12@'
p1018
tp1019
Rp1020
ag4
(g8
S'\xe7\xa7\xb5\xbd\x93\x8c6@'
p1021
tp1022
Rp1023
ag4
(g8
S'\xfb\x16U\x06\xc9\x9d\xf3?'
p1024
tp1025
Rp1026
ag4
(g8
S'Po\xdf\xda\tu&@'
p1027
tp1028
Rp1029
ag4
(g8
S'D\xfa=\x80\xb3\x0e\n@'
p1030
tp1031
Rp1032
ag4
(g8
S'\x81\xe3R\tBD\xdd?'
p1033
tp1034
Rp1035
ag4
(g8
S'\x17K\xb0e\xd4\x1b\x10@'
p1036
tp1037
Rp1038
ag4
(g8
S'7\x8f\xc3y3\x9c\xdb?'
p1039
tp1040
Rp1041
ag4
(g8
S'm\xeb\xaaV\x87\x00\xa1?'
p1042
tp1043
Rp1044
ag4
(g8
S'\xd3\xe3_L\xc4\xd6\x0c@'
p1045
tp1046
Rp1047
ag4
(g8
S'\xf4\x8a\x03\xaci\xd1\xe7?'
p1048
tp1049
Rp1050
ag4
(g8
S'\xaf\xba;U)\xb1\xf2?'
p1051
tp1052
Rp1053
ag4
(g8
S'\xfd\x91\xbe\xbe\x9c\xa9\x10@'
p1054
tp1055
Rp1056
ag4
(g8
S'\xaa\xc0\x0b\xad\xbc\xbc\xe2?'
p1057
tp1058
Rp1059
ag4
(g8
S'\xa2\x06\xef\xf9\xa6\x93\xe5?'
p1060
tp1061
Rp1062
ag4
(g8
S'\x8fN\x1d\xe2!X2@'
p1063
tp1064
Rp1065
ag4
(g8
S' \xaeu\x90\xa9\x87\t@'
p1066
tp1067
Rp1068
ag4
(g8
S'I\xe5\xa7\x80E\xaa2@'
p1069
tp1070
Rp1071
ag4
(g8
S'\x8b{OP+\x1eG@'
p1072
tp1073
Rp1074
ag4
(g8
S'o\xe1\xec\x0f\xd9\x07\xf7?'
p1075
tp1076
Rp1077
ag4
(g8
S'[]\x8d2\x10\xfd\xe2?'
p1078
tp1079
Rp1080
ag4
(g8
S'q\xd9\x87AE\x82\x02@'
p1081
tp1082
Rp1083
ag4
(g8
S'\xd8d/\x17\x97I\t@'
p1084
tp1085
Rp1086
ag4
(g8
S'\xa9l\xb8\x13b\x14\x14@'
p1087
tp1088
Rp1089
ag4
(g8
S'\xb2\xe1\xff\x18\xaf\xe3\xfe?'
p1090
tp1091
Rp1092
ag4
(g8
S'\xd9\xcd\xd14\x96g\x00@'
p1093
tp1094
Rp1095
ag4
(g8
S'\xbe@\xf8\xe0\xae%\xe1?'
p1096
tp1097
Rp1098
ag4
(g8
S'\xdd\xdd~D\xee\xb9\xe3?'
p1099
tp1100
Rp1101
ag4
(g8
S'\xd08k\xf0\xe3\xe4\xfa?'
p1102
tp1103
Rp1104
ag4
(g8
S'QP\x1eM\x03U\x0b@'
p1105
tp1106
Rp1107
ag4
(g8
S'\x95\x7fa\x93\\\xb5\xff?'
p1108
tp1109
Rp1110
ag4
(g8
S'\xaa\xaf\xcaD\xc3\xe5(@'
p1111
tp1112
Rp1113
ag4
(g8
S'\x04S\xa3\x1e\xd4\t\xda?'
p1114
tp1115
Rp1116
ag4
(g8
S'/V\xd2s\t\xe2\xd9?'
p1117
tp1118
Rp1119
ag4
(g8
S'\xc5\x8bG\xa9\xaa\xc3\xf7?'
p1120
tp1121
Rp1122
ag4
(g8
S'\x9eXP\x82d\xaa\x0c@'
p1123
tp1124
Rp1125
ag4
(g8
S'F?h\x9f\xa2s\xf9?'
p1126
tp1127
Rp1128
ag4
(g8
S'-<\xf2\xe4\x18\xb8\xf8?'
p1129
tp1130
Rp1131
ag4
(g8
S'\xae\xd9\x91A\xa3%\x07@'
p1132
tp1133
Rp1134
ag4
(g8
S'y>\x19\xd3Q\x1c\x05@'
p1135
tp1136
Rp1137
ag4
(g8
S'\xef\xe2\xf0\x1f7\x19\xde?'
p1138
tp1139
Rp1140
ag4
(g8
S'\x12i3y#\xff\x1b@'
p1141
tp1142
Rp1143
ag4
(g8
S'_z\x81\x0b\x1e\xf4\x98?'
p1144
tp1145
Rp1146
ag4
(g8
S'\xe6E\xe5\\#\xe26@'
p1147
tp1148
Rp1149
ag4
(g8
S'\xf7z\xd04\x1e\x96\xc8?'
p1150
tp1151
Rp1152
ag4
(g8
S'>~\xe4\xfb\xb3B\xeb?'
p1153
tp1154
Rp1155
ag4
(g8
S'"\xfcI\xe1;\xe5\xf3?'
p1156
tp1157
Rp1158
ag4
(g8
S'\xc5\xf2c0\xe2\x87\xd6?'
p1159
tp1160
Rp1161
as(g1
g19
tp1162
(lp1163
g4
(g8
S'\xd2eJ}\x88\x92\xd2?'
p1164
tp1165
Rp1166
ag4
(g8
S'\xa8\xbe\xe8\xae]\xc8\xff?'
p1167
tp1168
Rp1169
ag4
(g8
S'\xd3\x91\xc9K4\x8cw?'
p1170
tp1171
Rp1172
ag4
(g8
S'\xd9\xfb%MhM\xe1?'
p1173
tp1174
Rp1175
ag4
(g8
S'\xbd\x00Xd\x9d\xde\xc7?'
p1176
tp1177
Rp1178
as(g1
g24
tp1179
(lp1180
g4
(g8
S'\x9f\xbb(\xce\xa4\xe8\x06@'
p1181
tp1182
Rp1183
ag4
(g8
S'?\x16<\xbf\xc0r\xcb?'
p1184
tp1185
Rp1186
ag4
(g8
S'\x0c;\x82\xb4=!\xc2?'
p1187
tp1188
Rp1189
ag4
(g8
S'\xd2eJ}\x88\x92\xd2?'
p1190
tp1191
Rp1192
ag4
(g8
S'\xf24p\xab\xa4\x14\x05@'
p1193
tp1194
Rp1195
ag4
(g8
S'}\x96\xde\x03\xec\x8eZ@'
p1196
tp1197
Rp1198
ag4
(g8
S'\x1f\xba\xc2\xd5\\\xf6&@'
p1199
tp1200
Rp1201
ag4
(g8
S'\xa8J\x99\xcex\xa0\xe7?'
p1202
tp1203
Rp1204
ag4
(g8
S'\xcf\xc8e0\x06\x1e\x01@'
p1205
tp1206
Rp1207
ag4
(g8
S'\x83\xde\xcb\xfe\x97\xa0\xdc?'
p1208
tp1209
Rp1210
ag4
(g8
S'\x1c(\x8d\x9f\x8c`\xe2?'
p1211
tp1212
Rp1213
ag4
(g8
S"\x0fI\xc6\xf7-'\x05@"
p1214
tp1215
Rp1216
ag4
(g8
S'\xdb*\xc7 \x11\xe2\xd6?'
p1217
tp1218
Rp1219
ag4
(g8
S'V\xfd\xb7\x04\t:\x03@'
p1220
tp1221
Rp1222
ag4
(g8
S'\xf11\xad\xb4!\xb5\xea?'
p1223
tp1224
Rp1225
ag4
(g8
S'o\x05\xdad^>\xbb?'
p1226
tp1227
Rp1228
ag4
(g8
S'M\xcc \x81\x10W\xe3?'
p1229
tp1230
Rp1231
ag4
(g8
S'"x \xe0\xc7|\xed?'
p1232
tp1233
Rp1234
ag4
(g8
S'\xfd`\xc4\rS\xcak@'
p1235
tp1236
Rp1237
ag4
(g8
S'\xfc\xae\x9dU\x86w\x12@'
p1238
tp1239
Rp1240
ag4
(g8
S'\xe7\xa7\xb5\xbd\x93\x8c6@'
p1241
tp1242
Rp1243
ag4
(g8
S'\xfb\x16U\x06\xc9\x9d\xf3?'
p1244
tp1245
Rp1246
ag4
(g8
S'Po\xdf\xda\tu&@'
p1247
tp1248
Rp1249
ag4
(g8
S'D\xfa=\x80\xb3\x0e\n@'
p1250
tp1251
Rp1252
ag4
(g8
S'\x81\xe3R\tBD\xdd?'
p1253
tp1254
Rp1255
ag4
(g8
S'\x17K\xb0e\xd4\x1b\x10@'
p1256
tp1257
Rp1258
ag4
(g8
S'\xe2\x8b\xa1\xdf\xd5\x9e\xf2?'
p1259
tp1260
Rp1261
ag4
(g8
S'7\x8f\xc3y3\x9c\xdb?'
p1262
tp1263
Rp1264
ag4
(g8
S'm\xeb\xaaV\x87\x00\xa1?'
p1265
tp1266
Rp1267
ag4
(g8
S'\xd3\xe3_L\xc4\xd6\x0c@'
p1268
tp1269
Rp1270
ag4
(g8
S'\xf4\x8a\x03\xaci\xd1\xe7?'
p1271
tp1272
Rp1273
ag4
(g8
S'\xaf\xba;U)\xb1\xf2?'
p1274
tp1275
Rp1276
ag4
(g8
S'\xfd\x91\xbe\xbe\x9c\xa9\x10@'
p1277
tp1278
Rp1279
ag4
(g8
S'\x1f\xac8\x0f*-\xe3?'
p1280
tp1281
Rp1282
ag4
(g8
S'\xaa\xc0\x0b\xad\xbc\xbc\xe2?'
p1283
tp1284
Rp1285
ag4
(g8
S'\xa2\x06\xef\xf9\xa6\x93\xe5?'
p1286
tp1287
Rp1288
ag4
(g8
S'\x8fN\x1d\xe2!X2@'
p1289
tp1290
Rp1291
ag4
(g8
S' \xaeu\x90\xa9\x87\t@'
p1292
tp1293
Rp1294
ag4
(g8
S'I\xe5\xa7\x80E\xaa2@'
p1295
tp1296
Rp1297
ag4
(g8
S'\x8b{OP+\x1eG@'
p1298
tp1299
Rp1300
ag4
(g8
S'o\xe1\xec\x0f\xd9\x07\xf7?'
p1301
tp1302
Rp1303
ag4
(g8
S'[]\x8d2\x10\xfd\xe2?'
p1304
tp1305
Rp1306
ag4
(g8
S'q\xd9\x87AE\x82\x02@'
p1307
tp1308
Rp1309
ag4
(g8
S'\xd8d/\x17\x97I\t@'
p1310
tp1311
Rp1312
ag4
(g8
S'\xa9l\xb8\x13b\x14\x14@'
p1313
tp1314
Rp1315
ag4
(g8
S'\xb2\xe1\xff\x18\xaf\xe3\xfe?'
p1316
tp1317
Rp1318
ag4
(g8
S'\xd9\xcd\xd14\x96g\x00@'
p1319
tp1320
Rp1321
ag4
(g8
S'\xbe@\xf8\xe0\xae%\xe1?'
p1322
tp1323
Rp1324
ag4
(g8
S'\xdd\xdd~D\xee\xb9\xe3?'
p1325
tp1326
Rp1327
ag4
(g8
S'\xd08k\xf0\xe3\xe4\xfa?'
p1328
tp1329
Rp1330
ag4
(g8
S'QP\x1eM\x03U\x0b@'
p1331
tp1332
Rp1333
ag4
(g8
S'\x95\x7fa\x93\\\xb5\xff?'
p1334
tp1335
Rp1336
ag4
(g8
S'\xaa\xaf\xcaD\xc3\xe5(@'
p1337
tp1338
Rp1339
ag4
(g8
S'\x04S\xa3\x1e\xd4\t\xda?'
p1340
tp1341
Rp1342
ag4
(g8
S'/V\xd2s\t\xe2\xd9?'
p1343
tp1344
Rp1345
ag4
(g8
S'\xc5\x8bG\xa9\xaa\xc3\xf7?'
p1346
tp1347
Rp1348
ag4
(g8
S'\x9eXP\x82d\xaa\x0c@'
p1349
tp1350
Rp1351
ag4
(g8
S'F?h\x9f\xa2s\xf9?'
p1352
tp1353
Rp1354
ag4
(g8
S'-<\xf2\xe4\x18\xb8\xf8?'
p1355
tp1356
Rp1357
ag4
(g8
S'\xae\xd9\x91A\xa3%\x07@'
p1358
tp1359
Rp1360
ag4
(g8
S'y>\x19\xd3Q\x1c\x05@'
p1361
tp1362
Rp1363
ag4
(g8
S'\xef\xe2\xf0\x1f7\x19\xde?'
p1364
tp1365
Rp1366
ag4
(g8
S'\x12i3y#\xff\x1b@'
p1367
tp1368
Rp1369
ag4
(g8
S'_z\x81\x0b\x1e\xf4\x98?'
p1370
tp1371
Rp1372
ag4
(g8
S'\xe6E\xe5\\#\xe26@'
p1373
tp1374
Rp1375
ag4
(g8
S'\xf7z\xd04\x1e\x96\xc8?'
p1376
tp1377
Rp1378
ag4
(g8
S'>~\xe4\xfb\xb3B\xeb?'
p1379
tp1380
Rp1381
ag4
(g8
S'"\xfcI\xe1;\xe5\xf3?'
p1382
tp1383
Rp1384
ag4
(g8
S'\xc5\xf2c0\xe2\x87\xd6?'
p1385
tp1386
Rp1387
ag4
(g8
S'Bc\x86\xf7qu\xe1?'
p1388
tp1389
Rp1390
as(g1
g29
tp1391
(lp1392
g4
(g8
S'?\x16<\xbf\xc0r\xcb?'
p1393
tp1394
Rp1395
ag4
(g8
S'\x0c;\x82\xb4=!\xc2?'
p1396
tp1397
Rp1398
ag4
(g8
S'\xe4\x13\x08\x81\x8e\xa5\xad@'
p1399
tp1400
Rp1401
ag4
(g8
S'\xf7\x18C\x08\x83\x90\x13@'
p1402
tp1403
Rp1404
ag4
(g8
S'[\x7f#N\x83\x8f.@'
p1405
tp1406
Rp1407
ag4
(g8
S'\x1c(\x8d\x9f\x8c`\xe2?'
p1408
tp1409
Rp1410
ag4
(g8
S"\x0fI\xc6\xf7-'\x05@"
p1411
tp1412
Rp1413
ag4
(g8
S'\x0c6g!\xe3\xa6\xfc?'
p1414
tp1415
Rp1416
ag4
(g8
S'\xfb\x16U\x06\xc9\x9d\xf3?'
p1417
tp1418
Rp1419
ag4
(g8
S'\x81\xe3R\tBD\xdd?'
p1420
tp1421
Rp1422
ag4
(g8
S'\xc3\x0e~4\x18H\xc0?'
p1423
tp1424
Rp1425
ag4
(g8
S'\xf4\x8a\x03\xaci\xd1\xe7?'
p1426
tp1427
Rp1428
ag4
(g8
S'\xfd\x91\xbe\xbe\x9c\xa9\x10@'
p1429
tp1430
Rp1431
ag4
(g8
S'%\x02\xea\xb3T\xac\x05@'
p1432
tp1433
Rp1434
ag4
(g8
S'I\xe5\xa7\x80E\xaa2@'
p1435
tp1436
Rp1437
ag4
(g8
S'\xd8d/\x17\x97I\t@'
p1438
tp1439
Rp1440
ag4
(g8
S'-\xb9Xq\xfd\xae\xeb?'
p1441
tp1442
Rp1443
ag4
(g8
S'QP\x1eM\x03U\x0b@'
p1444
tp1445
Rp1446
ag4
(g8
S'=}v\xe9I\n\xe9?'
p1447
tp1448
Rp1449
ag4
(g8
S'\xaa\xaf\xcaD\xc3\xe5(@'
p1450
tp1451
Rp1452
ag4
(g8
S'\xcd\x89\xf0fd\xae\x12@'
p1453
tp1454
Rp1455
ag4
(g8
S'\x04S\xa3\x1e\xd4\t\xda?'
p1456
tp1457
Rp1458
ag4
(g8
S'\x9eXP\x82d\xaa\x0c@'
p1459
tp1460
Rp1461
ag4
(g8
S'\xc6cD\x05<K\xf8?'
p1462
tp1463
Rp1464
ag4
(g8
S'\xe6E\xe5\\#\xe26@'
p1465
tp1466
Rp1467
ag4
(g8
S'\xf7z\xd04\x1e\x96\xc8?'
p1468
tp1469
Rp1470
ag4
(g8
S'>~\xe4\xfb\xb3B\xeb?'
p1471
tp1472
Rp1473
as(g1
g34
tp1474
(lp1475
g4
(g8
S'\x9f\xbb(\xce\xa4\xe8\x06@'
p1476
tp1477
Rp1478
ag4
(g8
S'\xf24p\xab\xa4\x14\x05@'
p1479
tp1480
Rp1481
ag4
(g8
S'\x1f\xba\xc2\xd5\\\xf6&@'
p1482
tp1483
Rp1484
ag4
(g8
S'\xa8J\x99\xcex\xa0\xe7?'
p1485
tp1486
Rp1487
ag4
(g8
S'\xcf\xc8e0\x06\x1e\x01@'
p1488
tp1489
Rp1490
ag4
(g8
S'\x83\xde\xcb\xfe\x97\xa0\xdc?'
p1491
tp1492
Rp1493
ag4
(g8
S'V\xfd\xb7\x04\t:\x03@'
p1494
tp1495
Rp1496
ag4
(g8
S'\xf11\xad\xb4!\xb5\xea?'
p1497
tp1498
Rp1499
ag4
(g8
S'M\xcc \x81\x10W\xe3?'
p1500
tp1501
Rp1502
ag4
(g8
S'"x \xe0\xc7|\xed?'
p1503
tp1504
Rp1505
ag4
(g8
S'\xfd`\xc4\rS\xcak@'
p1506
tp1507
Rp1508
ag4
(g8
S'\xfc\xae\x9dU\x86w\x12@'
p1509
tp1510
Rp1511
ag4
(g8
S'[\x1e\x8d\xe5\x84\xf1"@'
p1512
tp1513
Rp1514
ag4
(g8
S'\xdfz\x7f\xd03J\t@'
p1515
tp1516
Rp1517
ag4
(g8
S'\x17K\xb0e\xd4\x1b\x10@'
p1518
tp1519
Rp1520
ag4
(g8
S'7\x8f\xc3y3\x9c\xdb?'
p1521
tp1522
Rp1523
ag4
(g8
S'm\xeb\xaaV\x87\x00\xa1?'
p1524
tp1525
Rp1526
ag4
(g8
S'\xd3\xe3_L\xc4\xd6\x0c@'
p1527
tp1528
Rp1529
ag4
(g8
S'\xd9\xb6\xab\xfa\tj\xf2?'
p1530
tp1531
Rp1532
ag4
(g8
S'\xaa\xc0\x0b\xad\xbc\xbc\xe2?'
p1533
tp1534
Rp1535
ag4
(g8
S'\xa2\x06\xef\xf9\xa6\x93\xe5?'
p1536
tp1537
Rp1538
ag4
(g8
S'\x8fN\x1d\xe2!X2@'
p1539
tp1540
Rp1541
ag4
(g8
S' \xaeu\x90\xa9\x87\t@'
p1542
tp1543
Rp1544
ag4
(g8
S'[]\x8d2\x10\xfd\xe2?'
p1545
tp1546
Rp1547
ag4
(g8
S'q\xd9\x87AE\x82\x02@'
p1548
tp1549
Rp1550
ag4
(g8
S'\xa9l\xb8\x13b\x14\x14@'
p1551
tp1552
Rp1553
ag4
(g8
S'\xb2\xe1\xff\x18\xaf\xe3\xfe?'
p1554
tp1555
Rp1556
ag4
(g8
S'\xd9\xcd\xd14\x96g\x00@'
p1557
tp1558
Rp1559
ag4
(g8
S'\xbe@\xf8\xe0\xae%\xe1?'
p1560
tp1561
Rp1562
ag4
(g8
S'\xdd\xdd~D\xee\xb9\xe3?'
p1563
tp1564
Rp1565
ag4
(g8
S'\xd08k\xf0\xe3\xe4\xfa?'
p1566
tp1567
Rp1568
ag4
(g8
S'\x95\x7fa\x93\\\xb5\xff?'
p1569
tp1570
Rp1571
ag4
(g8
S'/V\xd2s\t\xe2\xd9?'
p1572
tp1573
Rp1574
ag4
(g8
S'\xc5\x8bG\xa9\xaa\xc3\xf7?'
p1575
tp1576
Rp1577
ag4
(g8
S'F?h\x9f\xa2s\xf9?'
p1578
tp1579
Rp1580
ag4
(g8
S'-<\xf2\xe4\x18\xb8\xf8?'
p1581
tp1582
Rp1583
ag4
(g8
S'\xae\xd9\x91A\xa3%\x07@'
p1584
tp1585
Rp1586
ag4
(g8
S'\x10ZD\xdb\x88)\x01@'
p1587
tp1588
Rp1589
ag4
(g8
S'\xef\xe2\xf0\x1f7\x19\xde?'
p1590
tp1591
Rp1592
ag4
(g8
S'_z\x81\x0b\x1e\xf4\x98?'
p1593
tp1594
Rp1595
as(dp1596
(g1
g2
tp1597
(lp1598
g4
(g8
S'\x00\t\x84\r\xd2=\xe5?'
p1599
tp1600
Rp1601
ag4
(g8
S'UZ\xdcK\x995\xdf?'
p1602
tp1603
Rp1604
ag4
(g8
S'1\xc1\x88G\xce\xcc\x08@'
p1605
tp1606
Rp1607
ag4
(g8
S'#\xbdT\xf8H\xb6\xed?'
p1608
tp1609
Rp1610
ag4
(g8
S'\xc1"\x9d{\xa8\xb7\xef?'
p1611
tp1612
Rp1613
ag4
(g8
S'>\xf3\xf5\xf9\xa4\xa4\xeb?'
p1614
tp1615
Rp1616
as(g1
g14
tp1617
(lp1618
g4
(g8
S'\xd1\\jH\xf8!\x00@'
p1619
tp1620
Rp1621
ag4
(g8
S'\xd9a\x1f?\xf9\x1f\xec?'
p1622
tp1623
Rp1624
ag4
(g8
S'\x97~\x81\xfddQ\xf2?'
p1625
tp1626
Rp1627
ag4
(g8
S'\x93\xbf\x1c\xd4M\xa6\xfc?'
p1628
tp1629
Rp1630
ag4
(g8
S',\x9cp\xc0\xc4\xb4\x06@'
p1631
tp1632
Rp1633
ag4
(g8
S'\xc4f\xd5H\xc5*\x02@'
p1634
tp1635
Rp1636
ag4
(g8
S'\xcc\n\x8buW\x1e\xf4?'
p1637
tp1638
Rp1639
ag4
(g8
S'\x19\xf8\x96\xc2j\x89\xfa?'
p1640
tp1641
Rp1642
ag4
(g8
S'R\x0b\xd6|\xab\x07\xf6?'
p1643
tp1644
Rp1645
ag4
(g8
S'\x8cs\xc4zzW\xf5?'
p1646
tp1647
Rp1648
ag4
(g8
S'dw\xa0\x82\x10\xaa\xff?'
p1649
tp1650
Rp1651
ag4
(g8
S'\x86\x1b)w\xbe\x8b\xf9?'
p1652
tp1653
Rp1654
ag4
(g8
S'\x0b\xbc3\n\xa6\x0e\xf4?'
p1655
tp1656
Rp1657
ag4
(g8
S'\xfa\xa2\xc0.\xd6\xdd\xf3?'
p1658
tp1659
Rp1660
ag4
(g8
S'\x1f\xa5\\<\x01i\xf6?'
p1661
tp1662
Rp1663
ag4
(g8
S'\x1f\xbb\xe7\x1f\xbc\xe9\t@'
p1664
tp1665
Rp1666
ag4
(g8
S'\x0e\x7f\xd7&\xb5\xbd\x02@'
p1667
tp1668
Rp1669
ag4
(g8
S'I\x07\x9c`*\xbb\x05@'
p1670
tp1671
Rp1672
ag4
(g8
S'v\x1d\xf5\xd1\x1a\xe3\xfa?'
p1673
tp1674
Rp1675
ag4
(g8
S'\xfa\xe4Y\x87\xef*\x01@'
p1676
tp1677
Rp1678
ag4
(g8
S'y*\x85\xe1\xe1\x9e\xfb?'
p1679
tp1680
Rp1681
ag4
(g8
S'\xc2\xbcH\xed]\xb4\xf5?'
p1682
tp1683
Rp1684
ag4
(g8
S'\xba\x8c\xbb\x0f\x80K\xfd?'
p1685
tp1686
Rp1687
ag4
(g8
S'\xe70\x93\x00\xde\x8b\xf2?'
p1688
tp1689
Rp1690
ag4
(g8
S'\xdd(^\xb9\xbdn\xd9?'
p1691
tp1692
Rp1693
ag4
(g8
S'\x15\xf4\x1c8\xccw\xfc?'
p1694
tp1695
Rp1696
ag4
(g8
S'\x07\xbf\xca#\xd0!\xf2?'
p1697
tp1698
Rp1699
ag4
(g8
S'\xe2\xa3\nG\xa13\xf8?'
p1700
tp1701
Rp1702
ag4
(g8
S'\x00\x06\x80M\x8a*\xff?'
p1703
tp1704
Rp1705
ag4
(g8
S'\xa4&\x1eW\xe7\xa4\xee?'
p1706
tp1707
Rp1708
ag4
(g8
S'\x15\xdfG\xd6Lh\xf6?'
p1709
tp1710
Rp1711
ag4
(g8
S'PF\xa1$\x1eI\x05@'
p1712
tp1713
Rp1714
ag4
(g8
S'\x05\x1e\x12L,^\x02@'
p1715
tp1716
Rp1717
ag4
(g8
S'\x15\xd6\xac=\xcb\x9b\x04@'
p1718
tp1719
Rp1720
ag4
(g8
S'1\xc1\x88G\xce\xcc\x08@'
p1721
tp1722
Rp1723
ag4
(g8
S'\xa9J\x83\xcf\xa5\x82\xf7?'
p1724
tp1725
Rp1726
ag4
(g8
S'\xa8\x1f\xf9z;\xfb\xf2?'
p1727
tp1728
Rp1729
ag4
(g8
S'\xe5\xe8f\xe2\xfa\x01\xfb?'
p1730
tp1731
Rp1732
ag4
(g8
S'\xfbn\x83\xff\xa5\xb1\xfc?'
p1733
tp1734
Rp1735
ag4
(g8
S'I}\x85\xd0M\xb9\xfc?'
p1736
tp1737
Rp1738
ag4
(g8
S"\xb0\x0f\xc0'\xdc$\xfa?"
p1739
tp1740
Rp1741
ag4
(g8
S'FY\x9e\x87\xccP\xfb?'
p1742
tp1743
Rp1744
ag4
(g8
S'\xc0;\xcbX\xda\\\xf0?'
p1745
tp1746
Rp1747
ag4
(g8
S'\xf7\x88\x1a\xd9\xc0\xf2\xf5?'
p1748
tp1749
Rp1750
ag4
(g8
S'\xa7\xbf\x85]\xb5p\xf8?'
p1751
tp1752
Rp1753
ag4
(g8
S'#\xab\xc8\x18\xaf\x83\xfe?'
p1754
tp1755
Rp1756
ag4
(g8
S'\xc9\x1d\xe0w\x1e\x92\xfb?'
p1757
tp1758
Rp1759
ag4
(g8
S'\xc0\xa3\xaa\xf2\x9bJ\x0b@'
p1760
tp1761
Rp1762
ag4
(g8
S'\x84\xbb\x0c\xb9\x83p\xf3?'
p1763
tp1764
Rp1765
ag4
(g8
S'\xd3\x02\xb8\xc9\xbb]\xd6?'
p1766
tp1767
Rp1768
ag4
(g8
S'\x80`5\x8f\xe0\xf1\xf7?'
p1769
tp1770
Rp1771
ag4
(g8
S'\x96B\x12U\xd6\x0e\xff?'
p1772
tp1773
Rp1774
ag4
(g8
S',K\x00\xd3\xea\xc5\xf7?'
p1775
tp1776
Rp1777
ag4
(g8
S'\x85;}&\xe6d\xf7?'
p1778
tp1779
Rp1780
ag4
(g8
S'\xb9\x98\x8c\xda\xac\x11\xfe?'
p1781
tp1782
Rp1783
ag4
(g8
S'\xb0\x867\x8d\xc06\x00@'
p1784
tp1785
Rp1786
ag4
(g8
S'\xe4~M\xbf\x01\xb1\xe7?'
p1787
tp1788
Rp1789
ag4
(g8
S'\xcb\xb6v\x87\xe8\x90\xfe?'
p1790
tp1791
Rp1792
ag4
(g8
S']o\xd6:hm\xce?'
p1793
tp1794
Rp1795
ag4
(g8
S'w\xf1,\x8bO0\x06@'
p1796
tp1797
Rp1798
ag4
(g8
S'\x7f\xf4<#\xd99\xec?'
p1799
tp1800
Rp1801
ag4
(g8
S'\x94\xc2\xf4\xed\x04\xbb\xf5?'
p1802
tp1803
Rp1804
ag4
(g8
S"\xab\x06\xc9\r5'\xf4?"
p1805
tp1806
Rp1807
ag4
(g8
S'\xff\x81\xa1\xdc\xa9\x1e\xed?'
p1808
tp1809
Rp1810
as(g1
g19
tp1811
(lp1812
g4
(g8
S'\x10\x18\xbb\xc1\x81K\xed?'
p1813
tp1814
Rp1815
ag4
(g8
S'zT9\xe6\xa4t\xf7?'
p1816
tp1817
Rp1818
ag4
(g8
S'"\xa0\xc8\x8c\x1a)\xd1?'
p1819
tp1820
Rp1821
ag4
(g8
S'M\xca%\x0fS\x83\xe9?'
p1822
tp1823
Rp1824
ag4
(g8
S'/A\x95\xcc\x17\xce\xed?'
p1825
tp1826
Rp1827
as(g1
g24
tp1828
(lp1829
g4
(g8
S'\xd1\\jH\xf8!\x00@'
p1830
tp1831
Rp1832
ag4
(g8
S'\xd9a\x1f?\xf9\x1f\xec?'
p1833
tp1834
Rp1835
ag4
(g8
S'\x97~\x81\xfddQ\xf2?'
p1836
tp1837
Rp1838
ag4
(g8
S'\x10\x18\xbb\xc1\x81K\xed?'
p1839
tp1840
Rp1841
ag4
(g8
S'\x93\xbf\x1c\xd4M\xa6\xfc?'
p1842
tp1843
Rp1844
ag4
(g8
S',\x9cp\xc0\xc4\xb4\x06@'
p1845
tp1846
Rp1847
ag4
(g8
S'\xc4f\xd5H\xc5*\x02@'
p1848
tp1849
Rp1850
ag4
(g8
S'\xcc\n\x8buW\x1e\xf4?'
p1851
tp1852
Rp1853
ag4
(g8
S'\x19\xf8\x96\xc2j\x89\xfa?'
p1854
tp1855
Rp1856
ag4
(g8
S'R\x0b\xd6|\xab\x07\xf6?'
p1857
tp1858
Rp1859
ag4
(g8
S'\x8cs\xc4zzW\xf5?'
p1860
tp1861
Rp1862
ag4
(g8
S'dw\xa0\x82\x10\xaa\xff?'
p1863
tp1864
Rp1865
ag4
(g8
S'\x00\t\x84\r\xd2=\xe5?'
p1866
tp1867
Rp1868
ag4
(g8
S'\x86\x1b)w\xbe\x8b\xf9?'
p1869
tp1870
Rp1871
ag4
(g8
S'\x0b\xbc3\n\xa6\x0e\xf4?'
p1872
tp1873
Rp1874
ag4
(g8
S'UZ\xdcK\x995\xdf?'
p1875
tp1876
Rp1877
ag4
(g8
S'\xfa\xa2\xc0.\xd6\xdd\xf3?'
p1878
tp1879
Rp1880
ag4
(g8
S'\x1f\xa5\\<\x01i\xf6?'
p1881
tp1882
Rp1883
ag4
(g8
S'\x1f\xbb\xe7\x1f\xbc\xe9\t@'
p1884
tp1885
Rp1886
ag4
(g8
S'\x0e\x7f\xd7&\xb5\xbd\x02@'
p1887
tp1888
Rp1889
ag4
(g8
S'I\x07\x9c`*\xbb\x05@'
p1890
tp1891
Rp1892
ag4
(g8
S'v\x1d\xf5\xd1\x1a\xe3\xfa?'
p1893
tp1894
Rp1895
ag4
(g8
S'\xfa\xe4Y\x87\xef*\x01@'
p1896
tp1897
Rp1898
ag4
(g8
S'y*\x85\xe1\xe1\x9e\xfb?'
p1899
tp1900
Rp1901
ag4
(g8
S'\xc2\xbcH\xed]\xb4\xf5?'
p1902
tp1903
Rp1904
ag4
(g8
S'\xba\x8c\xbb\x0f\x80K\xfd?'
p1905
tp1906
Rp1907
ag4
(g8
S'\xd0a\xd8/\xa5?\xf2?'
p1908
tp1909
Rp1910
ag4
(g8
S'\xe70\x93\x00\xde\x8b\xf2?'
p1911
tp1912
Rp1913
ag4
(g8
S'\xdd(^\xb9\xbdn\xd9?'
p1914
tp1915
Rp1916
ag4
(g8
S'\x15\xf4\x1c8\xccw\xfc?'
p1917
tp1918
Rp1919
ag4
(g8
S'\x07\xbf\xca#\xd0!\xf2?'
p1920
tp1921
Rp1922
ag4
(g8
S'\xe2\xa3\nG\xa13\xf8?'
p1923
tp1924
Rp1925
ag4
(g8
S'\x00\x06\x80M\x8a*\xff?'
p1926
tp1927
Rp1928
ag4
(g8
S'N-\x88\x99\x13\xe7\xeb?'
p1929
tp1930
Rp1931
ag4
(g8
S'\xa4&\x1eW\xe7\xa4\xee?'
p1932
tp1933
Rp1934
ag4
(g8
S'\x15\xdfG\xd6Lh\xf6?'
p1935
tp1936
Rp1937
ag4
(g8
S'PF\xa1$\x1eI\x05@'
p1938
tp1939
Rp1940
ag4
(g8
S'\x05\x1e\x12L,^\x02@'
p1941
tp1942
Rp1943
ag4
(g8
S'\x15\xd6\xac=\xcb\x9b\x04@'
p1944
tp1945
Rp1946
ag4
(g8
S'1\xc1\x88G\xce\xcc\x08@'
p1947
tp1948
Rp1949
ag4
(g8
S'\xa9J\x83\xcf\xa5\x82\xf7?'
p1950
tp1951
Rp1952
ag4
(g8
S'\xa8\x1f\xf9z;\xfb\xf2?'
p1953
tp1954
Rp1955
ag4
(g8
S'\xe5\xe8f\xe2\xfa\x01\xfb?'
p1956
tp1957
Rp1958
ag4
(g8
S'\xfbn\x83\xff\xa5\xb1\xfc?'
p1959
tp1960
Rp1961
ag4
(g8
S'I}\x85\xd0M\xb9\xfc?'
p1962
tp1963
Rp1964
ag4
(g8
S"\xb0\x0f\xc0'\xdc$\xfa?"
p1965
tp1966
Rp1967
ag4
(g8
S'FY\x9e\x87\xccP\xfb?'
p1968
tp1969
Rp1970
ag4
(g8
S'\xc0;\xcbX\xda\\\xf0?'
p1971
tp1972
Rp1973
ag4
(g8
S'\xf7\x88\x1a\xd9\xc0\xf2\xf5?'
p1974
tp1975
Rp1976
ag4
(g8
S'\xa7\xbf\x85]\xb5p\xf8?'
p1977
tp1978
Rp1979
ag4
(g8
S'#\xab\xc8\x18\xaf\x83\xfe?'
p1980
tp1981
Rp1982
ag4
(g8
S'\xc9\x1d\xe0w\x1e\x92\xfb?'
p1983
tp1984
Rp1985
ag4
(g8
S'\xc0\xa3\xaa\xf2\x9bJ\x0b@'
p1986
tp1987
Rp1988
ag4
(g8
S'\x84\xbb\x0c\xb9\x83p\xf3?'
p1989
tp1990
Rp1991
ag4
(g8
S'\xd3\x02\xb8\xc9\xbb]\xd6?'
p1992
tp1993
Rp1994
ag4
(g8
S'\x80`5\x8f\xe0\xf1\xf7?'
p1995
tp1996
Rp1997
ag4
(g8
S'\x96B\x12U\xd6\x0e\xff?'
p1998
tp1999
Rp2000
ag4
(g8
S',K\x00\xd3\xea\xc5\xf7?'
p2001
tp2002
Rp2003
ag4
(g8
S'\x85;}&\xe6d\xf7?'
p2004
tp2005
Rp2006
ag4
(g8
S'\xb9\x98\x8c\xda\xac\x11\xfe?'
p2007
tp2008
Rp2009
ag4
(g8
S'\xb0\x867\x8d\xc06\x00@'
p2010
tp2011
Rp2012
ag4
(g8
S'\xe4~M\xbf\x01\xb1\xe7?'
p2013
tp2014
Rp2015
ag4
(g8
S'\xcb\xb6v\x87\xe8\x90\xfe?'
p2016
tp2017
Rp2018
ag4
(g8
S']o\xd6:hm\xce?'
p2019
tp2020
Rp2021
ag4
(g8
S'w\xf1,\x8bO0\x06@'
p2022
tp2023
Rp2024
ag4
(g8
S'\x7f\xf4<#\xd99\xec?'
p2025
tp2026
Rp2027
ag4
(g8
S'\x94\xc2\xf4\xed\x04\xbb\xf5?'
p2028
tp2029
Rp2030
ag4
(g8
S"\xab\x06\xc9\r5'\xf4?"
p2031
tp2032
Rp2033
ag4
(g8
S'\xff\x81\xa1\xdc\xa9\x1e\xed?'
p2034
tp2035
Rp2036
ag4
(g8
S'\x0f\x98@\x9d\xda)\xef?'
p2037
tp2038
Rp2039
as(g1
g29
tp2040
(lp2041
g4
(g8
S'\xd9a\x1f?\xf9\x1f\xec?'
p2042
tp2043
Rp2044
ag4
(g8
S'\x97~\x81\xfddQ\xf2?'
p2045
tp2046
Rp2047
ag4
(g8
S'x4\xa1\xc9\xe8%\x0f@'
p2048
tp2049
Rp2050
ag4
(g8
S'*~\xed\xea\xb7u\x00@'
p2051
tp2052
Rp2053
ag4
(g8
S'\xf0\x05\xdc`\xed\xfa\x03@'
p2054
tp2055
Rp2056
ag4
(g8
S'\x8cs\xc4zzW\xf5?'
p2057
tp2058
Rp2059
ag4
(g8
S'dw\xa0\x82\x10\xaa\xff?'
p2060
tp2061
Rp2062
ag4
(g8
S'\x9f_\xe3\x9b\xbfS\xff?'
p2063
tp2064
Rp2065
ag4
(g8
S'v\x1d\xf5\xd1\x1a\xe3\xfa?'
p2066
tp2067
Rp2068
ag4
(g8
S'\xc2\xbcH\xed]\xb4\xf5?'
p2069
tp2070
Rp2071
ag4
(g8
S'\x06\xf1\x96\xa8Ar\xf0?'
p2072
tp2073
Rp2074
ag4
(g8
S'\x07\xbf\xca#\xd0!\xf2?'
p2075
tp2076
Rp2077
ag4
(g8
S'\x00\x06\x80M\x8a*\xff?'
p2078
tp2079
Rp2080
ag4
(g8
S'#o61\xb5j\x01@'
p2081
tp2082
Rp2083
ag4
(g8
S'\x15\xd6\xac=\xcb\x9b\x04@'
p2084
tp2085
Rp2086
ag4
(g8
S'\xfbn\x83\xff\xa5\xb1\xfc?'
p2087
tp2088
Rp2089
ag4
(g8
S'\x12/+\xaf\x07\xd9\xf5?'
p2090
tp2091
Rp2092
ag4
(g8
S'#\xab\xc8\x18\xaf\x83\xfe?'
p2093
tp2094
Rp2095
ag4
(g8
S'\x80L\xdd(\x1b>\xf7?'
p2096
tp2097
Rp2098
ag4
(g8
S'\xc0\xa3\xaa\xf2\x9bJ\x0b@'
p2099
tp2100
Rp2101
ag4
(g8
S'\x12\xd6\x16\x08x\xe8\x00@'
p2102
tp2103
Rp2104
ag4
(g8
S'\x84\xbb\x0c\xb9\x83p\xf3?'
p2105
tp2106
Rp2107
ag4
(g8
S'\x96B\x12U\xd6\x0e\xff?'
p2108
tp2109
Rp2110
ag4
(g8
S'1\xbeR\xd1\xc5\x02\xfa?'
p2111
tp2112
Rp2113
ag4
(g8
S'w\xf1,\x8bO0\x06@'
p2114
tp2115
Rp2116
ag4
(g8
S'\x7f\xf4<#\xd99\xec?'
p2117
tp2118
Rp2119
ag4
(g8
S'\x94\xc2\xf4\xed\x04\xbb\xf5?'
p2120
tp2121
Rp2122
as(g1
g34
tp2123
(lp2124
g4
(g8
S'\xd1\\jH\xf8!\x00@'
p2125
tp2126
Rp2127
ag4
(g8
S'\x93\xbf\x1c\xd4M\xa6\xfc?'
p2128
tp2129
Rp2130
ag4
(g8
S'\xc4f\xd5H\xc5*\x02@'
p2131
tp2132
Rp2133
ag4
(g8
S'\xcc\n\x8buW\x1e\xf4?'
p2134
tp2135
Rp2136
ag4
(g8
S'\x19\xf8\x96\xc2j\x89\xfa?'
p2137
tp2138
Rp2139
ag4
(g8
S'R\x0b\xd6|\xab\x07\xf6?'
p2140
tp2141
Rp2142
ag4
(g8
S'\x86\x1b)w\xbe\x8b\xf9?'
p2143
tp2144
Rp2145
ag4
(g8
S'\x0b\xbc3\n\xa6\x0e\xf4?'
p2146
tp2147
Rp2148
ag4
(g8
S'\xfa\xa2\xc0.\xd6\xdd\xf3?'
p2149
tp2150
Rp2151
ag4
(g8
S'\x1f\xa5\\<\x01i\xf6?'
p2152
tp2153
Rp2154
ag4
(g8
S'\x1f\xbb\xe7\x1f\xbc\xe9\t@'
p2155
tp2156
Rp2157
ag4
(g8
S'\x0e\x7f\xd7&\xb5\xbd\x02@'
p2158
tp2159
Rp2160
ag4
(g8
S'\xbc\xcd\xa7g\xf3B\x03@'
p2161
tp2162
Rp2163
ag4
(g8
S'LT\x1c\xf4\x1b_\xfb?'
p2164
tp2165
Rp2166
ag4
(g8
S'\xba\x8c\xbb\x0f\x80K\xfd?'
p2167
tp2168
Rp2169
ag4
(g8
S'\xe70\x93\x00\xde\x8b\xf2?'
p2170
tp2171
Rp2172
ag4
(g8
S'\xdd(^\xb9\xbdn\xd9?'
p2173
tp2174
Rp2175
ag4
(g8
S'\x15\xf4\x1c8\xccw\xfc?'
p2176
tp2177
Rp2178
ag4
(g8
S'*\xfd\x80g\x10\x12\xf8?'
p2179
tp2180
Rp2181
ag4
(g8
S'\xa4&\x1eW\xe7\xa4\xee?'
p2182
tp2183
Rp2184
ag4
(g8
S'\x15\xdfG\xd6Lh\xf6?'
p2185
tp2186
Rp2187
ag4
(g8
S'PF\xa1$\x1eI\x05@'
p2188
tp2189
Rp2190
ag4
(g8
S'\x05\x1e\x12L,^\x02@'
p2191
tp2192
Rp2193
ag4
(g8
S'\xa8\x1f\xf9z;\xfb\xf2?'
p2194
tp2195
Rp2196
ag4
(g8
S'\xe5\xe8f\xe2\xfa\x01\xfb?'
p2197
tp2198
Rp2199
ag4
(g8
S'I}\x85\xd0M\xb9\xfc?'
p2200
tp2201
Rp2202
ag4
(g8
S"\xb0\x0f\xc0'\xdc$\xfa?"
p2203
tp2204
Rp2205
ag4
(g8
S'FY\x9e\x87\xccP\xfb?'
p2206
tp2207
Rp2208
ag4
(g8
S'\xc0;\xcbX\xda\\\xf0?'
p2209
tp2210
Rp2211
ag4
(g8
S'\xf7\x88\x1a\xd9\xc0\xf2\xf5?'
p2212
tp2213
Rp2214
ag4
(g8
S'\xa7\xbf\x85]\xb5p\xf8?'
p2215
tp2216
Rp2217
ag4
(g8
S'\xc9\x1d\xe0w\x1e\x92\xfb?'
p2218
tp2219
Rp2220
ag4
(g8
S'\xd3\x02\xb8\xc9\xbb]\xd6?'
p2221
tp2222
Rp2223
ag4
(g8
S'\x80`5\x8f\xe0\xf1\xf7?'
p2224
tp2225
Rp2226
ag4
(g8
S',K\x00\xd3\xea\xc5\xf7?'
p2227
tp2228
Rp2229
ag4
(g8
S'\x85;}&\xe6d\xf7?'
p2230
tp2231
Rp2232
ag4
(g8
S'\xb9\x98\x8c\xda\xac\x11\xfe?'
p2233
tp2234
Rp2235
ag4
(g8
S'L\xc9\x98\xafk\xa7\xfe?'
p2236
tp2237
Rp2238
ag4
(g8
S'\xe4~M\xbf\x01\xb1\xe7?'
p2239
tp2240
Rp2241
ag4
(g8
S']o\xd6:hm\xce?'
p2242
tp2243
Rp2244
astp2245
.