((dp0
(S'09512280'
p1
S'wet'
p2
tp3
cnumpy.core.multiarray
scalar
p4
(cnumpy
dtype
p5
(S'f8'
p6
I0
I1
tp7
Rp8
(I3
S'<'
p9
NNNI-1
I-1
I0
tp10
bS'qy#\xda\xea=\xfa?'
p11
tp12
Rp13
s(g1
S'summer'
p14
tp15
g4
(g8
S'\x8b\xf5\xa4\x17\xb4\xa7\xf1?'
p16
tp17
Rp18
s(g1
S'annual'
p19
tp20
g4
(g8
S'\x89?\xfd[kb\xfc?'
p21
tp22
Rp23
s(g1
S'spring'
p24
tp25
g4
(g8
S'Q{\xdf\xbd\xc9\xf3\xe4?'
p26
tp27
Rp28
s(g1
S'fall'
p29
tp30
g4
(g8
S'r\xb7\x829O\xd9\x01@'
p31
tp32
Rp33
s(g1
S'winter'
p34
tp35
g4
(g8
S'\xe5\xa7jm\x01\xe0\xf9?'
p36
tp37
Rp38
s(dp39
(g1
g2
tp40
g4
(g8
S'\xcb\xcd\x9aN\x8f\xae\xf5?'
p41
tp42
Rp43
s(g1
g14
tp44
g4
(g8
S'\xec\xa2\x1e\x9e$\xa4\xf2?'
p45
tp46
Rp47
s(g1
g19
tp48
g4
(g8
S'\xbar\xee\x87es\xf5?'
p49
tp50
Rp51
s(g1
g24
tp52
g4
(g8
S'\xa8H\x06\xfd\x97k\xf3?'
p53
tp54
Rp55
s(g1
g29
tp56
g4
(g8
S'\x850\xcd\x01\x80M\xf5?'
p57
tp58
Rp59
s(g1
g34
tp60
g4
(g8
S"\xa7\xec'\xdaTQ\xf6?"
p61
tp62
Rp63
s(dp64
(g1
g2
tp65
(lp66
cpandas.tslib
Timestamp
p67
(L341884800000000000L
NNtp68
Rp69
ag67
(L341971200000000000L
NNtp70
Rp71
ag67
(L342144000000000000L
NNtp72
Rp73
ag67
(L342230400000000000L
NNtp74
Rp75
ag67
(L342316800000000000L
NNtp76
Rp77
ag67
(L342662400000000000L
NNtp78
Rp79
ag67
(L342748800000000000L
NNtp80
Rp81
ag67
(L342835200000000000L
NNtp82
Rp83
ag67
(L342921600000000000L
NNtp84
Rp85
ag67
(L343008000000000000L
NNtp86
Rp87
ag67
(L343180800000000000L
NNtp88
Rp89
ag67
(L343267200000000000L
NNtp90
Rp91
ag67
(L343353600000000000L
NNtp92
Rp93
ag67
(L343440000000000000L
NNtp94
Rp95
ag67
(L343526400000000000L
NNtp96
Rp97
ag67
(L343699200000000000L
NNtp98
Rp99
ag67
(L343785600000000000L
NNtp100
Rp101
ag67
(L343872000000000000L
NNtp102
Rp103
ag67
(L343958400000000000L
NNtp104
Rp105
ag67
(L344044800000000000L
NNtp106
Rp107
ag67
(L344217600000000000L
NNtp108
Rp109
ag67
(L344476800000000000L
NNtp110
Rp111
ag67
(L344736000000000000L
NNtp112
Rp113
ag67
(L344995200000000000L
NNtp114
Rp115
ag67
(L345168000000000000L
NNtp116
Rp117
ag67
(L345772800000000000L
NNtp118
Rp119
ag67
(L345945600000000000L
NNtp120
Rp121
ag67
(L346032000000000000L
NNtp122
Rp123
ag67
(L346118400000000000L
NNtp124
Rp125
ag67
(L346291200000000000L
NNtp126
Rp127
ag67
(L346377600000000000L
NNtp128
Rp129
ag67
(L346464000000000000L
NNtp130
Rp131
ag67
(L346636800000000000L
NNtp132
Rp133
ag67
(L346723200000000000L
NNtp134
Rp135
ag67
(L346809600000000000L
NNtp136
Rp137
ag67
(L346896000000000000L
NNtp138
Rp139
ag67
(L347068800000000000L
NNtp140
Rp141
ag67
(L347241600000000000L
NNtp142
Rp143
ag67
(L347328000000000000L
NNtp144
Rp145
ag67
(L347500800000000000L
NNtp146
Rp147
ag67
(L347587200000000000L
NNtp148
Rp149
ag67
(L347673600000000000L
NNtp150
Rp151
ag67
(L347760000000000000L
NNtp152
Rp153
ag67
(L347932800000000000L
NNtp154
Rp155
ag67
(L348105600000000000L
NNtp156
Rp157
ag67
(L348278400000000000L
NNtp158
Rp159
ag67
(L348537600000000000L
NNtp160
Rp161
ag67
(L348624000000000000L
NNtp162
Rp163
ag67
(L348969600000000000L
NNtp164
Rp165
ag67
(L349056000000000000L
NNtp166
Rp167
ag67
(L349228800000000000L
NNtp168
Rp169
ag67
(L349315200000000000L
NNtp170
Rp171
ag67
(L349488000000000000L
NNtp172
Rp173
ag67
(L349574400000000000L
NNtp174
Rp175
ag67
(L349747200000000000L
NNtp176
Rp177
ag67
(L349833600000000000L
NNtp178
Rp179
ag67
(L349920000000000000L
NNtp180
Rp181
as(g1
g14
tp182
(lp183
g67
(L360374400000000000L
NNtp184
Rp185
ag67
(L360633600000000000L
NNtp186
Rp187
ag67
(L361324800000000000L
NNtp188
Rp189
ag67
(L361670400000000000L
NNtp190
Rp191
ag67
(L361756800000000000L
NNtp192
Rp193
ag67
(L361929600000000000L
NNtp194
Rp195
ag67
(L362102400000000000L
NNtp196
Rp197
ag67
(L362534400000000000L
NNtp198
Rp199
as(g1
g19
tp200
(lp201
g67
(L339206400000000000L
NNtp202
Rp203
ag67
(L339292800000000000L
NNtp204
Rp205
ag67
(L339379200000000000L
NNtp206
Rp207
ag67
(L339552000000000000L
NNtp208
Rp209
ag67
(L339724800000000000L
NNtp210
Rp211
ag67
(L339811200000000000L
NNtp212
Rp213
ag67
(L340156800000000000L
NNtp214
Rp215
ag67
(L340243200000000000L
NNtp216
Rp217
ag67
(L340329600000000000L
NNtp218
Rp219
ag67
(L340502400000000000L
NNtp220
Rp221
ag67
(L340675200000000000L
NNtp222
Rp223
ag67
(L340761600000000000L
NNtp224
Rp225
ag67
(L340848000000000000L
NNtp226
Rp227
ag67
(L341020800000000000L
NNtp228
Rp229
ag67
(L341193600000000000L
NNtp230
Rp231
ag67
(L341280000000000000L
NNtp232
Rp233
ag67
(L341366400000000000L
NNtp234
Rp235
ag67
(L341452800000000000L
NNtp236
Rp237
ag67
(L341539200000000000L
NNtp238
Rp239
ag67
(L341712000000000000L
NNtp240
Rp241
ag67
(L341798400000000000L
NNtp242
Rp243
ag67
(L341884800000000000L
NNtp244
Rp245
ag67
(L341971200000000000L
NNtp246
Rp247
ag67
(L342057600000000000L
NNtp248
Rp249
ag67
(L342662400000000000L
NNtp250
Rp251
ag67
(L342921600000000000L
NNtp252
Rp253
ag67
(L343180800000000000L
NNtp254
Rp255
ag67
(L343440000000000000L
NNtp256
Rp257
ag67
(L343526400000000000L
NNtp258
Rp259
ag67
(L343699200000000000L
NNtp260
Rp261
ag67
(L344304000000000000L
NNtp262
Rp263
ag67
(L344476800000000000L
NNtp264
Rp265
ag67
(L344563200000000000L
NNtp266
Rp267
ag67
(L344649600000000000L
NNtp268
Rp269
ag67
(L344736000000000000L
NNtp270
Rp271
ag67
(L344822400000000000L
NNtp272
Rp273
ag67
(L344908800000000000L
NNtp274
Rp275
ag67
(L345081600000000000L
NNtp276
Rp277
ag67
(L345168000000000000L
NNtp278
Rp279
ag67
(L345254400000000000L
NNtp280
Rp281
ag67
(L345427200000000000L
NNtp282
Rp283
ag67
(L345686400000000000L
NNtp284
Rp285
ag67
(L345772800000000000L
NNtp286
Rp287
ag67
(L345859200000000000L
NNtp288
Rp289
ag67
(L346118400000000000L
NNtp290
Rp291
ag67
(L346291200000000000L
NNtp292
Rp293
ag67
(L346377600000000000L
NNtp294
Rp295
ag67
(L346636800000000000L
NNtp296
Rp297
ag67
(L346723200000000000L
NNtp298
Rp299
ag67
(L346809600000000000L
NNtp300
Rp301
ag67
(L347155200000000000L
NNtp302
Rp303
ag67
(L347241600000000000L
NNtp304
Rp305
ag67
(L347328000000000000L
NNtp306
Rp307
ag67
(L347500800000000000L
NNtp308
Rp309
ag67
(L347673600000000000L
NNtp310
Rp311
ag67
(L347846400000000000L
NNtp312
Rp313
ag67
(L348019200000000000L
NNtp314
Rp315
ag67
(L348278400000000000L
NNtp316
Rp317
ag67
(L348451200000000000L
NNtp318
Rp319
ag67
(L348710400000000000L
NNtp320
Rp321
ag67
(L349056000000000000L
NNtp322
Rp323
ag67
(L349315200000000000L
NNtp324
Rp325
ag67
(L349660800000000000L
NNtp326
Rp327
ag67
(L350006400000000000L
NNtp328
Rp329
ag67
(L350092800000000000L
NNtp330
Rp331
ag67
(L350438400000000000L
NNtp332
Rp333
ag67
(L350524800000000000L
NNtp334
Rp335
ag67
(L350697600000000000L
NNtp336
Rp337
ag67
(L350784000000000000L
NNtp338
Rp339
ag67
(L350956800000000000L
NNtp340
Rp341
ag67
(L351043200000000000L
NNtp342
Rp343
ag67
(L351129600000000000L
NNtp344
Rp345
ag67
(L351216000000000000L
NNtp346
Rp347
ag67
(L351302400000000000L
NNtp348
Rp349
as(g1
g24
tp350
(lp351
g67
(L352252800000000000L
NNtp352
Rp353
ag67
(L352512000000000000L
NNtp354
Rp355
ag67
(L352598400000000000L
NNtp356
Rp357
ag67
(L352771200000000000L
NNtp358
Rp359
ag67
(L352857600000000000L
NNtp360
Rp361
ag67
(L353030400000000000L
NNtp362
Rp363
ag67
(L353116800000000000L
NNtp364
Rp365
ag67
(L353203200000000000L
NNtp366
Rp367
ag67
(L353289600000000000L
NNtp368
Rp369
ag67
(L353376000000000000L
NNtp370
Rp371
ag67
(L353635200000000000L
NNtp372
Rp373
ag67
(L353894400000000000L
NNtp374
Rp375
ag67
(L353980800000000000L
NNtp376
Rp377
ag67
(L354153600000000000L
NNtp378
Rp379
ag67
(L354412800000000000L
NNtp380
Rp381
ag67
(L354499200000000000L
NNtp382
Rp383
ag67
(L354672000000000000L
NNtp384
Rp385
ag67
(L354758400000000000L
NNtp386
Rp387
ag67
(L354844800000000000L
NNtp388
Rp389
ag67
(L355017600000000000L
NNtp390
Rp391
ag67
(L355104000000000000L
NNtp392
Rp393
ag67
(L355190400000000000L
NNtp394
Rp395
ag67
(L355363200000000000L
NNtp396
Rp397
ag67
(L355536000000000000L
NNtp398
Rp399
as(g1
g29
tp400
(lp401
g67
(L339292800000000000L
NNtp402
Rp403
ag67
(L339552000000000000L
NNtp404
Rp405
ag67
(L339724800000000000L
NNtp406
Rp407
ag67
(L339984000000000000L
NNtp408
Rp409
ag67
(L340070400000000000L
NNtp410
Rp411
ag67
(L340329600000000000L
NNtp412
Rp413
ag67
(L340416000000000000L
NNtp414
Rp415
ag67
(L340675200000000000L
NNtp416
Rp417
ag67
(L340934400000000000L
NNtp418
Rp419
ag67
(L341107200000000000L
NNtp420
Rp421
ag67
(L341280000000000000L
NNtp422
Rp423
ag67
(L341712000000000000L
NNtp424
Rp425
ag67
(L341798400000000000L
NNtp426
Rp427
ag67
(L341884800000000000L
NNtp428
Rp429
ag67
(L342057600000000000L
NNtp430
Rp431
ag67
(L342403200000000000L
NNtp432
Rp433
ag67
(L342576000000000000L
NNtp434
Rp435
ag67
(L343008000000000000L
NNtp436
Rp437
ag67
(L343267200000000000L
NNtp438
Rp439
ag67
(L343612800000000000L
NNtp440
Rp441
ag67
(L343699200000000000L
NNtp442
Rp443
as(g1
g34
tp444
(lp445
g67
(L344476800000000000L
NNtp446
Rp447
ag67
(L344563200000000000L
NNtp448
Rp449
ag67
(L344736000000000000L
NNtp450
Rp451
ag67
(L345081600000000000L
NNtp452
Rp453
ag67
(L345168000000000000L
NNtp454
Rp455
ag67
(L345254400000000000L
NNtp456
Rp457
ag67
(L345340800000000000L
NNtp458
Rp459
ag67
(L345427200000000000L
NNtp460
Rp461
ag67
(L345513600000000000L
NNtp462
Rp463
ag67
(L345600000000000000L
NNtp464
Rp465
ag67
(L345772800000000000L
NNtp466
Rp467
ag67
(L345859200000000000L
NNtp468
Rp469
ag67
(L346118400000000000L
NNtp470
Rp471
ag67
(L346464000000000000L
NNtp472
Rp473
ag67
(L347068800000000000L
NNtp474
Rp475
ag67
(L347155200000000000L
NNtp476
Rp477
ag67
(L347241600000000000L
NNtp478
Rp479
ag67
(L347414400000000000L
NNtp480
Rp481
ag67
(L347500800000000000L
NNtp482
Rp483
ag67
(L347587200000000000L
NNtp484
Rp485
ag67
(L347673600000000000L
NNtp486
Rp487
ag67
(L347760000000000000L
NNtp488
Rp489
ag67
(L348019200000000000L
NNtp490
Rp491
ag67
(L348192000000000000L
NNtp492
Rp493
ag67
(L348364800000000000L
NNtp494
Rp495
ag67
(L348624000000000000L
NNtp496
Rp497
ag67
(L348796800000000000L
NNtp498
Rp499
ag67
(L349056000000000000L
NNtp500
Rp501
ag67
(L349401600000000000L
NNtp502
Rp503
ag67
(L349488000000000000L
NNtp504
Rp505
ag67
(L349660800000000000L
NNtp506
Rp507
ag67
(L349747200000000000L
NNtp508
Rp509
ag67
(L349920000000000000L
NNtp510
Rp511
ag67
(L350006400000000000L
NNtp512
Rp513
ag67
(L350092800000000000L
NNtp514
Rp515
as(dp516
(g1
g2
tp517
g4
(g8
S'\xf9\xad\xda\xcb\xee\xd8\xee?'
p518
tp519
Rp520
s(g1
g14
tp521
g4
(g8
S'\xf3=1WVe\xf3?'
p522
tp523
Rp524
s(g1
g19
tp525
g4
(g8
S'\xda\x9cT\xf5\xee\x85\xf0?'
p526
tp527
Rp528
s(g1
g24
tp529
g4
(g8
S'n+\xa3g\x8d\xab\xee?'
p530
tp531
Rp532
s(g1
g29
tp533
g4
(g8
S'2\xe0\xdd:\xa5\xa5\xf1?'
p534
tp535
Rp536
s(g1
g34
tp537
g4
(g8
S',\xd5\xb6K\xfc\xe0\xee?'
p538
tp539
Rp540
s(dp541
(g1
g2
tp542
g4
(g8
S'`d\xc8\xd4\xa5M)@'
p543
tp544
Rp545
s(g1
g14
tp546
g4
(g8
S'U\x1bVYN\xe0\x88C'
p547
tp548
Rp549
s(g1
g19
tp550
g4
(g8
S'\xa5Q\x92e\x03\x85t@'
p551
tp552
Rp553
s(g1
g24
tp554
g4
(g8
S'4:\x0f\xa2\xe6\xf0%@'
p555
tp556
Rp557
s(g1
g29
tp558
g4
(g8
S'Y\xae\xa9\xba\x8e>VC'
p559
tp560
Rp561
s(g1
g34
tp562
g4
(g8
S'\x16\xcd(\xde`\xdf)@'
p563
tp564
Rp565
s(dp566
(g1
g2
tp567
F0.0128572640733058
s(g1
g14
tp568
F0.0016536679245721074
s(g1
g19
tp569
F0.007262339810697707
s(g1
g24
tp570
F0.006001801022251037
s(g1
g29
tp571
F0.002285861518003832
s(g1
g34
tp572
F0.019262236552714886
s(dp573
(g1
g2
tp574
g4
(g8
S'\x0f\x0f\x0f\x0f\x0f\xcf1@'
p575
tp576
Rp577
s(g1
g14
tp578
g4
(g8
S'\x92$I\x92$I\x12@'
p579
tp580
Rp581
s(g1
g19
tp582
g4
(g8
S'\xcb\xd9-\xfcj\x8cO@'
p583
tp584
Rp585
s(g1
g24
tp586
g4
(g8
S'Lh/\xa1\xbd\x847@'
p587
tp588
Rp589
s(g1
g29
tp590
g4
(g8
S'!\r\xd2 \r\xd23@'
p591
tp592
Rp593
s(g1
g34
tp594
g4
(g8
S'\x16\xb2\x90\x85,d,@'
p595
tp596
Rp597
s(dp598
(g1
g2
tp599
g4
(g8
S'\x94\xa1\xca\x8c\x12)\xd8?'
p600
tp601
Rp602
s(g1
g14
tp603
g4
(g8
S'G\xed\xcb%(x\xc4?'
p604
tp605
Rp606
s(g1
g19
tp607
g4
(g8
S'\x93\x9b\xdd\xc3\xde\xfc\xd2?'
p608
tp609
Rp610
s(g1
g24
tp611
g4
(g8
S'x\xd8\xa0\t\xc4\xbc\xd9?'
p612
tp613
Rp614
s(g1
g29
tp615
g4
(g8
S'\x87\xf7\xba\x81\x86\x85\xb9?'
p616
tp617
Rp618
s(g1
g34
tp619
g4
(g8
S'\xea\x8d\xd4\x8dO\xb3\xdc?'
p620
tp621
Rp622
s(dp623
(g1
g2
tp624
g4
(g8
S'\xfd\xff\xff\xff\xff\xffX@'
p625
tp626
Rp627
s(g1
g14
tp628
g4
(g8
S'\xfd\xff\xff\xff\xff\xffX@'
p629
tp630
Rp631
s(g1
g19
tp632
g4
(g8
S'\xfd\xff\xff\xff\xff\xffX@'
p633
tp634
Rp635
s(g1
g24
tp636
g4
(g8
S'\xfd\xff\xff\xff\xff\xffX@'
p637
tp638
Rp639
s(g1
g29
tp640
g4
(g8
S'\xfd\xff\xff\xff\xff\xffX@'
p641
tp642
Rp643
s(g1
g34
tp644
g4
(g8
S'\xfd\xff\xff\xff\xff\xffX@'
p645
tp646
Rp647
s(dp648
(g1
g2
tp649
g4
(g8
S'\x00\x00\x00\x00\x00\x00\xf8\xff'
p650
tp651
Rp652
s(g1
g14
tp653
g4
(g8
S'\x00\x00\x00\x00\x00\x00\xf8\xff'
p654
tp655
Rp656
s(g1
g19
tp657
g4
(g8
S'\x00\x00\x00\x00\x00\x00\xf8\xff'
p658
tp659
Rp660
s(g1
g24
tp661
g4
(g8
S'\x00\x00\x00\x00\x00\x00\xf8\xff'
p662
tp663
Rp664
s(g1
g29
tp665
g4
(g8
S'\x00\x00\x00\x00\x00\x00\xf8\xff'
p666
tp667
Rp668
s(g1
g34
tp669
g4
(g8
S'\x00\x00\x00\x00\x00\x00\xf8\xff'
p670
tp671
Rp672
s(dp673
(g1
g2
tp674
F0.3142816563402869
s(g1
g14
tp675
F0.10429067197421885
s(g1
g19
tp676
F0.1773071225433146
s(g1
g24
tp677
F0.2925430917585062
s(g1
g29
tp678
F0.31016257674628694
s(g1
g34
tp679
F0.4715268333531767
s(dp680
(g1
g2
tp681
g4
(g8
S'3\x7f\x04\xc9e\xd6\xa5?'
p682
tp683
Rp684
s(g1
g14
tp685
F1495946218.6846435
s(g1
g19
tp686
F0.507301728179984
s(g1
g24
tp687
g4
(g8
S'\x14:/O\xd9W\xa4?'
p688
tp689
Rp690
s(g1
g29
tp691
F18040.393786706365
s(g1
g34
tp692
g4
(g8
S's\x81\xbc\x92%\xa5\xb0?'
p693
tp694
Rp695
s(dp696
(dp697
(dp698
(g1
g2
tp699
(lp700
g4
(g8
S'.\x84h\x15\xf2z\xf3?'
p701
tp702
Rp703
ag4
(g8
S'?\xc8\x17\xe7u\xb8\x0b@'
p704
tp705
Rp706
ag4
(g8
S'\x1f\x13\xb5\xf1\x8c\xb3\x0e@'
p707
tp708
Rp709
ag4
(g8
S'r\x91\x16\xd3\x1c\x83\xde?'
p710
tp711
Rp712
ag4
(g8
S'\ng\x02\xe966\xf7?'
p713
tp714
Rp715
ag4
(g8
S'g&V\xeeZu\xe2?'
p716
tp717
Rp718
ag4
(g8
S'EL\x885\x1c \xe3?'
p719
tp720
Rp721
ag4
(g8
S'\xc2\x90\xb0\x0c\xf7\xfa\xf3?'
p722
tp723
Rp724
ag4
(g8
S'\xd1\xc5\xca&\xfd\xb9\xdb?'
p725
tp726
Rp727
ag4
(g8
S'\x1f,\xaci~X\xdc?'
p728
tp729
Rp730
ag4
(g8
S'\xbdn\xa9=e\xbe\xd9?'
p731
tp732
Rp733
ag4
(g8
S'`\x8d^\x8d\x02\x08/@'
p734
tp735
Rp736
ag4
(g8
S'iu\x0cY!\xb6\xf4?'
p737
tp738
Rp739
ag4
(g8
S'\x06\xba\xe7v\x82\x9e\xe5?'
p740
tp741
Rp742
ag4
(g8
S':\x95w\xb9\x0b\x1c\xe3?'
p743
tp744
Rp745
ag4
(g8
S'\xe3#\xb37\xb7\xa2\x10@'
p746
tp747
Rp748
ag4
(g8
S'\xd3\x02\x95\xab\xa5\x10\xe9?'
p749
tp750
Rp751
ag4
(g8
S'\x9f\x86\xd8D\x92G\x10@'
p752
tp753
Rp754
ag4
(g8
S'.kg\xa7b#\xf1?'
p755
tp756
Rp757
as(g1
g14
tp758
(lp759
g4
(g8
S'\xf6K\xd9\xd1\xf2\xc3\xf2?'
p760
tp761
Rp762
as(g1
g19
tp763
(lp764
g4
(g8
S'.\x84h\x15\xf2z\xf3?'
p765
tp766
Rp767
ag4
(g8
S'?\xc8\x17\xe7u\xb8\x0b@'
p768
tp769
Rp770
ag4
(g8
S'\x1f\x13\xb5\xf1\x8c\xb3\x0e@'
p771
tp772
Rp773
ag4
(g8
S'r\x91\x16\xd3\x1c\x83\xde?'
p774
tp775
Rp776
ag4
(g8
S'\ng\x02\xe966\xf7?'
p777
tp778
Rp779
ag4
(g8
S'g&V\xeeZu\xe2?'
p780
tp781
Rp782
ag4
(g8
S'EL\x885\x1c \xe3?'
p783
tp784
Rp785
ag4
(g8
S'\xf6K\xd9\xd1\xf2\xc3\xf2?'
p786
tp787
Rp788
ag4
(g8
S'\xc2\x90\xb0\x0c\xf7\xfa\xf3?'
p789
tp790
Rp791
ag4
(g8
S'\xd1\xc5\xca&\xfd\xb9\xdb?'
p792
tp793
Rp794
ag4
(g8
S'\x1f,\xaci~X\xdc?'
p795
tp796
Rp797
ag4
(g8
S'\xbdn\xa9=e\xbe\xd9?'
p798
tp799
Rp800
ag4
(g8
S'`\x8d^\x8d\x02\x08/@'
p801
tp802
Rp803
ag4
(g8
S'iu\x0cY!\xb6\xf4?'
p804
tp805
Rp806
ag4
(g8
S'\x06\xba\xe7v\x82\x9e\xe5?'
p807
tp808
Rp809
ag4
(g8
S':\x95w\xb9\x0b\x1c\xe3?'
p810
tp811
Rp812
ag4
(g8
S'\xe3#\xb37\xb7\xa2\x10@'
p813
tp814
Rp815
ag4
(g8
S'\xd3\x02\x95\xab\xa5\x10\xe9?'
p816
tp817
Rp818
ag4
(g8
S'\x9f\x86\xd8D\x92G\x10@'
p819
tp820
Rp821
ag4
(g8
S'.kg\xa7b#\xf1?'
p822
tp823
Rp824
ag4
(g8
S'\xb4\xb1\xd8\xc0\x0b2\xe3?'
p825
tp826
Rp827
as(g1
g24
tp828
(lp829
g4
(g8
S'r\x91\x16\xd3\x1c\x83\xde?'
p830
tp831
Rp832
ag4
(g8
S'\ng\x02\xe966\xf7?'
p833
tp834
Rp835
ag4
(g8
S'g&V\xeeZu\xe2?'
p836
tp837
Rp838
ag4
(g8
S'EL\x885\x1c \xe3?'
p839
tp840
Rp841
ag4
(g8
S'\xd6m\x98\x93\x0ey\x85@'
p842
tp843
Rp844
ag4
(g8
S'`\x8d^\x8d\x02\x08/@'
p845
tp846
Rp847
as(g1
g29
tp848
(lp849
g4
(g8
S'f\x87\xe4}\x84\xc6\xb2?'
p850
tp851
Rp852
as(g1
g34
tp853
(lp854
g4
(g8
S'?\xc8\x17\xe7u\xb8\x0b@'
p855
tp856
Rp857
ag4
(g8
S'\x1f\x13\xb5\xf1\x8c\xb3\x0e@'
p858
tp859
Rp860
ag4
(g8
S'\xc2\x90\xb0\x0c\xf7\xfa\xf3?'
p861
tp862
Rp863
ag4
(g8
S'\xd1\xc5\xca&\xfd\xb9\xdb?'
p864
tp865
Rp866
ag4
(g8
S'\x1f,\xaci~X\xdc?'
p867
tp868
Rp869
ag4
(g8
S'\xbdn\xa9=e\xbe\xd9?'
p870
tp871
Rp872
ag4
(g8
S'iu\x0cY!\xb6\xf4?'
p873
tp874
Rp875
ag4
(g8
S'\x06\xba\xe7v\x82\x9e\xe5?'
p876
tp877
Rp878
ag4
(g8
S':\x95w\xb9\x0b\x1c\xe3?'
p879
tp880
Rp881
ag4
(g8
S'\xe3#\xb37\xb7\xa2\x10@'
p882
tp883
Rp884
ag4
(g8
S'\xd3\x02\x95\xab\xa5\x10\xe9?'
p885
tp886
Rp887
ag4
(g8
S'\x9f\x86\xd8D\x92G\x10@'
p888
tp889
Rp890
ag4
(g8
S'.kg\xa7b#\xf1?'
p891
tp892
Rp893
as(dp894
(g1
g2
tp895
(lp896
g4
(g8
S'\x8e%{\x0eS\x84\xf5?'
p897
tp898
Rp899
ag4
(g8
S'=\xbb\xa9\xf3\xc8Y\xfc?'
p900
tp901
Rp902
ag4
(g8
S'~\xeb\xeaSo\x95\xfd?'
p903
tp904
Rp905
ag4
(g8
S'4\xb6K\x12\xdc\xfa\xe7?'
p906
tp907
Rp908
ag4
(g8
S'D\xce9\x05\xeb\x88\xf6?'
p909
tp910
Rp911
ag4
(g8
S'\x81\xc0\x1c\xbdG\xa8\xf0?'
p912
tp913
Rp914
ag4
(g8
S'\xf0|\xcd\xa1q?\xe9?'
p915
tp916
Rp917
ag4
(g8
S'\xa0\x13\xb8\xb4\xb4:\xef?'
p918
tp919
Rp920
ag4
(g8
S'~\xc0\x1a\xcb\xe2\x03\xe9?'
p921
tp922
Rp923
ag4
(g8
S'\xa2mY=\x9f\xa4\xeb?'
p924
tp925
Rp926
ag4
(g8
S'o\x0c\x8e\xa1\xf4`\xe6?'
p927
tp928
Rp929
ag4
(g8
S'+{m\xf8\x84&\x00@'
p930
tp931
Rp932
ag4
(g8
S'E\x9d\xce\x96V|\xf4?'
p933
tp934
Rp935
ag4
(g8
S'D\x0e\xa0h\x056\xe9?'
p936
tp937
Rp938
ag4
(g8
S'D\x95\x8e\xc1\xdc\xdd\xe1?'
p939
tp940
Rp941
ag4
(g8
S'\xb7p\xe4f\xdcX\xf4?'
p942
tp943
Rp944
ag4
(g8
S'\xe3\xc6\rF\xc6\xda\xe7?'
p945
tp946
Rp947
ag4
(g8
S'\n\xa1\x7f\x9d\x88J#@'
p948
tp949
Rp950
ag4
(g8
S'\x04\xbd\xd3m\xe8\xc6\xed?'
p951
tp952
Rp953
as(g1
g14
tp954
(lp955
g4
(g8
S'\x8bc\x8e\xa4W\xa1\xec?'
p956
tp957
Rp958
as(g1
g19
tp959
(lp960
g4
(g8
S'\x8e%{\x0eS\x84\xf5?'
p961
tp962
Rp963
ag4
(g8
S'=\xbb\xa9\xf3\xc8Y\xfc?'
p964
tp965
Rp966
ag4
(g8
S'~\xeb\xeaSo\x95\xfd?'
p967
tp968
Rp969
ag4
(g8
S'4\xb6K\x12\xdc\xfa\xe7?'
p970
tp971
Rp972
ag4
(g8
S'D\xce9\x05\xeb\x88\xf6?'
p973
tp974
Rp975
ag4
(g8
S'\x81\xc0\x1c\xbdG\xa8\xf0?'
p976
tp977
Rp978
ag4
(g8
S'\xf0|\xcd\xa1q?\xe9?'
p979
tp980
Rp981
ag4
(g8
S'\x8bc\x8e\xa4W\xa1\xec?'
p982
tp983
Rp984
ag4
(g8
S'\xa0\x13\xb8\xb4\xb4:\xef?'
p985
tp986
Rp987
ag4
(g8
S'~\xc0\x1a\xcb\xe2\x03\xe9?'
p988
tp989
Rp990
ag4
(g8
S'\xa2mY=\x9f\xa4\xeb?'
p991
tp992
Rp993
ag4
(g8
S'o\x0c\x8e\xa1\xf4`\xe6?'
p994
tp995
Rp996
ag4
(g8
S'+{m\xf8\x84&\x00@'
p997
tp998
Rp999
ag4
(g8
S'E\x9d\xce\x96V|\xf4?'
p1000
tp1001
Rp1002
ag4
(g8
S'D\x0e\xa0h\x056\xe9?'
p1003
tp1004
Rp1005
ag4
(g8
S'D\x95\x8e\xc1\xdc\xdd\xe1?'
p1006
tp1007
Rp1008
ag4
(g8
S'\xb7p\xe4f\xdcX\xf4?'
p1009
tp1010
Rp1011
ag4
(g8
S'\xe3\xc6\rF\xc6\xda\xe7?'
p1012
tp1013
Rp1014
ag4
(g8
S'\n\xa1\x7f\x9d\x88J#@'
p1015
tp1016
Rp1017
ag4
(g8
S'\x04\xbd\xd3m\xe8\xc6\xed?'
p1018
tp1019
Rp1020
ag4
(g8
S'\xb0\xdb\x9a\xc9\x8fc\xe6?'
p1021
tp1022
Rp1023
as(g1
g24
tp1024
(lp1025
g4
(g8
S'4\xb6K\x12\xdc\xfa\xe7?'
p1026
tp1027
Rp1028
ag4
(g8
S'D\xce9\x05\xeb\x88\xf6?'
p1029
tp1030
Rp1031
ag4
(g8
S'\x81\xc0\x1c\xbdG\xa8\xf0?'
p1032
tp1033
Rp1034
ag4
(g8
S'\xf0|\xcd\xa1q?\xe9?'
p1035
tp1036
Rp1037
ag4
(g8
S'l\xd3\x83\xa7\x87g\x0e@'
p1038
tp1039
Rp1040
ag4
(g8
S'+{m\xf8\x84&\x00@'
p1041
tp1042
Rp1043
as(g1
g29
tp1044
(lp1045
g4
(g8
S'V$\\\xb8\x9f\xb1\xe4?'
p1046
tp1047
Rp1048
as(g1
g34
tp1049
(lp1050
g4
(g8
S'=\xbb\xa9\xf3\xc8Y\xfc?'
p1051
tp1052
Rp1053
ag4
(g8
S'~\xeb\xeaSo\x95\xfd?'
p1054
tp1055
Rp1056
ag4
(g8
S'\xa0\x13\xb8\xb4\xb4:\xef?'
p1057
tp1058
Rp1059
ag4
(g8
S'~\xc0\x1a\xcb\xe2\x03\xe9?'
p1060
tp1061
Rp1062
ag4
(g8
S'\xa2mY=\x9f\xa4\xeb?'
p1063
tp1064
Rp1065
ag4
(g8
S'o\x0c\x8e\xa1\xf4`\xe6?'
p1066
tp1067
Rp1068
ag4
(g8
S'E\x9d\xce\x96V|\xf4?'
p1069
tp1070
Rp1071
ag4
(g8
S'D\x0e\xa0h\x056\xe9?'
p1072
tp1073
Rp1074
ag4
(g8
S'D\x95\x8e\xc1\xdc\xdd\xe1?'
p1075
tp1076
Rp1077
ag4
(g8
S'\xb7p\xe4f\xdcX\xf4?'
p1078
tp1079
Rp1080
ag4
(g8
S'\xe3\xc6\rF\xc6\xda\xe7?'
p1081
tp1082
Rp1083
ag4
(g8
S'\n\xa1\x7f\x9d\x88J#@'
p1084
tp1085
Rp1086
ag4
(g8
S'\x04\xbd\xd3m\xe8\xc6\xed?'
p1087
tp1088
Rp1089
astp1090
.